ARM GAS  /tmp/ccQmBmhQ.s 			page 1


   1              		.cpu cortex-m7
   2              		.eabi_attribute 27, 1
   3              		.eabi_attribute 28, 1
   4              		.eabi_attribute 20, 1
   5              		.eabi_attribute 21, 1
   6              		.eabi_attribute 23, 3
   7              		.eabi_attribute 24, 1
   8              		.eabi_attribute 25, 1
   9              		.eabi_attribute 26, 1
  10              		.eabi_attribute 30, 1
  11              		.eabi_attribute 34, 1
  12              		.eabi_attribute 18, 4
  13              		.file	"jcarith.c"
  14              		.text
  15              	.Ltext0:
  16              		.cfi_sections	.debug_frame
  17              		.section	.text.emit_byte,"ax",%progbits
  18              		.align	1
  19              		.syntax unified
  20              		.thumb
  21              		.thumb_func
  22              		.fpu fpv5-sp-d16
  24              	emit_byte:
  25              	.LFB3:
  26              		.file 1 "Middlewares/Third_Party/LibJPEG/source/jcarith.c"
   1:Middlewares/Third_Party/LibJPEG/source/jcarith.c **** /*
   2:Middlewares/Third_Party/LibJPEG/source/jcarith.c ****  * jcarith.c
   3:Middlewares/Third_Party/LibJPEG/source/jcarith.c ****  *
   4:Middlewares/Third_Party/LibJPEG/source/jcarith.c ****  * Developed 1997-2011 by Guido Vollbeding.
   5:Middlewares/Third_Party/LibJPEG/source/jcarith.c ****  * This file is part of the Independent JPEG Group's software.
   6:Middlewares/Third_Party/LibJPEG/source/jcarith.c ****  * For conditions of distribution and use, see the accompanying README file.
   7:Middlewares/Third_Party/LibJPEG/source/jcarith.c ****  *
   8:Middlewares/Third_Party/LibJPEG/source/jcarith.c ****  * This file contains portable arithmetic entropy encoding routines for JPEG
   9:Middlewares/Third_Party/LibJPEG/source/jcarith.c ****  * (implementing the ISO/IEC IS 10918-1 and CCITT Recommendation ITU-T T.81).
  10:Middlewares/Third_Party/LibJPEG/source/jcarith.c ****  *
  11:Middlewares/Third_Party/LibJPEG/source/jcarith.c ****  * Both sequential and progressive modes are supported in this single module.
  12:Middlewares/Third_Party/LibJPEG/source/jcarith.c ****  *
  13:Middlewares/Third_Party/LibJPEG/source/jcarith.c ****  * Suspension is not currently supported in this module.
  14:Middlewares/Third_Party/LibJPEG/source/jcarith.c ****  */
  15:Middlewares/Third_Party/LibJPEG/source/jcarith.c **** 
  16:Middlewares/Third_Party/LibJPEG/source/jcarith.c **** #define JPEG_INTERNALS
  17:Middlewares/Third_Party/LibJPEG/source/jcarith.c **** #include "jinclude.h"
  18:Middlewares/Third_Party/LibJPEG/source/jcarith.c **** #include "jpeglib.h"
  19:Middlewares/Third_Party/LibJPEG/source/jcarith.c **** 
  20:Middlewares/Third_Party/LibJPEG/source/jcarith.c **** 
  21:Middlewares/Third_Party/LibJPEG/source/jcarith.c **** /* Expanded entropy encoder object for arithmetic encoding. */
  22:Middlewares/Third_Party/LibJPEG/source/jcarith.c **** 
  23:Middlewares/Third_Party/LibJPEG/source/jcarith.c **** typedef struct {
  24:Middlewares/Third_Party/LibJPEG/source/jcarith.c ****   struct jpeg_entropy_encoder pub; /* public fields */
  25:Middlewares/Third_Party/LibJPEG/source/jcarith.c **** 
  26:Middlewares/Third_Party/LibJPEG/source/jcarith.c ****   INT32 c; /* C register, base of coding interval, layout as in sec. D.1.3 */
  27:Middlewares/Third_Party/LibJPEG/source/jcarith.c ****   INT32 a;               /* A register, normalized size of coding interval */
  28:Middlewares/Third_Party/LibJPEG/source/jcarith.c ****   INT32 sc;        /* counter for stacked 0xFF values which might overflow */
  29:Middlewares/Third_Party/LibJPEG/source/jcarith.c ****   INT32 zc;          /* counter for pending 0x00 output values which might *
  30:Middlewares/Third_Party/LibJPEG/source/jcarith.c ****                           * be discarded at the end ("Pacman" termination) */
  31:Middlewares/Third_Party/LibJPEG/source/jcarith.c ****   int ct;  /* bit shift counter, determines when next byte will be written */
  32:Middlewares/Third_Party/LibJPEG/source/jcarith.c ****   int buffer;                /* buffer for most recent output byte != 0xFF */
ARM GAS  /tmp/ccQmBmhQ.s 			page 2


  33:Middlewares/Third_Party/LibJPEG/source/jcarith.c **** 
  34:Middlewares/Third_Party/LibJPEG/source/jcarith.c ****   int last_dc_val[MAX_COMPS_IN_SCAN]; /* last DC coef for each component */
  35:Middlewares/Third_Party/LibJPEG/source/jcarith.c ****   int dc_context[MAX_COMPS_IN_SCAN]; /* context index for DC conditioning */
  36:Middlewares/Third_Party/LibJPEG/source/jcarith.c **** 
  37:Middlewares/Third_Party/LibJPEG/source/jcarith.c ****   unsigned int restarts_to_go;	/* MCUs left in this restart interval */
  38:Middlewares/Third_Party/LibJPEG/source/jcarith.c ****   int next_restart_num;		/* next restart number to write (0-7) */
  39:Middlewares/Third_Party/LibJPEG/source/jcarith.c **** 
  40:Middlewares/Third_Party/LibJPEG/source/jcarith.c ****   /* Pointers to statistics areas (these workspaces have image lifespan) */
  41:Middlewares/Third_Party/LibJPEG/source/jcarith.c ****   unsigned char * dc_stats[NUM_ARITH_TBLS];
  42:Middlewares/Third_Party/LibJPEG/source/jcarith.c ****   unsigned char * ac_stats[NUM_ARITH_TBLS];
  43:Middlewares/Third_Party/LibJPEG/source/jcarith.c **** 
  44:Middlewares/Third_Party/LibJPEG/source/jcarith.c ****   /* Statistics bin for coding with fixed probability 0.5 */
  45:Middlewares/Third_Party/LibJPEG/source/jcarith.c ****   unsigned char fixed_bin[4];
  46:Middlewares/Third_Party/LibJPEG/source/jcarith.c **** } arith_entropy_encoder;
  47:Middlewares/Third_Party/LibJPEG/source/jcarith.c **** 
  48:Middlewares/Third_Party/LibJPEG/source/jcarith.c **** typedef arith_entropy_encoder * arith_entropy_ptr;
  49:Middlewares/Third_Party/LibJPEG/source/jcarith.c **** 
  50:Middlewares/Third_Party/LibJPEG/source/jcarith.c **** /* The following two definitions specify the allocation chunk size
  51:Middlewares/Third_Party/LibJPEG/source/jcarith.c ****  * for the statistics area.
  52:Middlewares/Third_Party/LibJPEG/source/jcarith.c ****  * According to sections F.1.4.4.1.3 and F.1.4.4.2, we need at least
  53:Middlewares/Third_Party/LibJPEG/source/jcarith.c ****  * 49 statistics bins for DC, and 245 statistics bins for AC coding.
  54:Middlewares/Third_Party/LibJPEG/source/jcarith.c ****  *
  55:Middlewares/Third_Party/LibJPEG/source/jcarith.c ****  * We use a compact representation with 1 byte per statistics bin,
  56:Middlewares/Third_Party/LibJPEG/source/jcarith.c ****  * thus the numbers directly represent byte sizes.
  57:Middlewares/Third_Party/LibJPEG/source/jcarith.c ****  * This 1 byte per statistics bin contains the meaning of the MPS
  58:Middlewares/Third_Party/LibJPEG/source/jcarith.c ****  * (more probable symbol) in the highest bit (mask 0x80), and the
  59:Middlewares/Third_Party/LibJPEG/source/jcarith.c ****  * index into the probability estimation state machine table
  60:Middlewares/Third_Party/LibJPEG/source/jcarith.c ****  * in the lower bits (mask 0x7F).
  61:Middlewares/Third_Party/LibJPEG/source/jcarith.c ****  */
  62:Middlewares/Third_Party/LibJPEG/source/jcarith.c **** 
  63:Middlewares/Third_Party/LibJPEG/source/jcarith.c **** #define DC_STAT_BINS 64
  64:Middlewares/Third_Party/LibJPEG/source/jcarith.c **** #define AC_STAT_BINS 256
  65:Middlewares/Third_Party/LibJPEG/source/jcarith.c **** 
  66:Middlewares/Third_Party/LibJPEG/source/jcarith.c **** /* NOTE: Uncomment the following #define if you want to use the
  67:Middlewares/Third_Party/LibJPEG/source/jcarith.c ****  * given formula for calculating the AC conditioning parameter Kx
  68:Middlewares/Third_Party/LibJPEG/source/jcarith.c ****  * for spectral selection progressive coding in section G.1.3.2
  69:Middlewares/Third_Party/LibJPEG/source/jcarith.c ****  * of the spec (Kx = Kmin + SRL (8 + Se - Kmin) 4).
  70:Middlewares/Third_Party/LibJPEG/source/jcarith.c ****  * Although the spec and P&M authors claim that this "has proven
  71:Middlewares/Third_Party/LibJPEG/source/jcarith.c ****  * to give good results for 8 bit precision samples", I'm not
  72:Middlewares/Third_Party/LibJPEG/source/jcarith.c ****  * convinced yet that this is really beneficial.
  73:Middlewares/Third_Party/LibJPEG/source/jcarith.c ****  * Early tests gave only very marginal compression enhancements
  74:Middlewares/Third_Party/LibJPEG/source/jcarith.c ****  * (a few - around 5 or so - bytes even for very large files),
  75:Middlewares/Third_Party/LibJPEG/source/jcarith.c ****  * which would turn out rather negative if we'd suppress the
  76:Middlewares/Third_Party/LibJPEG/source/jcarith.c ****  * DAC (Define Arithmetic Conditioning) marker segments for
  77:Middlewares/Third_Party/LibJPEG/source/jcarith.c ****  * the default parameters in the future.
  78:Middlewares/Third_Party/LibJPEG/source/jcarith.c ****  * Note that currently the marker writing module emits 12-byte
  79:Middlewares/Third_Party/LibJPEG/source/jcarith.c ****  * DAC segments for a full-component scan in a color image.
  80:Middlewares/Third_Party/LibJPEG/source/jcarith.c ****  * This is not worth worrying about IMHO. However, since the
  81:Middlewares/Third_Party/LibJPEG/source/jcarith.c ****  * spec defines the default values to be used if the tables
  82:Middlewares/Third_Party/LibJPEG/source/jcarith.c ****  * are omitted (unlike Huffman tables, which are required
  83:Middlewares/Third_Party/LibJPEG/source/jcarith.c ****  * anyway), one might optimize this behaviour in the future,
  84:Middlewares/Third_Party/LibJPEG/source/jcarith.c ****  * and then it would be disadvantageous to use custom tables if
  85:Middlewares/Third_Party/LibJPEG/source/jcarith.c ****  * they don't provide sufficient gain to exceed the DAC size.
  86:Middlewares/Third_Party/LibJPEG/source/jcarith.c ****  *
  87:Middlewares/Third_Party/LibJPEG/source/jcarith.c ****  * On the other hand, I'd consider it as a reasonable result
  88:Middlewares/Third_Party/LibJPEG/source/jcarith.c ****  * that the conditioning has no significant influence on the
  89:Middlewares/Third_Party/LibJPEG/source/jcarith.c ****  * compression performance. This means that the basic
ARM GAS  /tmp/ccQmBmhQ.s 			page 3


  90:Middlewares/Third_Party/LibJPEG/source/jcarith.c ****  * statistical model is already rather stable.
  91:Middlewares/Third_Party/LibJPEG/source/jcarith.c ****  *
  92:Middlewares/Third_Party/LibJPEG/source/jcarith.c ****  * Thus, at the moment, we use the default conditioning values
  93:Middlewares/Third_Party/LibJPEG/source/jcarith.c ****  * anyway, and do not use the custom formula.
  94:Middlewares/Third_Party/LibJPEG/source/jcarith.c ****  *
  95:Middlewares/Third_Party/LibJPEG/source/jcarith.c **** #define CALCULATE_SPECTRAL_CONDITIONING
  96:Middlewares/Third_Party/LibJPEG/source/jcarith.c ****  */
  97:Middlewares/Third_Party/LibJPEG/source/jcarith.c **** 
  98:Middlewares/Third_Party/LibJPEG/source/jcarith.c **** /* IRIGHT_SHIFT is like RIGHT_SHIFT, but works on int rather than INT32.
  99:Middlewares/Third_Party/LibJPEG/source/jcarith.c ****  * We assume that int right shift is unsigned if INT32 right shift is,
 100:Middlewares/Third_Party/LibJPEG/source/jcarith.c ****  * which should be safe.
 101:Middlewares/Third_Party/LibJPEG/source/jcarith.c ****  */
 102:Middlewares/Third_Party/LibJPEG/source/jcarith.c **** 
 103:Middlewares/Third_Party/LibJPEG/source/jcarith.c **** #ifdef RIGHT_SHIFT_IS_UNSIGNED
 104:Middlewares/Third_Party/LibJPEG/source/jcarith.c **** #define ISHIFT_TEMPS	int ishift_temp;
 105:Middlewares/Third_Party/LibJPEG/source/jcarith.c **** #define IRIGHT_SHIFT(x,shft)  \
 106:Middlewares/Third_Party/LibJPEG/source/jcarith.c **** 	((ishift_temp = (x)) < 0 ? \
 107:Middlewares/Third_Party/LibJPEG/source/jcarith.c **** 	 (ishift_temp >> (shft)) | ((~0) << (16-(shft))) : \
 108:Middlewares/Third_Party/LibJPEG/source/jcarith.c **** 	 (ishift_temp >> (shft)))
 109:Middlewares/Third_Party/LibJPEG/source/jcarith.c **** #else
 110:Middlewares/Third_Party/LibJPEG/source/jcarith.c **** #define ISHIFT_TEMPS
 111:Middlewares/Third_Party/LibJPEG/source/jcarith.c **** #define IRIGHT_SHIFT(x,shft)	((x) >> (shft))
 112:Middlewares/Third_Party/LibJPEG/source/jcarith.c **** #endif
 113:Middlewares/Third_Party/LibJPEG/source/jcarith.c **** 
 114:Middlewares/Third_Party/LibJPEG/source/jcarith.c **** 
 115:Middlewares/Third_Party/LibJPEG/source/jcarith.c **** LOCAL(void)
 116:Middlewares/Third_Party/LibJPEG/source/jcarith.c **** emit_byte (int val, j_compress_ptr cinfo)
 117:Middlewares/Third_Party/LibJPEG/source/jcarith.c **** /* Write next output byte; we do not support suspension in this module. */
 118:Middlewares/Third_Party/LibJPEG/source/jcarith.c **** {
  27              		.loc 1 118 0
  28              		.cfi_startproc
  29              		@ args = 0, pretend = 0, frame = 0
  30              		@ frame_needed = 0, uses_anonymous_args = 0
  31              	.LVL0:
  32 0000 10B5     		push	{r4, lr}
  33              	.LCFI0:
  34              		.cfi_def_cfa_offset 8
  35              		.cfi_offset 4, -8
  36              		.cfi_offset 14, -4
 119:Middlewares/Third_Party/LibJPEG/source/jcarith.c ****   struct jpeg_destination_mgr * dest = cinfo->dest;
  37              		.loc 1 119 0
  38 0002 8B69     		ldr	r3, [r1, #24]
  39              	.LVL1:
 120:Middlewares/Third_Party/LibJPEG/source/jcarith.c **** 
 121:Middlewares/Third_Party/LibJPEG/source/jcarith.c ****   *dest->next_output_byte++ = (JOCTET) val;
  40              		.loc 1 121 0
  41 0004 1A68     		ldr	r2, [r3]
  42 0006 541C     		adds	r4, r2, #1
  43 0008 1C60     		str	r4, [r3]
  44 000a 1070     		strb	r0, [r2]
 122:Middlewares/Third_Party/LibJPEG/source/jcarith.c ****   if (--dest->free_in_buffer == 0)
  45              		.loc 1 122 0
  46 000c 5A68     		ldr	r2, [r3, #4]
  47 000e 013A     		subs	r2, r2, #1
  48 0010 5A60     		str	r2, [r3, #4]
  49 0012 5AB9     		cbnz	r2, .L1
  50 0014 0C46     		mov	r4, r1
ARM GAS  /tmp/ccQmBmhQ.s 			page 4


 123:Middlewares/Third_Party/LibJPEG/source/jcarith.c ****     if (! (*dest->empty_output_buffer) (cinfo))
  51              		.loc 1 123 0
  52 0016 DB68     		ldr	r3, [r3, #12]
  53              	.LVL2:
  54 0018 0846     		mov	r0, r1
  55              	.LVL3:
  56 001a 9847     		blx	r3
  57              	.LVL4:
  58 001c 30B9     		cbnz	r0, .L1
 124:Middlewares/Third_Party/LibJPEG/source/jcarith.c ****       ERREXIT(cinfo, JERR_CANT_SUSPEND);
  59              		.loc 1 124 0
  60 001e 2368     		ldr	r3, [r4]
  61 0020 1922     		movs	r2, #25
  62 0022 5A61     		str	r2, [r3, #20]
  63 0024 2368     		ldr	r3, [r4]
  64 0026 1B68     		ldr	r3, [r3]
  65 0028 2046     		mov	r0, r4
  66 002a 9847     		blx	r3
  67              	.LVL5:
  68              	.L1:
 125:Middlewares/Third_Party/LibJPEG/source/jcarith.c **** }
  69              		.loc 1 125 0
  70 002c 10BD     		pop	{r4, pc}
  71              		.cfi_endproc
  72              	.LFE3:
  74              		.section	.text.finish_pass,"ax",%progbits
  75              		.align	1
  76              		.syntax unified
  77              		.thumb
  78              		.thumb_func
  79              		.fpu fpv5-sp-d16
  81              	finish_pass:
  82              	.LFB4:
 126:Middlewares/Third_Party/LibJPEG/source/jcarith.c **** 
 127:Middlewares/Third_Party/LibJPEG/source/jcarith.c **** 
 128:Middlewares/Third_Party/LibJPEG/source/jcarith.c **** /*
 129:Middlewares/Third_Party/LibJPEG/source/jcarith.c ****  * Finish up at the end of an arithmetic-compressed scan.
 130:Middlewares/Third_Party/LibJPEG/source/jcarith.c ****  */
 131:Middlewares/Third_Party/LibJPEG/source/jcarith.c **** 
 132:Middlewares/Third_Party/LibJPEG/source/jcarith.c **** METHODDEF(void)
 133:Middlewares/Third_Party/LibJPEG/source/jcarith.c **** finish_pass (j_compress_ptr cinfo)
 134:Middlewares/Third_Party/LibJPEG/source/jcarith.c **** {
  83              		.loc 1 134 0
  84              		.cfi_startproc
  85              		@ args = 0, pretend = 0, frame = 0
  86              		@ frame_needed = 0, uses_anonymous_args = 0
  87              	.LVL6:
  88 0000 38B5     		push	{r3, r4, r5, lr}
  89              	.LCFI1:
  90              		.cfi_def_cfa_offset 16
  91              		.cfi_offset 3, -16
  92              		.cfi_offset 4, -12
  93              		.cfi_offset 5, -8
  94              		.cfi_offset 14, -4
  95 0002 0546     		mov	r5, r0
 135:Middlewares/Third_Party/LibJPEG/source/jcarith.c ****   arith_entropy_ptr e = (arith_entropy_ptr) cinfo->entropy;
  96              		.loc 1 135 0
ARM GAS  /tmp/ccQmBmhQ.s 			page 5


  97 0004 D0F8A441 		ldr	r4, [r0, #420]
  98              	.LVL7:
 136:Middlewares/Third_Party/LibJPEG/source/jcarith.c ****   INT32 temp;
 137:Middlewares/Third_Party/LibJPEG/source/jcarith.c **** 
 138:Middlewares/Third_Party/LibJPEG/source/jcarith.c ****   /* Section D.1.8: Termination of encoding */
 139:Middlewares/Third_Party/LibJPEG/source/jcarith.c **** 
 140:Middlewares/Third_Party/LibJPEG/source/jcarith.c ****   /* Find the e->c in the coding interval with the largest
 141:Middlewares/Third_Party/LibJPEG/source/jcarith.c ****    * number of trailing zero bits */
 142:Middlewares/Third_Party/LibJPEG/source/jcarith.c ****   if ((temp = (e->a - 1 + e->c) & 0xFFFF0000L) < e->c)
  99              		.loc 1 142 0
 100 0008 2369     		ldr	r3, [r4, #16]
 101 000a 013B     		subs	r3, r3, #1
 102 000c E168     		ldr	r1, [r4, #12]
 103 000e 0B44     		add	r3, r3, r1
 104 0010 4B4A     		ldr	r2, .L27
 105 0012 1A40     		ands	r2, r2, r3
 106              	.LVL8:
 107 0014 9142     		cmp	r1, r2
 108 0016 44DD     		ble	.L5
 143:Middlewares/Third_Party/LibJPEG/source/jcarith.c ****     e->c = temp + 0x8000L;
 109              		.loc 1 143 0
 110 0018 02F50042 		add	r2, r2, #32768
 111              	.LVL9:
 112 001c E260     		str	r2, [r4, #12]
 113              	.LVL10:
 114              	.L6:
 144:Middlewares/Third_Party/LibJPEG/source/jcarith.c ****   else
 145:Middlewares/Third_Party/LibJPEG/source/jcarith.c ****     e->c = temp;
 146:Middlewares/Third_Party/LibJPEG/source/jcarith.c ****   /* Send remaining bytes to output */
 147:Middlewares/Third_Party/LibJPEG/source/jcarith.c ****   e->c <<= e->ct;
 115              		.loc 1 147 0
 116 001e E269     		ldr	r2, [r4, #28]
 117 0020 E368     		ldr	r3, [r4, #12]
 118              	.LVL11:
 119 0022 9340     		lsls	r3, r3, r2
 120 0024 E360     		str	r3, [r4, #12]
 148:Middlewares/Third_Party/LibJPEG/source/jcarith.c ****   if (e->c & 0xF8000000L) {
 121              		.loc 1 148 0
 122 0026 13F0784F 		tst	r3, #-134217728
 123 002a 41D0     		beq	.L7
 149:Middlewares/Third_Party/LibJPEG/source/jcarith.c ****     /* One final overflow has to be handled */
 150:Middlewares/Third_Party/LibJPEG/source/jcarith.c ****     if (e->buffer >= 0) {
 124              		.loc 1 150 0
 125 002c 236A     		ldr	r3, [r4, #32]
 126 002e 002B     		cmp	r3, #0
 127 0030 12DB     		blt	.L8
 151:Middlewares/Third_Party/LibJPEG/source/jcarith.c ****       if (e->zc)
 128              		.loc 1 151 0
 129 0032 A369     		ldr	r3, [r4, #24]
 130 0034 43B1     		cbz	r3, .L9
 131              	.LVL12:
 132              	.L10:
 152:Middlewares/Third_Party/LibJPEG/source/jcarith.c **** 	do emit_byte(0x00, cinfo);
 133              		.loc 1 152 0 discriminator 1
 134 0036 2946     		mov	r1, r5
 135 0038 0020     		movs	r0, #0
 136 003a FFF7FEFF 		bl	emit_byte
ARM GAS  /tmp/ccQmBmhQ.s 			page 6


 137              	.LVL13:
 153:Middlewares/Third_Party/LibJPEG/source/jcarith.c **** 	while (--e->zc);
 138              		.loc 1 153 0 discriminator 1
 139 003e A369     		ldr	r3, [r4, #24]
 140 0040 013B     		subs	r3, r3, #1
 141 0042 A361     		str	r3, [r4, #24]
 142 0044 002B     		cmp	r3, #0
 143 0046 F6D1     		bne	.L10
 144              	.L9:
 154:Middlewares/Third_Party/LibJPEG/source/jcarith.c ****       emit_byte(e->buffer + 1, cinfo);
 145              		.loc 1 154 0
 146 0048 206A     		ldr	r0, [r4, #32]
 147 004a 2946     		mov	r1, r5
 148 004c 0130     		adds	r0, r0, #1
 149 004e FFF7FEFF 		bl	emit_byte
 150              	.LVL14:
 155:Middlewares/Third_Party/LibJPEG/source/jcarith.c ****       if (e->buffer + 1 == 0xFF)
 151              		.loc 1 155 0
 152 0052 236A     		ldr	r3, [r4, #32]
 153 0054 FE2B     		cmp	r3, #254
 154 0056 26D0     		beq	.L24
 155              	.L8:
 156:Middlewares/Third_Party/LibJPEG/source/jcarith.c **** 	emit_byte(0x00, cinfo);
 157:Middlewares/Third_Party/LibJPEG/source/jcarith.c ****     }
 158:Middlewares/Third_Party/LibJPEG/source/jcarith.c ****     e->zc += e->sc;  /* carry-over converts stacked 0xFF bytes to 0x00 */
 156              		.loc 1 158 0
 157 0058 6269     		ldr	r2, [r4, #20]
 158 005a A369     		ldr	r3, [r4, #24]
 159 005c 1344     		add	r3, r3, r2
 160 005e A361     		str	r3, [r4, #24]
 159:Middlewares/Third_Party/LibJPEG/source/jcarith.c ****     e->sc = 0;
 161              		.loc 1 159 0
 162 0060 0023     		movs	r3, #0
 163 0062 6361     		str	r3, [r4, #20]
 164              	.L11:
 160:Middlewares/Third_Party/LibJPEG/source/jcarith.c ****   } else {
 161:Middlewares/Third_Party/LibJPEG/source/jcarith.c ****     if (e->buffer == 0)
 162:Middlewares/Third_Party/LibJPEG/source/jcarith.c ****       ++e->zc;
 163:Middlewares/Third_Party/LibJPEG/source/jcarith.c ****     else if (e->buffer >= 0) {
 164:Middlewares/Third_Party/LibJPEG/source/jcarith.c ****       if (e->zc)
 165:Middlewares/Third_Party/LibJPEG/source/jcarith.c **** 	do emit_byte(0x00, cinfo);
 166:Middlewares/Third_Party/LibJPEG/source/jcarith.c **** 	while (--e->zc);
 167:Middlewares/Third_Party/LibJPEG/source/jcarith.c ****       emit_byte(e->buffer, cinfo);
 168:Middlewares/Third_Party/LibJPEG/source/jcarith.c ****     }
 169:Middlewares/Third_Party/LibJPEG/source/jcarith.c ****     if (e->sc) {
 170:Middlewares/Third_Party/LibJPEG/source/jcarith.c ****       if (e->zc)
 171:Middlewares/Third_Party/LibJPEG/source/jcarith.c **** 	do emit_byte(0x00, cinfo);
 172:Middlewares/Third_Party/LibJPEG/source/jcarith.c **** 	while (--e->zc);
 173:Middlewares/Third_Party/LibJPEG/source/jcarith.c ****       do {
 174:Middlewares/Third_Party/LibJPEG/source/jcarith.c **** 	emit_byte(0xFF, cinfo);
 175:Middlewares/Third_Party/LibJPEG/source/jcarith.c **** 	emit_byte(0x00, cinfo);
 176:Middlewares/Third_Party/LibJPEG/source/jcarith.c ****       } while (--e->sc);
 177:Middlewares/Third_Party/LibJPEG/source/jcarith.c ****     }
 178:Middlewares/Third_Party/LibJPEG/source/jcarith.c ****   }
 179:Middlewares/Third_Party/LibJPEG/source/jcarith.c ****   /* Output final bytes only if they are not 0x00 */
 180:Middlewares/Third_Party/LibJPEG/source/jcarith.c ****   if (e->c & 0x7FFF800L) {
 165              		.loc 1 180 0
ARM GAS  /tmp/ccQmBmhQ.s 			page 7


 166 0064 E268     		ldr	r2, [r4, #12]
 167 0066 374B     		ldr	r3, .L27+4
 168 0068 1340     		ands	r3, r3, r2
 169 006a CBB1     		cbz	r3, .L4
 181:Middlewares/Third_Party/LibJPEG/source/jcarith.c ****     if (e->zc)  /* output final pending zero bytes */
 170              		.loc 1 181 0
 171 006c A369     		ldr	r3, [r4, #24]
 172 006e 43B1     		cbz	r3, .L20
 173              	.L21:
 182:Middlewares/Third_Party/LibJPEG/source/jcarith.c ****       do emit_byte(0x00, cinfo);
 174              		.loc 1 182 0 discriminator 1
 175 0070 2946     		mov	r1, r5
 176 0072 0020     		movs	r0, #0
 177 0074 FFF7FEFF 		bl	emit_byte
 178              	.LVL15:
 183:Middlewares/Third_Party/LibJPEG/source/jcarith.c ****       while (--e->zc);
 179              		.loc 1 183 0 discriminator 1
 180 0078 A369     		ldr	r3, [r4, #24]
 181 007a 013B     		subs	r3, r3, #1
 182 007c A361     		str	r3, [r4, #24]
 183 007e 002B     		cmp	r3, #0
 184 0080 F6D1     		bne	.L21
 185              	.L20:
 184:Middlewares/Third_Party/LibJPEG/source/jcarith.c ****     emit_byte((e->c >> 19) & 0xFF, cinfo);
 186              		.loc 1 184 0
 187 0082 E068     		ldr	r0, [r4, #12]
 188 0084 2946     		mov	r1, r5
 189 0086 C0F3C740 		ubfx	r0, r0, #19, #8
 190 008a FFF7FEFF 		bl	emit_byte
 191              	.LVL16:
 185:Middlewares/Third_Party/LibJPEG/source/jcarith.c ****     if (((e->c >> 19) & 0xFF) == 0xFF)
 192              		.loc 1 185 0
 193 008e E368     		ldr	r3, [r4, #12]
 194 0090 C3F3C743 		ubfx	r3, r3, #19, #8
 195 0094 FF2B     		cmp	r3, #255
 196 0096 3ED0     		beq	.L25
 197              	.L22:
 186:Middlewares/Third_Party/LibJPEG/source/jcarith.c ****       emit_byte(0x00, cinfo);
 187:Middlewares/Third_Party/LibJPEG/source/jcarith.c ****     if (e->c & 0x7F800L) {
 198              		.loc 1 187 0
 199 0098 E068     		ldr	r0, [r4, #12]
 200 009a 10F4FF2F 		tst	r0, #522240
 201 009e 3FD1     		bne	.L26
 202              	.L4:
 188:Middlewares/Third_Party/LibJPEG/source/jcarith.c ****       emit_byte((e->c >> 11) & 0xFF, cinfo);
 189:Middlewares/Third_Party/LibJPEG/source/jcarith.c ****       if (((e->c >> 11) & 0xFF) == 0xFF)
 190:Middlewares/Third_Party/LibJPEG/source/jcarith.c **** 	emit_byte(0x00, cinfo);
 191:Middlewares/Third_Party/LibJPEG/source/jcarith.c ****     }
 192:Middlewares/Third_Party/LibJPEG/source/jcarith.c ****   }
 193:Middlewares/Third_Party/LibJPEG/source/jcarith.c **** }
 203              		.loc 1 193 0
 204 00a0 38BD     		pop	{r3, r4, r5, pc}
 205              	.LVL17:
 206              	.L5:
 145:Middlewares/Third_Party/LibJPEG/source/jcarith.c ****   /* Send remaining bytes to output */
 207              		.loc 1 145 0
 208 00a2 E260     		str	r2, [r4, #12]
ARM GAS  /tmp/ccQmBmhQ.s 			page 8


 209 00a4 BBE7     		b	.L6
 210              	.LVL18:
 211              	.L24:
 156:Middlewares/Third_Party/LibJPEG/source/jcarith.c ****     }
 212              		.loc 1 156 0
 213 00a6 2946     		mov	r1, r5
 214 00a8 0020     		movs	r0, #0
 215 00aa FFF7FEFF 		bl	emit_byte
 216              	.LVL19:
 217 00ae D3E7     		b	.L8
 218              	.LVL20:
 219              	.L7:
 161:Middlewares/Third_Party/LibJPEG/source/jcarith.c ****       ++e->zc;
 220              		.loc 1 161 0
 221 00b0 236A     		ldr	r3, [r4, #32]
 222 00b2 F3B9     		cbnz	r3, .L12
 162:Middlewares/Third_Party/LibJPEG/source/jcarith.c ****     else if (e->buffer >= 0) {
 223              		.loc 1 162 0
 224 00b4 A369     		ldr	r3, [r4, #24]
 225 00b6 0133     		adds	r3, r3, #1
 226 00b8 A361     		str	r3, [r4, #24]
 227              	.LVL21:
 228              	.L13:
 169:Middlewares/Third_Party/LibJPEG/source/jcarith.c ****       if (e->zc)
 229              		.loc 1 169 0
 230 00ba 6369     		ldr	r3, [r4, #20]
 231 00bc 002B     		cmp	r3, #0
 232 00be D1D0     		beq	.L11
 170:Middlewares/Third_Party/LibJPEG/source/jcarith.c **** 	do emit_byte(0x00, cinfo);
 233              		.loc 1 170 0
 234 00c0 A369     		ldr	r3, [r4, #24]
 235 00c2 43B1     		cbz	r3, .L18
 236              	.L17:
 171:Middlewares/Third_Party/LibJPEG/source/jcarith.c **** 	while (--e->zc);
 237              		.loc 1 171 0 discriminator 1
 238 00c4 2946     		mov	r1, r5
 239 00c6 0020     		movs	r0, #0
 240 00c8 FFF7FEFF 		bl	emit_byte
 241              	.LVL22:
 172:Middlewares/Third_Party/LibJPEG/source/jcarith.c ****       do {
 242              		.loc 1 172 0 discriminator 1
 243 00cc A369     		ldr	r3, [r4, #24]
 244 00ce 013B     		subs	r3, r3, #1
 245 00d0 A361     		str	r3, [r4, #24]
 246 00d2 002B     		cmp	r3, #0
 247 00d4 F6D1     		bne	.L17
 248              	.L18:
 174:Middlewares/Third_Party/LibJPEG/source/jcarith.c **** 	emit_byte(0x00, cinfo);
 249              		.loc 1 174 0 discriminator 1
 250 00d6 2946     		mov	r1, r5
 251 00d8 FF20     		movs	r0, #255
 252 00da FFF7FEFF 		bl	emit_byte
 253              	.LVL23:
 175:Middlewares/Third_Party/LibJPEG/source/jcarith.c ****       } while (--e->sc);
 254              		.loc 1 175 0 discriminator 1
 255 00de 2946     		mov	r1, r5
 256 00e0 0020     		movs	r0, #0
ARM GAS  /tmp/ccQmBmhQ.s 			page 9


 257 00e2 FFF7FEFF 		bl	emit_byte
 258              	.LVL24:
 176:Middlewares/Third_Party/LibJPEG/source/jcarith.c ****     }
 259              		.loc 1 176 0 discriminator 1
 260 00e6 6369     		ldr	r3, [r4, #20]
 261 00e8 013B     		subs	r3, r3, #1
 262 00ea 6361     		str	r3, [r4, #20]
 263 00ec 002B     		cmp	r3, #0
 264 00ee F2D1     		bne	.L18
 265 00f0 B8E7     		b	.L11
 266              	.LVL25:
 267              	.L12:
 163:Middlewares/Third_Party/LibJPEG/source/jcarith.c ****       if (e->zc)
 268              		.loc 1 163 0
 269 00f2 002B     		cmp	r3, #0
 270 00f4 E1DB     		blt	.L13
 164:Middlewares/Third_Party/LibJPEG/source/jcarith.c **** 	do emit_byte(0x00, cinfo);
 271              		.loc 1 164 0
 272 00f6 A369     		ldr	r3, [r4, #24]
 273 00f8 43B1     		cbz	r3, .L14
 274              	.LVL26:
 275              	.L15:
 165:Middlewares/Third_Party/LibJPEG/source/jcarith.c **** 	while (--e->zc);
 276              		.loc 1 165 0 discriminator 1
 277 00fa 2946     		mov	r1, r5
 278 00fc 0020     		movs	r0, #0
 279 00fe FFF7FEFF 		bl	emit_byte
 280              	.LVL27:
 166:Middlewares/Third_Party/LibJPEG/source/jcarith.c ****       emit_byte(e->buffer, cinfo);
 281              		.loc 1 166 0 discriminator 1
 282 0102 A369     		ldr	r3, [r4, #24]
 283 0104 013B     		subs	r3, r3, #1
 284 0106 A361     		str	r3, [r4, #24]
 285 0108 002B     		cmp	r3, #0
 286 010a F6D1     		bne	.L15
 287              	.L14:
 167:Middlewares/Third_Party/LibJPEG/source/jcarith.c ****     }
 288              		.loc 1 167 0
 289 010c 2946     		mov	r1, r5
 290 010e 206A     		ldr	r0, [r4, #32]
 291 0110 FFF7FEFF 		bl	emit_byte
 292              	.LVL28:
 293 0114 D1E7     		b	.L13
 294              	.L25:
 186:Middlewares/Third_Party/LibJPEG/source/jcarith.c ****     if (e->c & 0x7F800L) {
 295              		.loc 1 186 0
 296 0116 2946     		mov	r1, r5
 297 0118 0020     		movs	r0, #0
 298 011a FFF7FEFF 		bl	emit_byte
 299              	.LVL29:
 300 011e BBE7     		b	.L22
 301              	.L26:
 188:Middlewares/Third_Party/LibJPEG/source/jcarith.c ****       if (((e->c >> 11) & 0xFF) == 0xFF)
 302              		.loc 1 188 0
 303 0120 2946     		mov	r1, r5
 304 0122 C0F3C720 		ubfx	r0, r0, #11, #8
 305 0126 FFF7FEFF 		bl	emit_byte
ARM GAS  /tmp/ccQmBmhQ.s 			page 10


 306              	.LVL30:
 189:Middlewares/Third_Party/LibJPEG/source/jcarith.c **** 	emit_byte(0x00, cinfo);
 307              		.loc 1 189 0
 308 012a E368     		ldr	r3, [r4, #12]
 309 012c C3F3C723 		ubfx	r3, r3, #11, #8
 310 0130 FF2B     		cmp	r3, #255
 311 0132 B5D1     		bne	.L4
 190:Middlewares/Third_Party/LibJPEG/source/jcarith.c ****     }
 312              		.loc 1 190 0
 313 0134 2946     		mov	r1, r5
 314 0136 0020     		movs	r0, #0
 315 0138 FFF7FEFF 		bl	emit_byte
 316              	.LVL31:
 317              		.loc 1 193 0
 318 013c B0E7     		b	.L4
 319              	.L28:
 320 013e 00BF     		.align	2
 321              	.L27:
 322 0140 0000FFFF 		.word	-65536
 323 0144 00F8FF07 		.word	134215680
 324              		.cfi_endproc
 325              	.LFE4:
 327              		.section	.text.arith_encode,"ax",%progbits
 328              		.align	1
 329              		.syntax unified
 330              		.thumb
 331              		.thumb_func
 332              		.fpu fpv5-sp-d16
 334              	arith_encode:
 335              	.LFB5:
 194:Middlewares/Third_Party/LibJPEG/source/jcarith.c **** 
 195:Middlewares/Third_Party/LibJPEG/source/jcarith.c **** 
 196:Middlewares/Third_Party/LibJPEG/source/jcarith.c **** /*
 197:Middlewares/Third_Party/LibJPEG/source/jcarith.c ****  * The core arithmetic encoding routine (common in JPEG and JBIG).
 198:Middlewares/Third_Party/LibJPEG/source/jcarith.c ****  * This needs to go as fast as possible.
 199:Middlewares/Third_Party/LibJPEG/source/jcarith.c ****  * Machine-dependent optimization facilities
 200:Middlewares/Third_Party/LibJPEG/source/jcarith.c ****  * are not utilized in this portable implementation.
 201:Middlewares/Third_Party/LibJPEG/source/jcarith.c ****  * However, this code should be fairly efficient and
 202:Middlewares/Third_Party/LibJPEG/source/jcarith.c ****  * may be a good base for further optimizations anyway.
 203:Middlewares/Third_Party/LibJPEG/source/jcarith.c ****  *
 204:Middlewares/Third_Party/LibJPEG/source/jcarith.c ****  * Parameter 'val' to be encoded may be 0 or 1 (binary decision).
 205:Middlewares/Third_Party/LibJPEG/source/jcarith.c ****  *
 206:Middlewares/Third_Party/LibJPEG/source/jcarith.c ****  * Note: I've added full "Pacman" termination support to the
 207:Middlewares/Third_Party/LibJPEG/source/jcarith.c ****  * byte output routines, which is equivalent to the optional
 208:Middlewares/Third_Party/LibJPEG/source/jcarith.c ****  * Discard_final_zeros procedure (Figure D.15) in the spec.
 209:Middlewares/Third_Party/LibJPEG/source/jcarith.c ****  * Thus, we always produce the shortest possible output
 210:Middlewares/Third_Party/LibJPEG/source/jcarith.c ****  * stream compliant to the spec (no trailing zero bytes,
 211:Middlewares/Third_Party/LibJPEG/source/jcarith.c ****  * except for FF stuffing).
 212:Middlewares/Third_Party/LibJPEG/source/jcarith.c ****  *
 213:Middlewares/Third_Party/LibJPEG/source/jcarith.c ****  * I've also introduced a new scheme for accessing
 214:Middlewares/Third_Party/LibJPEG/source/jcarith.c ****  * the probability estimation state machine table,
 215:Middlewares/Third_Party/LibJPEG/source/jcarith.c ****  * derived from Markus Kuhn's JBIG implementation.
 216:Middlewares/Third_Party/LibJPEG/source/jcarith.c ****  */
 217:Middlewares/Third_Party/LibJPEG/source/jcarith.c **** 
 218:Middlewares/Third_Party/LibJPEG/source/jcarith.c **** LOCAL(void)
 219:Middlewares/Third_Party/LibJPEG/source/jcarith.c **** arith_encode (j_compress_ptr cinfo, unsigned char *st, int val) 
 220:Middlewares/Third_Party/LibJPEG/source/jcarith.c **** {
ARM GAS  /tmp/ccQmBmhQ.s 			page 11


 336              		.loc 1 220 0
 337              		.cfi_startproc
 338              		@ args = 0, pretend = 0, frame = 0
 339              		@ frame_needed = 0, uses_anonymous_args = 0
 340              	.LVL32:
 341 0000 F8B5     		push	{r3, r4, r5, r6, r7, lr}
 342              	.LCFI2:
 343              		.cfi_def_cfa_offset 24
 344              		.cfi_offset 3, -24
 345              		.cfi_offset 4, -20
 346              		.cfi_offset 5, -16
 347              		.cfi_offset 6, -12
 348              		.cfi_offset 7, -8
 349              		.cfi_offset 14, -4
 350 0002 0646     		mov	r6, r0
 221:Middlewares/Third_Party/LibJPEG/source/jcarith.c ****   register arith_entropy_ptr e = (arith_entropy_ptr) cinfo->entropy;
 351              		.loc 1 221 0
 352 0004 D0F8A441 		ldr	r4, [r0, #420]
 353              	.LVL33:
 222:Middlewares/Third_Party/LibJPEG/source/jcarith.c ****   register unsigned char nl, nm;
 223:Middlewares/Third_Party/LibJPEG/source/jcarith.c ****   register INT32 qe, temp;
 224:Middlewares/Third_Party/LibJPEG/source/jcarith.c ****   register int sv;
 225:Middlewares/Third_Party/LibJPEG/source/jcarith.c **** 
 226:Middlewares/Third_Party/LibJPEG/source/jcarith.c ****   /* Fetch values from our compact representation of Table D.3(D.2):
 227:Middlewares/Third_Party/LibJPEG/source/jcarith.c ****    * Qe values and probability estimation state machine
 228:Middlewares/Third_Party/LibJPEG/source/jcarith.c ****    */
 229:Middlewares/Third_Party/LibJPEG/source/jcarith.c ****   sv = *st;
 354              		.loc 1 229 0
 355 0008 0B78     		ldrb	r3, [r1]	@ zero_extendqisi2
 356              	.LVL34:
 230:Middlewares/Third_Party/LibJPEG/source/jcarith.c ****   qe = jpeg_aritab[sv & 0x7F];	/* => Qe_Value */
 357              		.loc 1 230 0
 358 000a 03F07F05 		and	r5, r3, #127
 359 000e 5248     		ldr	r0, .L55
 360              	.LVL35:
 361 0010 50F82550 		ldr	r5, [r0, r5, lsl #2]
 362              	.LVL36:
 231:Middlewares/Third_Party/LibJPEG/source/jcarith.c ****   nl = qe & 0xFF; qe >>= 8;	/* Next_Index_LPS + Switch_MPS */
 232:Middlewares/Third_Party/LibJPEG/source/jcarith.c ****   nm = qe & 0xFF; qe >>= 8;	/* Next_Index_MPS */
 363              		.loc 1 232 0
 364 0014 2F14     		asrs	r7, r5, #16
 365              	.LVL37:
 233:Middlewares/Third_Party/LibJPEG/source/jcarith.c **** 
 234:Middlewares/Third_Party/LibJPEG/source/jcarith.c ****   /* Encode & estimation procedures per sections D.1.4 & D.1.5 */
 235:Middlewares/Third_Party/LibJPEG/source/jcarith.c ****   e->a -= qe;
 366              		.loc 1 235 0
 367 0016 2069     		ldr	r0, [r4, #16]
 368 0018 C01B     		subs	r0, r0, r7
 369 001a 2061     		str	r0, [r4, #16]
 236:Middlewares/Third_Party/LibJPEG/source/jcarith.c ****   if (val != (sv >> 7)) {
 370              		.loc 1 236 0
 371 001c B2EBE31F 		cmp	r2, r3, asr #7
 372 0020 0BD0     		beq	.L30
 237:Middlewares/Third_Party/LibJPEG/source/jcarith.c ****     /* Encode the less probable symbol */
 238:Middlewares/Third_Party/LibJPEG/source/jcarith.c ****     if (e->a >= qe) {
 373              		.loc 1 238 0
 374 0022 B842     		cmp	r0, r7
ARM GAS  /tmp/ccQmBmhQ.s 			page 12


 375 0024 03DB     		blt	.L31
 239:Middlewares/Third_Party/LibJPEG/source/jcarith.c ****       /* If the interval size (qe) for the less probable symbol (LPS)
 240:Middlewares/Third_Party/LibJPEG/source/jcarith.c ****        * is larger than the interval size for the MPS, then exchange
 241:Middlewares/Third_Party/LibJPEG/source/jcarith.c ****        * the two symbols for coding efficiency, otherwise code the LPS
 242:Middlewares/Third_Party/LibJPEG/source/jcarith.c ****        * as usual: */
 243:Middlewares/Third_Party/LibJPEG/source/jcarith.c ****       e->c += e->a;
 376              		.loc 1 243 0
 377 0026 E268     		ldr	r2, [r4, #12]
 378              	.LVL38:
 379 0028 1044     		add	r0, r0, r2
 380 002a E060     		str	r0, [r4, #12]
 244:Middlewares/Third_Party/LibJPEG/source/jcarith.c ****       e->a = qe;
 381              		.loc 1 244 0
 382 002c 2761     		str	r7, [r4, #16]
 383              	.L31:
 245:Middlewares/Third_Party/LibJPEG/source/jcarith.c ****     }
 246:Middlewares/Third_Party/LibJPEG/source/jcarith.c ****     *st = (sv & 0x80) ^ nl;	/* Estimate_after_LPS */
 384              		.loc 1 246 0
 385 002e 23F07F03 		bic	r3, r3, #127
 386              	.LVL39:
 387 0032 5BB2     		sxtb	r3, r3
 388 0034 6B40     		eors	r3, r3, r5
 389 0036 0B70     		strb	r3, [r1]
 390 0038 2DE0     		b	.L50
 391              	.LVL40:
 392              	.L30:
 393 003a 4FEA252C 		asr	ip, r5, #8
 247:Middlewares/Third_Party/LibJPEG/source/jcarith.c ****   } else {
 248:Middlewares/Third_Party/LibJPEG/source/jcarith.c ****     /* Encode the more probable symbol */
 249:Middlewares/Third_Party/LibJPEG/source/jcarith.c ****     if (e->a >= 0x8000L)
 394              		.loc 1 249 0
 395 003e B0F5004F 		cmp	r0, #32768
 396 0042 80F28880 		bge	.L29
 250:Middlewares/Third_Party/LibJPEG/source/jcarith.c ****       return;  /* A >= 0x8000 -> ready, no renormalization required */
 251:Middlewares/Third_Party/LibJPEG/source/jcarith.c ****     if (e->a < qe) {
 397              		.loc 1 251 0
 398 0046 B842     		cmp	r0, r7
 399 0048 03DA     		bge	.L34
 252:Middlewares/Third_Party/LibJPEG/source/jcarith.c ****       /* If the interval size (qe) for the less probable symbol (LPS)
 253:Middlewares/Third_Party/LibJPEG/source/jcarith.c ****        * is larger than the interval size for the MPS, then exchange
 254:Middlewares/Third_Party/LibJPEG/source/jcarith.c ****        * the two symbols for coding efficiency: */
 255:Middlewares/Third_Party/LibJPEG/source/jcarith.c ****       e->c += e->a;
 400              		.loc 1 255 0
 401 004a E268     		ldr	r2, [r4, #12]
 402              	.LVL41:
 403 004c 1044     		add	r0, r0, r2
 404 004e E060     		str	r0, [r4, #12]
 256:Middlewares/Third_Party/LibJPEG/source/jcarith.c ****       e->a = qe;
 405              		.loc 1 256 0
 406 0050 2761     		str	r7, [r4, #16]
 407              	.L34:
 257:Middlewares/Third_Party/LibJPEG/source/jcarith.c ****     }
 258:Middlewares/Third_Party/LibJPEG/source/jcarith.c ****     *st = (sv & 0x80) ^ nm;	/* Estimate_after_MPS */
 408              		.loc 1 258 0
 409 0052 23F07F03 		bic	r3, r3, #127
 410              	.LVL42:
 411 0056 5BB2     		sxtb	r3, r3
ARM GAS  /tmp/ccQmBmhQ.s 			page 13


 412 0058 83EA0C03 		eor	r3, r3, ip
 413 005c 0B70     		strb	r3, [r1]
 414 005e 1AE0     		b	.L50
 415              	.LVL43:
 416              	.L38:
 259:Middlewares/Third_Party/LibJPEG/source/jcarith.c ****   }
 260:Middlewares/Third_Party/LibJPEG/source/jcarith.c **** 
 261:Middlewares/Third_Party/LibJPEG/source/jcarith.c ****   /* Renormalization & data output per section D.1.6 */
 262:Middlewares/Third_Party/LibJPEG/source/jcarith.c ****   do {
 263:Middlewares/Third_Party/LibJPEG/source/jcarith.c ****     e->a <<= 1;
 264:Middlewares/Third_Party/LibJPEG/source/jcarith.c ****     e->c <<= 1;
 265:Middlewares/Third_Party/LibJPEG/source/jcarith.c ****     if (--e->ct == 0) {
 266:Middlewares/Third_Party/LibJPEG/source/jcarith.c ****       /* Another byte is ready for output */
 267:Middlewares/Third_Party/LibJPEG/source/jcarith.c ****       temp = e->c >> 19;
 268:Middlewares/Third_Party/LibJPEG/source/jcarith.c ****       if (temp > 0xFF) {
 269:Middlewares/Third_Party/LibJPEG/source/jcarith.c **** 	/* Handle overflow over all stacked 0xFF bytes */
 270:Middlewares/Third_Party/LibJPEG/source/jcarith.c **** 	if (e->buffer >= 0) {
 271:Middlewares/Third_Party/LibJPEG/source/jcarith.c **** 	  if (e->zc)
 272:Middlewares/Third_Party/LibJPEG/source/jcarith.c **** 	    do emit_byte(0x00, cinfo);
 273:Middlewares/Third_Party/LibJPEG/source/jcarith.c **** 	    while (--e->zc);
 274:Middlewares/Third_Party/LibJPEG/source/jcarith.c **** 	  emit_byte(e->buffer + 1, cinfo);
 417              		.loc 1 274 0
 418 0060 206A     		ldr	r0, [r4, #32]
 419 0062 3146     		mov	r1, r6
 420 0064 0130     		adds	r0, r0, #1
 421 0066 FFF7FEFF 		bl	emit_byte
 422              	.LVL44:
 275:Middlewares/Third_Party/LibJPEG/source/jcarith.c **** 	  if (e->buffer + 1 == 0xFF)
 423              		.loc 1 275 0
 424 006a 236A     		ldr	r3, [r4, #32]
 425 006c FE2B     		cmp	r3, #254
 426 006e 30D0     		beq	.L52
 427              	.L37:
 276:Middlewares/Third_Party/LibJPEG/source/jcarith.c **** 	    emit_byte(0x00, cinfo);
 277:Middlewares/Third_Party/LibJPEG/source/jcarith.c **** 	}
 278:Middlewares/Third_Party/LibJPEG/source/jcarith.c **** 	e->zc += e->sc;  /* carry-over converts stacked 0xFF bytes to 0x00 */
 428              		.loc 1 278 0
 429 0070 6269     		ldr	r2, [r4, #20]
 430 0072 A369     		ldr	r3, [r4, #24]
 431 0074 1344     		add	r3, r3, r2
 432 0076 A361     		str	r3, [r4, #24]
 279:Middlewares/Third_Party/LibJPEG/source/jcarith.c **** 	e->sc = 0;
 433              		.loc 1 279 0
 434 0078 0023     		movs	r3, #0
 435 007a 6361     		str	r3, [r4, #20]
 280:Middlewares/Third_Party/LibJPEG/source/jcarith.c **** 	/* Note: The 3 spacer bits in the C register guarantee
 281:Middlewares/Third_Party/LibJPEG/source/jcarith.c **** 	 * that the new buffer byte can't be 0xFF here
 282:Middlewares/Third_Party/LibJPEG/source/jcarith.c **** 	 * (see page 160 in the P&M JPEG book). */
 283:Middlewares/Third_Party/LibJPEG/source/jcarith.c **** 	e->buffer = temp & 0xFF;  /* new output byte, might overflow later */
 436              		.loc 1 283 0
 437 007c EDB2     		uxtb	r5, r5
 438              	.LVL45:
 439 007e 2562     		str	r5, [r4, #32]
 440              	.L40:
 284:Middlewares/Third_Party/LibJPEG/source/jcarith.c ****       } else if (temp == 0xFF) {
 285:Middlewares/Third_Party/LibJPEG/source/jcarith.c **** 	++e->sc;  /* stack 0xFF byte (which might overflow later) */
 286:Middlewares/Third_Party/LibJPEG/source/jcarith.c ****       } else {
ARM GAS  /tmp/ccQmBmhQ.s 			page 14


 287:Middlewares/Third_Party/LibJPEG/source/jcarith.c **** 	/* Output all stacked 0xFF bytes, they will not overflow any more */
 288:Middlewares/Third_Party/LibJPEG/source/jcarith.c **** 	if (e->buffer == 0)
 289:Middlewares/Third_Party/LibJPEG/source/jcarith.c **** 	  ++e->zc;
 290:Middlewares/Third_Party/LibJPEG/source/jcarith.c **** 	else if (e->buffer >= 0) {
 291:Middlewares/Third_Party/LibJPEG/source/jcarith.c **** 	  if (e->zc)
 292:Middlewares/Third_Party/LibJPEG/source/jcarith.c **** 	    do emit_byte(0x00, cinfo);
 293:Middlewares/Third_Party/LibJPEG/source/jcarith.c **** 	    while (--e->zc);
 294:Middlewares/Third_Party/LibJPEG/source/jcarith.c **** 	  emit_byte(e->buffer, cinfo);
 295:Middlewares/Third_Party/LibJPEG/source/jcarith.c **** 	}
 296:Middlewares/Third_Party/LibJPEG/source/jcarith.c **** 	if (e->sc) {
 297:Middlewares/Third_Party/LibJPEG/source/jcarith.c **** 	  if (e->zc)
 298:Middlewares/Third_Party/LibJPEG/source/jcarith.c **** 	    do emit_byte(0x00, cinfo);
 299:Middlewares/Third_Party/LibJPEG/source/jcarith.c **** 	    while (--e->zc);
 300:Middlewares/Third_Party/LibJPEG/source/jcarith.c **** 	  do {
 301:Middlewares/Third_Party/LibJPEG/source/jcarith.c **** 	    emit_byte(0xFF, cinfo);
 302:Middlewares/Third_Party/LibJPEG/source/jcarith.c **** 	    emit_byte(0x00, cinfo);
 303:Middlewares/Third_Party/LibJPEG/source/jcarith.c **** 	  } while (--e->sc);
 304:Middlewares/Third_Party/LibJPEG/source/jcarith.c **** 	}
 305:Middlewares/Third_Party/LibJPEG/source/jcarith.c **** 	e->buffer = temp & 0xFF;  /* new output byte (can still overflow) */
 306:Middlewares/Third_Party/LibJPEG/source/jcarith.c ****       }
 307:Middlewares/Third_Party/LibJPEG/source/jcarith.c ****       e->c &= 0x7FFFFL;
 441              		.loc 1 307 0
 442 0080 E368     		ldr	r3, [r4, #12]
 443 0082 C3F31203 		ubfx	r3, r3, #0, #19
 444 0086 E360     		str	r3, [r4, #12]
 308:Middlewares/Third_Party/LibJPEG/source/jcarith.c ****       e->ct += 8;
 445              		.loc 1 308 0
 446 0088 E369     		ldr	r3, [r4, #28]
 447 008a 0833     		adds	r3, r3, #8
 448 008c E361     		str	r3, [r4, #28]
 449              	.L35:
 309:Middlewares/Third_Party/LibJPEG/source/jcarith.c ****     }
 310:Middlewares/Third_Party/LibJPEG/source/jcarith.c ****   } while (e->a < 0x8000L);
 450              		.loc 1 310 0
 451 008e 2369     		ldr	r3, [r4, #16]
 452 0090 B3F5004F 		cmp	r3, #32768
 453 0094 5FDA     		bge	.L29
 454              	.L50:
 263:Middlewares/Third_Party/LibJPEG/source/jcarith.c ****     e->c <<= 1;
 455              		.loc 1 263 0
 456 0096 2369     		ldr	r3, [r4, #16]
 457 0098 5B00     		lsls	r3, r3, #1
 458 009a 2361     		str	r3, [r4, #16]
 264:Middlewares/Third_Party/LibJPEG/source/jcarith.c ****     if (--e->ct == 0) {
 459              		.loc 1 264 0
 460 009c E268     		ldr	r2, [r4, #12]
 461 009e 5200     		lsls	r2, r2, #1
 462 00a0 E260     		str	r2, [r4, #12]
 265:Middlewares/Third_Party/LibJPEG/source/jcarith.c ****       /* Another byte is ready for output */
 463              		.loc 1 265 0
 464 00a2 E369     		ldr	r3, [r4, #28]
 465 00a4 013B     		subs	r3, r3, #1
 466 00a6 E361     		str	r3, [r4, #28]
 467 00a8 002B     		cmp	r3, #0
 468 00aa F0D1     		bne	.L35
 267:Middlewares/Third_Party/LibJPEG/source/jcarith.c ****       if (temp > 0xFF) {
 469              		.loc 1 267 0
ARM GAS  /tmp/ccQmBmhQ.s 			page 15


 470 00ac D514     		asrs	r5, r2, #19
 471              	.LVL46:
 268:Middlewares/Third_Party/LibJPEG/source/jcarith.c **** 	/* Handle overflow over all stacked 0xFF bytes */
 472              		.loc 1 268 0
 473 00ae FF2D     		cmp	r5, #255
 474 00b0 14DD     		ble	.L36
 270:Middlewares/Third_Party/LibJPEG/source/jcarith.c **** 	  if (e->zc)
 475              		.loc 1 270 0
 476 00b2 236A     		ldr	r3, [r4, #32]
 477 00b4 002B     		cmp	r3, #0
 478 00b6 DBDB     		blt	.L37
 271:Middlewares/Third_Party/LibJPEG/source/jcarith.c **** 	    do emit_byte(0x00, cinfo);
 479              		.loc 1 271 0
 480 00b8 A369     		ldr	r3, [r4, #24]
 481 00ba 002B     		cmp	r3, #0
 482 00bc D0D0     		beq	.L38
 483              	.L39:
 272:Middlewares/Third_Party/LibJPEG/source/jcarith.c **** 	    while (--e->zc);
 484              		.loc 1 272 0 discriminator 1
 485 00be 3146     		mov	r1, r6
 486 00c0 0020     		movs	r0, #0
 487 00c2 FFF7FEFF 		bl	emit_byte
 488              	.LVL47:
 273:Middlewares/Third_Party/LibJPEG/source/jcarith.c **** 	  emit_byte(e->buffer + 1, cinfo);
 489              		.loc 1 273 0 discriminator 1
 490 00c6 A369     		ldr	r3, [r4, #24]
 491 00c8 013B     		subs	r3, r3, #1
 492 00ca A361     		str	r3, [r4, #24]
 493 00cc 002B     		cmp	r3, #0
 494 00ce F6D1     		bne	.L39
 495 00d0 C6E7     		b	.L38
 496              	.L52:
 276:Middlewares/Third_Party/LibJPEG/source/jcarith.c **** 	}
 497              		.loc 1 276 0
 498 00d2 3146     		mov	r1, r6
 499 00d4 0020     		movs	r0, #0
 500 00d6 FFF7FEFF 		bl	emit_byte
 501              	.LVL48:
 502 00da C9E7     		b	.L37
 503              	.L36:
 284:Middlewares/Third_Party/LibJPEG/source/jcarith.c **** 	++e->sc;  /* stack 0xFF byte (which might overflow later) */
 504              		.loc 1 284 0
 505 00dc FF2D     		cmp	r5, #255
 506 00de 09D0     		beq	.L53
 288:Middlewares/Third_Party/LibJPEG/source/jcarith.c **** 	  ++e->zc;
 507              		.loc 1 288 0
 508 00e0 236A     		ldr	r3, [r4, #32]
 509 00e2 5BB9     		cbnz	r3, .L42
 289:Middlewares/Third_Party/LibJPEG/source/jcarith.c **** 	else if (e->buffer >= 0) {
 510              		.loc 1 289 0
 511 00e4 A369     		ldr	r3, [r4, #24]
 512 00e6 0133     		adds	r3, r3, #1
 513 00e8 A361     		str	r3, [r4, #24]
 514              	.L43:
 296:Middlewares/Third_Party/LibJPEG/source/jcarith.c **** 	  if (e->zc)
 515              		.loc 1 296 0
 516 00ea 6369     		ldr	r3, [r4, #20]
ARM GAS  /tmp/ccQmBmhQ.s 			page 16


 517 00ec CBB9     		cbnz	r3, .L54
 518              	.L46:
 305:Middlewares/Third_Party/LibJPEG/source/jcarith.c ****       }
 519              		.loc 1 305 0
 520 00ee EDB2     		uxtb	r5, r5
 521              	.LVL49:
 522 00f0 2562     		str	r5, [r4, #32]
 523 00f2 C5E7     		b	.L40
 524              	.LVL50:
 525              	.L53:
 285:Middlewares/Third_Party/LibJPEG/source/jcarith.c ****       } else {
 526              		.loc 1 285 0
 527 00f4 6369     		ldr	r3, [r4, #20]
 528 00f6 0133     		adds	r3, r3, #1
 529 00f8 6361     		str	r3, [r4, #20]
 530 00fa C1E7     		b	.L40
 531              	.L42:
 290:Middlewares/Third_Party/LibJPEG/source/jcarith.c **** 	  if (e->zc)
 532              		.loc 1 290 0
 533 00fc 002B     		cmp	r3, #0
 534 00fe F4DB     		blt	.L43
 291:Middlewares/Third_Party/LibJPEG/source/jcarith.c **** 	    do emit_byte(0x00, cinfo);
 535              		.loc 1 291 0
 536 0100 A369     		ldr	r3, [r4, #24]
 537 0102 23B9     		cbnz	r3, .L45
 538              	.L44:
 294:Middlewares/Third_Party/LibJPEG/source/jcarith.c **** 	}
 539              		.loc 1 294 0
 540 0104 3146     		mov	r1, r6
 541 0106 206A     		ldr	r0, [r4, #32]
 542 0108 FFF7FEFF 		bl	emit_byte
 543              	.LVL51:
 544 010c EDE7     		b	.L43
 545              	.L45:
 292:Middlewares/Third_Party/LibJPEG/source/jcarith.c **** 	    while (--e->zc);
 546              		.loc 1 292 0 discriminator 1
 547 010e 3146     		mov	r1, r6
 548 0110 0020     		movs	r0, #0
 549 0112 FFF7FEFF 		bl	emit_byte
 550              	.LVL52:
 293:Middlewares/Third_Party/LibJPEG/source/jcarith.c **** 	  emit_byte(e->buffer, cinfo);
 551              		.loc 1 293 0 discriminator 1
 552 0116 A369     		ldr	r3, [r4, #24]
 553 0118 013B     		subs	r3, r3, #1
 554 011a A361     		str	r3, [r4, #24]
 555 011c 002B     		cmp	r3, #0
 556 011e F6D1     		bne	.L45
 557 0120 F0E7     		b	.L44
 558              	.L54:
 297:Middlewares/Third_Party/LibJPEG/source/jcarith.c **** 	    do emit_byte(0x00, cinfo);
 559              		.loc 1 297 0
 560 0122 A369     		ldr	r3, [r4, #24]
 561 0124 6BB9     		cbnz	r3, .L48
 562              	.L49:
 301:Middlewares/Third_Party/LibJPEG/source/jcarith.c **** 	    emit_byte(0x00, cinfo);
 563              		.loc 1 301 0 discriminator 1
 564 0126 3146     		mov	r1, r6
ARM GAS  /tmp/ccQmBmhQ.s 			page 17


 565 0128 FF20     		movs	r0, #255
 566 012a FFF7FEFF 		bl	emit_byte
 567              	.LVL53:
 302:Middlewares/Third_Party/LibJPEG/source/jcarith.c **** 	  } while (--e->sc);
 568              		.loc 1 302 0 discriminator 1
 569 012e 3146     		mov	r1, r6
 570 0130 0020     		movs	r0, #0
 571 0132 FFF7FEFF 		bl	emit_byte
 572              	.LVL54:
 303:Middlewares/Third_Party/LibJPEG/source/jcarith.c **** 	}
 573              		.loc 1 303 0 discriminator 1
 574 0136 6369     		ldr	r3, [r4, #20]
 575 0138 013B     		subs	r3, r3, #1
 576 013a 6361     		str	r3, [r4, #20]
 577 013c 002B     		cmp	r3, #0
 578 013e F2D1     		bne	.L49
 579 0140 D5E7     		b	.L46
 580              	.L48:
 298:Middlewares/Third_Party/LibJPEG/source/jcarith.c **** 	    while (--e->zc);
 581              		.loc 1 298 0 discriminator 1
 582 0142 3146     		mov	r1, r6
 583 0144 0020     		movs	r0, #0
 584 0146 FFF7FEFF 		bl	emit_byte
 585              	.LVL55:
 299:Middlewares/Third_Party/LibJPEG/source/jcarith.c **** 	  do {
 586              		.loc 1 299 0 discriminator 1
 587 014a A369     		ldr	r3, [r4, #24]
 588 014c 013B     		subs	r3, r3, #1
 589 014e A361     		str	r3, [r4, #24]
 590 0150 002B     		cmp	r3, #0
 591 0152 F6D1     		bne	.L48
 592 0154 E7E7     		b	.L49
 593              	.LVL56:
 594              	.L29:
 311:Middlewares/Third_Party/LibJPEG/source/jcarith.c **** }
 595              		.loc 1 311 0
 596 0156 F8BD     		pop	{r3, r4, r5, r6, r7, pc}
 597              	.LVL57:
 598              	.L56:
 599              		.align	2
 600              	.L55:
 601 0158 00000000 		.word	jpeg_aritab
 602              		.cfi_endproc
 603              	.LFE5:
 605              		.section	.text.start_pass,"ax",%progbits
 606              		.align	1
 607              		.syntax unified
 608              		.thumb
 609              		.thumb_func
 610              		.fpu fpv5-sp-d16
 612              	start_pass:
 613              	.LFB12:
 312:Middlewares/Third_Party/LibJPEG/source/jcarith.c **** 
 313:Middlewares/Third_Party/LibJPEG/source/jcarith.c **** 
 314:Middlewares/Third_Party/LibJPEG/source/jcarith.c **** /*
 315:Middlewares/Third_Party/LibJPEG/source/jcarith.c ****  * Emit a restart marker & resynchronize predictions.
 316:Middlewares/Third_Party/LibJPEG/source/jcarith.c ****  */
ARM GAS  /tmp/ccQmBmhQ.s 			page 18


 317:Middlewares/Third_Party/LibJPEG/source/jcarith.c **** 
 318:Middlewares/Third_Party/LibJPEG/source/jcarith.c **** LOCAL(void)
 319:Middlewares/Third_Party/LibJPEG/source/jcarith.c **** emit_restart (j_compress_ptr cinfo, int restart_num)
 320:Middlewares/Third_Party/LibJPEG/source/jcarith.c **** {
 321:Middlewares/Third_Party/LibJPEG/source/jcarith.c ****   arith_entropy_ptr entropy = (arith_entropy_ptr) cinfo->entropy;
 322:Middlewares/Third_Party/LibJPEG/source/jcarith.c ****   int ci;
 323:Middlewares/Third_Party/LibJPEG/source/jcarith.c ****   jpeg_component_info * compptr;
 324:Middlewares/Third_Party/LibJPEG/source/jcarith.c **** 
 325:Middlewares/Third_Party/LibJPEG/source/jcarith.c ****   finish_pass(cinfo);
 326:Middlewares/Third_Party/LibJPEG/source/jcarith.c **** 
 327:Middlewares/Third_Party/LibJPEG/source/jcarith.c ****   emit_byte(0xFF, cinfo);
 328:Middlewares/Third_Party/LibJPEG/source/jcarith.c ****   emit_byte(JPEG_RST0 + restart_num, cinfo);
 329:Middlewares/Third_Party/LibJPEG/source/jcarith.c **** 
 330:Middlewares/Third_Party/LibJPEG/source/jcarith.c ****   /* Re-initialize statistics areas */
 331:Middlewares/Third_Party/LibJPEG/source/jcarith.c ****   for (ci = 0; ci < cinfo->comps_in_scan; ci++) {
 332:Middlewares/Third_Party/LibJPEG/source/jcarith.c ****     compptr = cinfo->cur_comp_info[ci];
 333:Middlewares/Third_Party/LibJPEG/source/jcarith.c ****     /* DC needs no table for refinement scan */
 334:Middlewares/Third_Party/LibJPEG/source/jcarith.c ****     if (cinfo->Ss == 0 && cinfo->Ah == 0) {
 335:Middlewares/Third_Party/LibJPEG/source/jcarith.c ****       MEMZERO(entropy->dc_stats[compptr->dc_tbl_no], DC_STAT_BINS);
 336:Middlewares/Third_Party/LibJPEG/source/jcarith.c ****       /* Reset DC predictions to 0 */
 337:Middlewares/Third_Party/LibJPEG/source/jcarith.c ****       entropy->last_dc_val[ci] = 0;
 338:Middlewares/Third_Party/LibJPEG/source/jcarith.c ****       entropy->dc_context[ci] = 0;
 339:Middlewares/Third_Party/LibJPEG/source/jcarith.c ****     }
 340:Middlewares/Third_Party/LibJPEG/source/jcarith.c ****     /* AC needs no table when not present */
 341:Middlewares/Third_Party/LibJPEG/source/jcarith.c ****     if (cinfo->Se) {
 342:Middlewares/Third_Party/LibJPEG/source/jcarith.c ****       MEMZERO(entropy->ac_stats[compptr->ac_tbl_no], AC_STAT_BINS);
 343:Middlewares/Third_Party/LibJPEG/source/jcarith.c ****     }
 344:Middlewares/Third_Party/LibJPEG/source/jcarith.c ****   }
 345:Middlewares/Third_Party/LibJPEG/source/jcarith.c **** 
 346:Middlewares/Third_Party/LibJPEG/source/jcarith.c ****   /* Reset arithmetic encoding variables */
 347:Middlewares/Third_Party/LibJPEG/source/jcarith.c ****   entropy->c = 0;
 348:Middlewares/Third_Party/LibJPEG/source/jcarith.c ****   entropy->a = 0x10000L;
 349:Middlewares/Third_Party/LibJPEG/source/jcarith.c ****   entropy->sc = 0;
 350:Middlewares/Third_Party/LibJPEG/source/jcarith.c ****   entropy->zc = 0;
 351:Middlewares/Third_Party/LibJPEG/source/jcarith.c ****   entropy->ct = 11;
 352:Middlewares/Third_Party/LibJPEG/source/jcarith.c ****   entropy->buffer = -1;  /* empty */
 353:Middlewares/Third_Party/LibJPEG/source/jcarith.c **** }
 354:Middlewares/Third_Party/LibJPEG/source/jcarith.c **** 
 355:Middlewares/Third_Party/LibJPEG/source/jcarith.c **** 
 356:Middlewares/Third_Party/LibJPEG/source/jcarith.c **** /*
 357:Middlewares/Third_Party/LibJPEG/source/jcarith.c ****  * MCU encoding for DC initial scan (either spectral selection,
 358:Middlewares/Third_Party/LibJPEG/source/jcarith.c ****  * or first pass of successive approximation).
 359:Middlewares/Third_Party/LibJPEG/source/jcarith.c ****  */
 360:Middlewares/Third_Party/LibJPEG/source/jcarith.c **** 
 361:Middlewares/Third_Party/LibJPEG/source/jcarith.c **** METHODDEF(boolean)
 362:Middlewares/Third_Party/LibJPEG/source/jcarith.c **** encode_mcu_DC_first (j_compress_ptr cinfo, JBLOCKROW *MCU_data)
 363:Middlewares/Third_Party/LibJPEG/source/jcarith.c **** {
 364:Middlewares/Third_Party/LibJPEG/source/jcarith.c ****   arith_entropy_ptr entropy = (arith_entropy_ptr) cinfo->entropy;
 365:Middlewares/Third_Party/LibJPEG/source/jcarith.c ****   JBLOCKROW block;
 366:Middlewares/Third_Party/LibJPEG/source/jcarith.c ****   unsigned char *st;
 367:Middlewares/Third_Party/LibJPEG/source/jcarith.c ****   int blkn, ci, tbl;
 368:Middlewares/Third_Party/LibJPEG/source/jcarith.c ****   int v, v2, m;
 369:Middlewares/Third_Party/LibJPEG/source/jcarith.c ****   ISHIFT_TEMPS
 370:Middlewares/Third_Party/LibJPEG/source/jcarith.c **** 
 371:Middlewares/Third_Party/LibJPEG/source/jcarith.c ****   /* Emit restart marker if needed */
 372:Middlewares/Third_Party/LibJPEG/source/jcarith.c ****   if (cinfo->restart_interval) {
 373:Middlewares/Third_Party/LibJPEG/source/jcarith.c ****     if (entropy->restarts_to_go == 0) {
ARM GAS  /tmp/ccQmBmhQ.s 			page 19


 374:Middlewares/Third_Party/LibJPEG/source/jcarith.c ****       emit_restart(cinfo, entropy->next_restart_num);
 375:Middlewares/Third_Party/LibJPEG/source/jcarith.c ****       entropy->restarts_to_go = cinfo->restart_interval;
 376:Middlewares/Third_Party/LibJPEG/source/jcarith.c ****       entropy->next_restart_num++;
 377:Middlewares/Third_Party/LibJPEG/source/jcarith.c ****       entropy->next_restart_num &= 7;
 378:Middlewares/Third_Party/LibJPEG/source/jcarith.c ****     }
 379:Middlewares/Third_Party/LibJPEG/source/jcarith.c ****     entropy->restarts_to_go--;
 380:Middlewares/Third_Party/LibJPEG/source/jcarith.c ****   }
 381:Middlewares/Third_Party/LibJPEG/source/jcarith.c **** 
 382:Middlewares/Third_Party/LibJPEG/source/jcarith.c ****   /* Encode the MCU data blocks */
 383:Middlewares/Third_Party/LibJPEG/source/jcarith.c ****   for (blkn = 0; blkn < cinfo->blocks_in_MCU; blkn++) {
 384:Middlewares/Third_Party/LibJPEG/source/jcarith.c ****     block = MCU_data[blkn];
 385:Middlewares/Third_Party/LibJPEG/source/jcarith.c ****     ci = cinfo->MCU_membership[blkn];
 386:Middlewares/Third_Party/LibJPEG/source/jcarith.c ****     tbl = cinfo->cur_comp_info[ci]->dc_tbl_no;
 387:Middlewares/Third_Party/LibJPEG/source/jcarith.c **** 
 388:Middlewares/Third_Party/LibJPEG/source/jcarith.c ****     /* Compute the DC value after the required point transform by Al.
 389:Middlewares/Third_Party/LibJPEG/source/jcarith.c ****      * This is simply an arithmetic right shift.
 390:Middlewares/Third_Party/LibJPEG/source/jcarith.c ****      */
 391:Middlewares/Third_Party/LibJPEG/source/jcarith.c ****     m = IRIGHT_SHIFT((int) ((*block)[0]), cinfo->Al);
 392:Middlewares/Third_Party/LibJPEG/source/jcarith.c **** 
 393:Middlewares/Third_Party/LibJPEG/source/jcarith.c ****     /* Sections F.1.4.1 & F.1.4.4.1: Encoding of DC coefficients */
 394:Middlewares/Third_Party/LibJPEG/source/jcarith.c **** 
 395:Middlewares/Third_Party/LibJPEG/source/jcarith.c ****     /* Table F.4: Point to statistics bin S0 for DC coefficient coding */
 396:Middlewares/Third_Party/LibJPEG/source/jcarith.c ****     st = entropy->dc_stats[tbl] + entropy->dc_context[ci];
 397:Middlewares/Third_Party/LibJPEG/source/jcarith.c **** 
 398:Middlewares/Third_Party/LibJPEG/source/jcarith.c ****     /* Figure F.4: Encode_DC_DIFF */
 399:Middlewares/Third_Party/LibJPEG/source/jcarith.c ****     if ((v = m - entropy->last_dc_val[ci]) == 0) {
 400:Middlewares/Third_Party/LibJPEG/source/jcarith.c ****       arith_encode(cinfo, st, 0);
 401:Middlewares/Third_Party/LibJPEG/source/jcarith.c ****       entropy->dc_context[ci] = 0;	/* zero diff category */
 402:Middlewares/Third_Party/LibJPEG/source/jcarith.c ****     } else {
 403:Middlewares/Third_Party/LibJPEG/source/jcarith.c ****       entropy->last_dc_val[ci] = m;
 404:Middlewares/Third_Party/LibJPEG/source/jcarith.c ****       arith_encode(cinfo, st, 1);
 405:Middlewares/Third_Party/LibJPEG/source/jcarith.c ****       /* Figure F.6: Encoding nonzero value v */
 406:Middlewares/Third_Party/LibJPEG/source/jcarith.c ****       /* Figure F.7: Encoding the sign of v */
 407:Middlewares/Third_Party/LibJPEG/source/jcarith.c ****       if (v > 0) {
 408:Middlewares/Third_Party/LibJPEG/source/jcarith.c **** 	arith_encode(cinfo, st + 1, 0);	/* Table F.4: SS = S0 + 1 */
 409:Middlewares/Third_Party/LibJPEG/source/jcarith.c **** 	st += 2;			/* Table F.4: SP = S0 + 2 */
 410:Middlewares/Third_Party/LibJPEG/source/jcarith.c **** 	entropy->dc_context[ci] = 4;	/* small positive diff category */
 411:Middlewares/Third_Party/LibJPEG/source/jcarith.c ****       } else {
 412:Middlewares/Third_Party/LibJPEG/source/jcarith.c **** 	v = -v;
 413:Middlewares/Third_Party/LibJPEG/source/jcarith.c **** 	arith_encode(cinfo, st + 1, 1);	/* Table F.4: SS = S0 + 1 */
 414:Middlewares/Third_Party/LibJPEG/source/jcarith.c **** 	st += 3;			/* Table F.4: SN = S0 + 3 */
 415:Middlewares/Third_Party/LibJPEG/source/jcarith.c **** 	entropy->dc_context[ci] = 8;	/* small negative diff category */
 416:Middlewares/Third_Party/LibJPEG/source/jcarith.c ****       }
 417:Middlewares/Third_Party/LibJPEG/source/jcarith.c ****       /* Figure F.8: Encoding the magnitude category of v */
 418:Middlewares/Third_Party/LibJPEG/source/jcarith.c ****       m = 0;
 419:Middlewares/Third_Party/LibJPEG/source/jcarith.c ****       if (v -= 1) {
 420:Middlewares/Third_Party/LibJPEG/source/jcarith.c **** 	arith_encode(cinfo, st, 1);
 421:Middlewares/Third_Party/LibJPEG/source/jcarith.c **** 	m = 1;
 422:Middlewares/Third_Party/LibJPEG/source/jcarith.c **** 	v2 = v;
 423:Middlewares/Third_Party/LibJPEG/source/jcarith.c **** 	st = entropy->dc_stats[tbl] + 20; /* Table F.4: X1 = 20 */
 424:Middlewares/Third_Party/LibJPEG/source/jcarith.c **** 	while (v2 >>= 1) {
 425:Middlewares/Third_Party/LibJPEG/source/jcarith.c **** 	  arith_encode(cinfo, st, 1);
 426:Middlewares/Third_Party/LibJPEG/source/jcarith.c **** 	  m <<= 1;
 427:Middlewares/Third_Party/LibJPEG/source/jcarith.c **** 	  st += 1;
 428:Middlewares/Third_Party/LibJPEG/source/jcarith.c **** 	}
 429:Middlewares/Third_Party/LibJPEG/source/jcarith.c ****       }
 430:Middlewares/Third_Party/LibJPEG/source/jcarith.c ****       arith_encode(cinfo, st, 0);
ARM GAS  /tmp/ccQmBmhQ.s 			page 20


 431:Middlewares/Third_Party/LibJPEG/source/jcarith.c ****       /* Section F.1.4.4.1.2: Establish dc_context conditioning category */
 432:Middlewares/Third_Party/LibJPEG/source/jcarith.c ****       if (m < (int) ((1L << cinfo->arith_dc_L[tbl]) >> 1))
 433:Middlewares/Third_Party/LibJPEG/source/jcarith.c **** 	entropy->dc_context[ci] = 0;	/* zero diff category */
 434:Middlewares/Third_Party/LibJPEG/source/jcarith.c ****       else if (m > (int) ((1L << cinfo->arith_dc_U[tbl]) >> 1))
 435:Middlewares/Third_Party/LibJPEG/source/jcarith.c **** 	entropy->dc_context[ci] += 8;	/* large diff category */
 436:Middlewares/Third_Party/LibJPEG/source/jcarith.c ****       /* Figure F.9: Encoding the magnitude bit pattern of v */
 437:Middlewares/Third_Party/LibJPEG/source/jcarith.c ****       st += 14;
 438:Middlewares/Third_Party/LibJPEG/source/jcarith.c ****       while (m >>= 1)
 439:Middlewares/Third_Party/LibJPEG/source/jcarith.c **** 	arith_encode(cinfo, st, (m & v) ? 1 : 0);
 440:Middlewares/Third_Party/LibJPEG/source/jcarith.c ****     }
 441:Middlewares/Third_Party/LibJPEG/source/jcarith.c ****   }
 442:Middlewares/Third_Party/LibJPEG/source/jcarith.c **** 
 443:Middlewares/Third_Party/LibJPEG/source/jcarith.c ****   return TRUE;
 444:Middlewares/Third_Party/LibJPEG/source/jcarith.c **** }
 445:Middlewares/Third_Party/LibJPEG/source/jcarith.c **** 
 446:Middlewares/Third_Party/LibJPEG/source/jcarith.c **** 
 447:Middlewares/Third_Party/LibJPEG/source/jcarith.c **** /*
 448:Middlewares/Third_Party/LibJPEG/source/jcarith.c ****  * MCU encoding for AC initial scan (either spectral selection,
 449:Middlewares/Third_Party/LibJPEG/source/jcarith.c ****  * or first pass of successive approximation).
 450:Middlewares/Third_Party/LibJPEG/source/jcarith.c ****  */
 451:Middlewares/Third_Party/LibJPEG/source/jcarith.c **** 
 452:Middlewares/Third_Party/LibJPEG/source/jcarith.c **** METHODDEF(boolean)
 453:Middlewares/Third_Party/LibJPEG/source/jcarith.c **** encode_mcu_AC_first (j_compress_ptr cinfo, JBLOCKROW *MCU_data)
 454:Middlewares/Third_Party/LibJPEG/source/jcarith.c **** {
 455:Middlewares/Third_Party/LibJPEG/source/jcarith.c ****   arith_entropy_ptr entropy = (arith_entropy_ptr) cinfo->entropy;
 456:Middlewares/Third_Party/LibJPEG/source/jcarith.c ****   JBLOCKROW block;
 457:Middlewares/Third_Party/LibJPEG/source/jcarith.c ****   unsigned char *st;
 458:Middlewares/Third_Party/LibJPEG/source/jcarith.c ****   int tbl, k, ke;
 459:Middlewares/Third_Party/LibJPEG/source/jcarith.c ****   int v, v2, m;
 460:Middlewares/Third_Party/LibJPEG/source/jcarith.c ****   const int * natural_order;
 461:Middlewares/Third_Party/LibJPEG/source/jcarith.c **** 
 462:Middlewares/Third_Party/LibJPEG/source/jcarith.c ****   /* Emit restart marker if needed */
 463:Middlewares/Third_Party/LibJPEG/source/jcarith.c ****   if (cinfo->restart_interval) {
 464:Middlewares/Third_Party/LibJPEG/source/jcarith.c ****     if (entropy->restarts_to_go == 0) {
 465:Middlewares/Third_Party/LibJPEG/source/jcarith.c ****       emit_restart(cinfo, entropy->next_restart_num);
 466:Middlewares/Third_Party/LibJPEG/source/jcarith.c ****       entropy->restarts_to_go = cinfo->restart_interval;
 467:Middlewares/Third_Party/LibJPEG/source/jcarith.c ****       entropy->next_restart_num++;
 468:Middlewares/Third_Party/LibJPEG/source/jcarith.c ****       entropy->next_restart_num &= 7;
 469:Middlewares/Third_Party/LibJPEG/source/jcarith.c ****     }
 470:Middlewares/Third_Party/LibJPEG/source/jcarith.c ****     entropy->restarts_to_go--;
 471:Middlewares/Third_Party/LibJPEG/source/jcarith.c ****   }
 472:Middlewares/Third_Party/LibJPEG/source/jcarith.c **** 
 473:Middlewares/Third_Party/LibJPEG/source/jcarith.c ****   natural_order = cinfo->natural_order;
 474:Middlewares/Third_Party/LibJPEG/source/jcarith.c **** 
 475:Middlewares/Third_Party/LibJPEG/source/jcarith.c ****   /* Encode the MCU data block */
 476:Middlewares/Third_Party/LibJPEG/source/jcarith.c ****   block = MCU_data[0];
 477:Middlewares/Third_Party/LibJPEG/source/jcarith.c ****   tbl = cinfo->cur_comp_info[0]->ac_tbl_no;
 478:Middlewares/Third_Party/LibJPEG/source/jcarith.c **** 
 479:Middlewares/Third_Party/LibJPEG/source/jcarith.c ****   /* Sections F.1.4.2 & F.1.4.4.2: Encoding of AC coefficients */
 480:Middlewares/Third_Party/LibJPEG/source/jcarith.c **** 
 481:Middlewares/Third_Party/LibJPEG/source/jcarith.c ****   /* Establish EOB (end-of-block) index */
 482:Middlewares/Third_Party/LibJPEG/source/jcarith.c ****   for (ke = cinfo->Se; ke > 0; ke--)
 483:Middlewares/Third_Party/LibJPEG/source/jcarith.c ****     /* We must apply the point transform by Al.  For AC coefficients this
 484:Middlewares/Third_Party/LibJPEG/source/jcarith.c ****      * is an integer division with rounding towards 0.  To do this portably
 485:Middlewares/Third_Party/LibJPEG/source/jcarith.c ****      * in C, we shift after obtaining the absolute value.
 486:Middlewares/Third_Party/LibJPEG/source/jcarith.c ****      */
 487:Middlewares/Third_Party/LibJPEG/source/jcarith.c ****     if ((v = (*block)[natural_order[ke]]) >= 0) {
ARM GAS  /tmp/ccQmBmhQ.s 			page 21


 488:Middlewares/Third_Party/LibJPEG/source/jcarith.c ****       if (v >>= cinfo->Al) break;
 489:Middlewares/Third_Party/LibJPEG/source/jcarith.c ****     } else {
 490:Middlewares/Third_Party/LibJPEG/source/jcarith.c ****       v = -v;
 491:Middlewares/Third_Party/LibJPEG/source/jcarith.c ****       if (v >>= cinfo->Al) break;
 492:Middlewares/Third_Party/LibJPEG/source/jcarith.c ****     }
 493:Middlewares/Third_Party/LibJPEG/source/jcarith.c **** 
 494:Middlewares/Third_Party/LibJPEG/source/jcarith.c ****   /* Figure F.5: Encode_AC_Coefficients */
 495:Middlewares/Third_Party/LibJPEG/source/jcarith.c ****   for (k = cinfo->Ss; k <= ke; k++) {
 496:Middlewares/Third_Party/LibJPEG/source/jcarith.c ****     st = entropy->ac_stats[tbl] + 3 * (k - 1);
 497:Middlewares/Third_Party/LibJPEG/source/jcarith.c ****     arith_encode(cinfo, st, 0);		/* EOB decision */
 498:Middlewares/Third_Party/LibJPEG/source/jcarith.c ****     for (;;) {
 499:Middlewares/Third_Party/LibJPEG/source/jcarith.c ****       if ((v = (*block)[natural_order[k]]) >= 0) {
 500:Middlewares/Third_Party/LibJPEG/source/jcarith.c **** 	if (v >>= cinfo->Al) {
 501:Middlewares/Third_Party/LibJPEG/source/jcarith.c **** 	  arith_encode(cinfo, st + 1, 1);
 502:Middlewares/Third_Party/LibJPEG/source/jcarith.c **** 	  arith_encode(cinfo, entropy->fixed_bin, 0);
 503:Middlewares/Third_Party/LibJPEG/source/jcarith.c **** 	  break;
 504:Middlewares/Third_Party/LibJPEG/source/jcarith.c **** 	}
 505:Middlewares/Third_Party/LibJPEG/source/jcarith.c ****       } else {
 506:Middlewares/Third_Party/LibJPEG/source/jcarith.c **** 	v = -v;
 507:Middlewares/Third_Party/LibJPEG/source/jcarith.c **** 	if (v >>= cinfo->Al) {
 508:Middlewares/Third_Party/LibJPEG/source/jcarith.c **** 	  arith_encode(cinfo, st + 1, 1);
 509:Middlewares/Third_Party/LibJPEG/source/jcarith.c **** 	  arith_encode(cinfo, entropy->fixed_bin, 1);
 510:Middlewares/Third_Party/LibJPEG/source/jcarith.c **** 	  break;
 511:Middlewares/Third_Party/LibJPEG/source/jcarith.c **** 	}
 512:Middlewares/Third_Party/LibJPEG/source/jcarith.c ****       }
 513:Middlewares/Third_Party/LibJPEG/source/jcarith.c ****       arith_encode(cinfo, st + 1, 0); st += 3; k++;
 514:Middlewares/Third_Party/LibJPEG/source/jcarith.c ****     }
 515:Middlewares/Third_Party/LibJPEG/source/jcarith.c ****     st += 2;
 516:Middlewares/Third_Party/LibJPEG/source/jcarith.c ****     /* Figure F.8: Encoding the magnitude category of v */
 517:Middlewares/Third_Party/LibJPEG/source/jcarith.c ****     m = 0;
 518:Middlewares/Third_Party/LibJPEG/source/jcarith.c ****     if (v -= 1) {
 519:Middlewares/Third_Party/LibJPEG/source/jcarith.c ****       arith_encode(cinfo, st, 1);
 520:Middlewares/Third_Party/LibJPEG/source/jcarith.c ****       m = 1;
 521:Middlewares/Third_Party/LibJPEG/source/jcarith.c ****       v2 = v;
 522:Middlewares/Third_Party/LibJPEG/source/jcarith.c ****       if (v2 >>= 1) {
 523:Middlewares/Third_Party/LibJPEG/source/jcarith.c **** 	arith_encode(cinfo, st, 1);
 524:Middlewares/Third_Party/LibJPEG/source/jcarith.c **** 	m <<= 1;
 525:Middlewares/Third_Party/LibJPEG/source/jcarith.c **** 	st = entropy->ac_stats[tbl] +
 526:Middlewares/Third_Party/LibJPEG/source/jcarith.c **** 	     (k <= cinfo->arith_ac_K[tbl] ? 189 : 217);
 527:Middlewares/Third_Party/LibJPEG/source/jcarith.c **** 	while (v2 >>= 1) {
 528:Middlewares/Third_Party/LibJPEG/source/jcarith.c **** 	  arith_encode(cinfo, st, 1);
 529:Middlewares/Third_Party/LibJPEG/source/jcarith.c **** 	  m <<= 1;
 530:Middlewares/Third_Party/LibJPEG/source/jcarith.c **** 	  st += 1;
 531:Middlewares/Third_Party/LibJPEG/source/jcarith.c **** 	}
 532:Middlewares/Third_Party/LibJPEG/source/jcarith.c ****       }
 533:Middlewares/Third_Party/LibJPEG/source/jcarith.c ****     }
 534:Middlewares/Third_Party/LibJPEG/source/jcarith.c ****     arith_encode(cinfo, st, 0);
 535:Middlewares/Third_Party/LibJPEG/source/jcarith.c ****     /* Figure F.9: Encoding the magnitude bit pattern of v */
 536:Middlewares/Third_Party/LibJPEG/source/jcarith.c ****     st += 14;
 537:Middlewares/Third_Party/LibJPEG/source/jcarith.c ****     while (m >>= 1)
 538:Middlewares/Third_Party/LibJPEG/source/jcarith.c ****       arith_encode(cinfo, st, (m & v) ? 1 : 0);
 539:Middlewares/Third_Party/LibJPEG/source/jcarith.c ****   }
 540:Middlewares/Third_Party/LibJPEG/source/jcarith.c ****   /* Encode EOB decision only if k <= cinfo->Se */
 541:Middlewares/Third_Party/LibJPEG/source/jcarith.c ****   if (k <= cinfo->Se) {
 542:Middlewares/Third_Party/LibJPEG/source/jcarith.c ****     st = entropy->ac_stats[tbl] + 3 * (k - 1);
 543:Middlewares/Third_Party/LibJPEG/source/jcarith.c ****     arith_encode(cinfo, st, 1);
 544:Middlewares/Third_Party/LibJPEG/source/jcarith.c ****   }
ARM GAS  /tmp/ccQmBmhQ.s 			page 22


 545:Middlewares/Third_Party/LibJPEG/source/jcarith.c **** 
 546:Middlewares/Third_Party/LibJPEG/source/jcarith.c ****   return TRUE;
 547:Middlewares/Third_Party/LibJPEG/source/jcarith.c **** }
 548:Middlewares/Third_Party/LibJPEG/source/jcarith.c **** 
 549:Middlewares/Third_Party/LibJPEG/source/jcarith.c **** 
 550:Middlewares/Third_Party/LibJPEG/source/jcarith.c **** /*
 551:Middlewares/Third_Party/LibJPEG/source/jcarith.c ****  * MCU encoding for DC successive approximation refinement scan.
 552:Middlewares/Third_Party/LibJPEG/source/jcarith.c ****  */
 553:Middlewares/Third_Party/LibJPEG/source/jcarith.c **** 
 554:Middlewares/Third_Party/LibJPEG/source/jcarith.c **** METHODDEF(boolean)
 555:Middlewares/Third_Party/LibJPEG/source/jcarith.c **** encode_mcu_DC_refine (j_compress_ptr cinfo, JBLOCKROW *MCU_data)
 556:Middlewares/Third_Party/LibJPEG/source/jcarith.c **** {
 557:Middlewares/Third_Party/LibJPEG/source/jcarith.c ****   arith_entropy_ptr entropy = (arith_entropy_ptr) cinfo->entropy;
 558:Middlewares/Third_Party/LibJPEG/source/jcarith.c ****   unsigned char *st;
 559:Middlewares/Third_Party/LibJPEG/source/jcarith.c ****   int Al, blkn;
 560:Middlewares/Third_Party/LibJPEG/source/jcarith.c **** 
 561:Middlewares/Third_Party/LibJPEG/source/jcarith.c ****   /* Emit restart marker if needed */
 562:Middlewares/Third_Party/LibJPEG/source/jcarith.c ****   if (cinfo->restart_interval) {
 563:Middlewares/Third_Party/LibJPEG/source/jcarith.c ****     if (entropy->restarts_to_go == 0) {
 564:Middlewares/Third_Party/LibJPEG/source/jcarith.c ****       emit_restart(cinfo, entropy->next_restart_num);
 565:Middlewares/Third_Party/LibJPEG/source/jcarith.c ****       entropy->restarts_to_go = cinfo->restart_interval;
 566:Middlewares/Third_Party/LibJPEG/source/jcarith.c ****       entropy->next_restart_num++;
 567:Middlewares/Third_Party/LibJPEG/source/jcarith.c ****       entropy->next_restart_num &= 7;
 568:Middlewares/Third_Party/LibJPEG/source/jcarith.c ****     }
 569:Middlewares/Third_Party/LibJPEG/source/jcarith.c ****     entropy->restarts_to_go--;
 570:Middlewares/Third_Party/LibJPEG/source/jcarith.c ****   }
 571:Middlewares/Third_Party/LibJPEG/source/jcarith.c **** 
 572:Middlewares/Third_Party/LibJPEG/source/jcarith.c ****   st = entropy->fixed_bin;	/* use fixed probability estimation */
 573:Middlewares/Third_Party/LibJPEG/source/jcarith.c ****   Al = cinfo->Al;
 574:Middlewares/Third_Party/LibJPEG/source/jcarith.c **** 
 575:Middlewares/Third_Party/LibJPEG/source/jcarith.c ****   /* Encode the MCU data blocks */
 576:Middlewares/Third_Party/LibJPEG/source/jcarith.c ****   for (blkn = 0; blkn < cinfo->blocks_in_MCU; blkn++) {
 577:Middlewares/Third_Party/LibJPEG/source/jcarith.c ****     /* We simply emit the Al'th bit of the DC coefficient value. */
 578:Middlewares/Third_Party/LibJPEG/source/jcarith.c ****     arith_encode(cinfo, st, (MCU_data[blkn][0][0] >> Al) & 1);
 579:Middlewares/Third_Party/LibJPEG/source/jcarith.c ****   }
 580:Middlewares/Third_Party/LibJPEG/source/jcarith.c **** 
 581:Middlewares/Third_Party/LibJPEG/source/jcarith.c ****   return TRUE;
 582:Middlewares/Third_Party/LibJPEG/source/jcarith.c **** }
 583:Middlewares/Third_Party/LibJPEG/source/jcarith.c **** 
 584:Middlewares/Third_Party/LibJPEG/source/jcarith.c **** 
 585:Middlewares/Third_Party/LibJPEG/source/jcarith.c **** /*
 586:Middlewares/Third_Party/LibJPEG/source/jcarith.c ****  * MCU encoding for AC successive approximation refinement scan.
 587:Middlewares/Third_Party/LibJPEG/source/jcarith.c ****  */
 588:Middlewares/Third_Party/LibJPEG/source/jcarith.c **** 
 589:Middlewares/Third_Party/LibJPEG/source/jcarith.c **** METHODDEF(boolean)
 590:Middlewares/Third_Party/LibJPEG/source/jcarith.c **** encode_mcu_AC_refine (j_compress_ptr cinfo, JBLOCKROW *MCU_data)
 591:Middlewares/Third_Party/LibJPEG/source/jcarith.c **** {
 592:Middlewares/Third_Party/LibJPEG/source/jcarith.c ****   arith_entropy_ptr entropy = (arith_entropy_ptr) cinfo->entropy;
 593:Middlewares/Third_Party/LibJPEG/source/jcarith.c ****   JBLOCKROW block;
 594:Middlewares/Third_Party/LibJPEG/source/jcarith.c ****   unsigned char *st;
 595:Middlewares/Third_Party/LibJPEG/source/jcarith.c ****   int tbl, k, ke, kex;
 596:Middlewares/Third_Party/LibJPEG/source/jcarith.c ****   int v;
 597:Middlewares/Third_Party/LibJPEG/source/jcarith.c ****   const int * natural_order;
 598:Middlewares/Third_Party/LibJPEG/source/jcarith.c **** 
 599:Middlewares/Third_Party/LibJPEG/source/jcarith.c ****   /* Emit restart marker if needed */
 600:Middlewares/Third_Party/LibJPEG/source/jcarith.c ****   if (cinfo->restart_interval) {
 601:Middlewares/Third_Party/LibJPEG/source/jcarith.c ****     if (entropy->restarts_to_go == 0) {
ARM GAS  /tmp/ccQmBmhQ.s 			page 23


 602:Middlewares/Third_Party/LibJPEG/source/jcarith.c ****       emit_restart(cinfo, entropy->next_restart_num);
 603:Middlewares/Third_Party/LibJPEG/source/jcarith.c ****       entropy->restarts_to_go = cinfo->restart_interval;
 604:Middlewares/Third_Party/LibJPEG/source/jcarith.c ****       entropy->next_restart_num++;
 605:Middlewares/Third_Party/LibJPEG/source/jcarith.c ****       entropy->next_restart_num &= 7;
 606:Middlewares/Third_Party/LibJPEG/source/jcarith.c ****     }
 607:Middlewares/Third_Party/LibJPEG/source/jcarith.c ****     entropy->restarts_to_go--;
 608:Middlewares/Third_Party/LibJPEG/source/jcarith.c ****   }
 609:Middlewares/Third_Party/LibJPEG/source/jcarith.c **** 
 610:Middlewares/Third_Party/LibJPEG/source/jcarith.c ****   natural_order = cinfo->natural_order;
 611:Middlewares/Third_Party/LibJPEG/source/jcarith.c **** 
 612:Middlewares/Third_Party/LibJPEG/source/jcarith.c ****   /* Encode the MCU data block */
 613:Middlewares/Third_Party/LibJPEG/source/jcarith.c ****   block = MCU_data[0];
 614:Middlewares/Third_Party/LibJPEG/source/jcarith.c ****   tbl = cinfo->cur_comp_info[0]->ac_tbl_no;
 615:Middlewares/Third_Party/LibJPEG/source/jcarith.c **** 
 616:Middlewares/Third_Party/LibJPEG/source/jcarith.c ****   /* Section G.1.3.3: Encoding of AC coefficients */
 617:Middlewares/Third_Party/LibJPEG/source/jcarith.c **** 
 618:Middlewares/Third_Party/LibJPEG/source/jcarith.c ****   /* Establish EOB (end-of-block) index */
 619:Middlewares/Third_Party/LibJPEG/source/jcarith.c ****   for (ke = cinfo->Se; ke > 0; ke--)
 620:Middlewares/Third_Party/LibJPEG/source/jcarith.c ****     /* We must apply the point transform by Al.  For AC coefficients this
 621:Middlewares/Third_Party/LibJPEG/source/jcarith.c ****      * is an integer division with rounding towards 0.  To do this portably
 622:Middlewares/Third_Party/LibJPEG/source/jcarith.c ****      * in C, we shift after obtaining the absolute value.
 623:Middlewares/Third_Party/LibJPEG/source/jcarith.c ****      */
 624:Middlewares/Third_Party/LibJPEG/source/jcarith.c ****     if ((v = (*block)[natural_order[ke]]) >= 0) {
 625:Middlewares/Third_Party/LibJPEG/source/jcarith.c ****       if (v >>= cinfo->Al) break;
 626:Middlewares/Third_Party/LibJPEG/source/jcarith.c ****     } else {
 627:Middlewares/Third_Party/LibJPEG/source/jcarith.c ****       v = -v;
 628:Middlewares/Third_Party/LibJPEG/source/jcarith.c ****       if (v >>= cinfo->Al) break;
 629:Middlewares/Third_Party/LibJPEG/source/jcarith.c ****     }
 630:Middlewares/Third_Party/LibJPEG/source/jcarith.c **** 
 631:Middlewares/Third_Party/LibJPEG/source/jcarith.c ****   /* Establish EOBx (previous stage end-of-block) index */
 632:Middlewares/Third_Party/LibJPEG/source/jcarith.c ****   for (kex = ke; kex > 0; kex--)
 633:Middlewares/Third_Party/LibJPEG/source/jcarith.c ****     if ((v = (*block)[natural_order[kex]]) >= 0) {
 634:Middlewares/Third_Party/LibJPEG/source/jcarith.c ****       if (v >>= cinfo->Ah) break;
 635:Middlewares/Third_Party/LibJPEG/source/jcarith.c ****     } else {
 636:Middlewares/Third_Party/LibJPEG/source/jcarith.c ****       v = -v;
 637:Middlewares/Third_Party/LibJPEG/source/jcarith.c ****       if (v >>= cinfo->Ah) break;
 638:Middlewares/Third_Party/LibJPEG/source/jcarith.c ****     }
 639:Middlewares/Third_Party/LibJPEG/source/jcarith.c **** 
 640:Middlewares/Third_Party/LibJPEG/source/jcarith.c ****   /* Figure G.10: Encode_AC_Coefficients_SA */
 641:Middlewares/Third_Party/LibJPEG/source/jcarith.c ****   for (k = cinfo->Ss; k <= ke; k++) {
 642:Middlewares/Third_Party/LibJPEG/source/jcarith.c ****     st = entropy->ac_stats[tbl] + 3 * (k - 1);
 643:Middlewares/Third_Party/LibJPEG/source/jcarith.c ****     if (k > kex)
 644:Middlewares/Third_Party/LibJPEG/source/jcarith.c ****       arith_encode(cinfo, st, 0);	/* EOB decision */
 645:Middlewares/Third_Party/LibJPEG/source/jcarith.c ****     for (;;) {
 646:Middlewares/Third_Party/LibJPEG/source/jcarith.c ****       if ((v = (*block)[natural_order[k]]) >= 0) {
 647:Middlewares/Third_Party/LibJPEG/source/jcarith.c **** 	if (v >>= cinfo->Al) {
 648:Middlewares/Third_Party/LibJPEG/source/jcarith.c **** 	  if (v >> 1)			/* previously nonzero coef */
 649:Middlewares/Third_Party/LibJPEG/source/jcarith.c **** 	    arith_encode(cinfo, st + 2, (v & 1));
 650:Middlewares/Third_Party/LibJPEG/source/jcarith.c **** 	  else {			/* newly nonzero coef */
 651:Middlewares/Third_Party/LibJPEG/source/jcarith.c **** 	    arith_encode(cinfo, st + 1, 1);
 652:Middlewares/Third_Party/LibJPEG/source/jcarith.c **** 	    arith_encode(cinfo, entropy->fixed_bin, 0);
 653:Middlewares/Third_Party/LibJPEG/source/jcarith.c **** 	  }
 654:Middlewares/Third_Party/LibJPEG/source/jcarith.c **** 	  break;
 655:Middlewares/Third_Party/LibJPEG/source/jcarith.c **** 	}
 656:Middlewares/Third_Party/LibJPEG/source/jcarith.c ****       } else {
 657:Middlewares/Third_Party/LibJPEG/source/jcarith.c **** 	v = -v;
 658:Middlewares/Third_Party/LibJPEG/source/jcarith.c **** 	if (v >>= cinfo->Al) {
ARM GAS  /tmp/ccQmBmhQ.s 			page 24


 659:Middlewares/Third_Party/LibJPEG/source/jcarith.c **** 	  if (v >> 1)			/* previously nonzero coef */
 660:Middlewares/Third_Party/LibJPEG/source/jcarith.c **** 	    arith_encode(cinfo, st + 2, (v & 1));
 661:Middlewares/Third_Party/LibJPEG/source/jcarith.c **** 	  else {			/* newly nonzero coef */
 662:Middlewares/Third_Party/LibJPEG/source/jcarith.c **** 	    arith_encode(cinfo, st + 1, 1);
 663:Middlewares/Third_Party/LibJPEG/source/jcarith.c **** 	    arith_encode(cinfo, entropy->fixed_bin, 1);
 664:Middlewares/Third_Party/LibJPEG/source/jcarith.c **** 	  }
 665:Middlewares/Third_Party/LibJPEG/source/jcarith.c **** 	  break;
 666:Middlewares/Third_Party/LibJPEG/source/jcarith.c **** 	}
 667:Middlewares/Third_Party/LibJPEG/source/jcarith.c ****       }
 668:Middlewares/Third_Party/LibJPEG/source/jcarith.c ****       arith_encode(cinfo, st + 1, 0); st += 3; k++;
 669:Middlewares/Third_Party/LibJPEG/source/jcarith.c ****     }
 670:Middlewares/Third_Party/LibJPEG/source/jcarith.c ****   }
 671:Middlewares/Third_Party/LibJPEG/source/jcarith.c ****   /* Encode EOB decision only if k <= cinfo->Se */
 672:Middlewares/Third_Party/LibJPEG/source/jcarith.c ****   if (k <= cinfo->Se) {
 673:Middlewares/Third_Party/LibJPEG/source/jcarith.c ****     st = entropy->ac_stats[tbl] + 3 * (k - 1);
 674:Middlewares/Third_Party/LibJPEG/source/jcarith.c ****     arith_encode(cinfo, st, 1);
 675:Middlewares/Third_Party/LibJPEG/source/jcarith.c ****   }
 676:Middlewares/Third_Party/LibJPEG/source/jcarith.c **** 
 677:Middlewares/Third_Party/LibJPEG/source/jcarith.c ****   return TRUE;
 678:Middlewares/Third_Party/LibJPEG/source/jcarith.c **** }
 679:Middlewares/Third_Party/LibJPEG/source/jcarith.c **** 
 680:Middlewares/Third_Party/LibJPEG/source/jcarith.c **** 
 681:Middlewares/Third_Party/LibJPEG/source/jcarith.c **** /*
 682:Middlewares/Third_Party/LibJPEG/source/jcarith.c ****  * Encode and output one MCU's worth of arithmetic-compressed coefficients.
 683:Middlewares/Third_Party/LibJPEG/source/jcarith.c ****  */
 684:Middlewares/Third_Party/LibJPEG/source/jcarith.c **** 
 685:Middlewares/Third_Party/LibJPEG/source/jcarith.c **** METHODDEF(boolean)
 686:Middlewares/Third_Party/LibJPEG/source/jcarith.c **** encode_mcu (j_compress_ptr cinfo, JBLOCKROW *MCU_data)
 687:Middlewares/Third_Party/LibJPEG/source/jcarith.c **** {
 688:Middlewares/Third_Party/LibJPEG/source/jcarith.c ****   arith_entropy_ptr entropy = (arith_entropy_ptr) cinfo->entropy;
 689:Middlewares/Third_Party/LibJPEG/source/jcarith.c ****   jpeg_component_info * compptr;
 690:Middlewares/Third_Party/LibJPEG/source/jcarith.c ****   JBLOCKROW block;
 691:Middlewares/Third_Party/LibJPEG/source/jcarith.c ****   unsigned char *st;
 692:Middlewares/Third_Party/LibJPEG/source/jcarith.c ****   int blkn, ci, tbl, k, ke;
 693:Middlewares/Third_Party/LibJPEG/source/jcarith.c ****   int v, v2, m;
 694:Middlewares/Third_Party/LibJPEG/source/jcarith.c ****   const int * natural_order;
 695:Middlewares/Third_Party/LibJPEG/source/jcarith.c **** 
 696:Middlewares/Third_Party/LibJPEG/source/jcarith.c ****   /* Emit restart marker if needed */
 697:Middlewares/Third_Party/LibJPEG/source/jcarith.c ****   if (cinfo->restart_interval) {
 698:Middlewares/Third_Party/LibJPEG/source/jcarith.c ****     if (entropy->restarts_to_go == 0) {
 699:Middlewares/Third_Party/LibJPEG/source/jcarith.c ****       emit_restart(cinfo, entropy->next_restart_num);
 700:Middlewares/Third_Party/LibJPEG/source/jcarith.c ****       entropy->restarts_to_go = cinfo->restart_interval;
 701:Middlewares/Third_Party/LibJPEG/source/jcarith.c ****       entropy->next_restart_num++;
 702:Middlewares/Third_Party/LibJPEG/source/jcarith.c ****       entropy->next_restart_num &= 7;
 703:Middlewares/Third_Party/LibJPEG/source/jcarith.c ****     }
 704:Middlewares/Third_Party/LibJPEG/source/jcarith.c ****     entropy->restarts_to_go--;
 705:Middlewares/Third_Party/LibJPEG/source/jcarith.c ****   }
 706:Middlewares/Third_Party/LibJPEG/source/jcarith.c **** 
 707:Middlewares/Third_Party/LibJPEG/source/jcarith.c ****   natural_order = cinfo->natural_order;
 708:Middlewares/Third_Party/LibJPEG/source/jcarith.c **** 
 709:Middlewares/Third_Party/LibJPEG/source/jcarith.c ****   /* Encode the MCU data blocks */
 710:Middlewares/Third_Party/LibJPEG/source/jcarith.c ****   for (blkn = 0; blkn < cinfo->blocks_in_MCU; blkn++) {
 711:Middlewares/Third_Party/LibJPEG/source/jcarith.c ****     block = MCU_data[blkn];
 712:Middlewares/Third_Party/LibJPEG/source/jcarith.c ****     ci = cinfo->MCU_membership[blkn];
 713:Middlewares/Third_Party/LibJPEG/source/jcarith.c ****     compptr = cinfo->cur_comp_info[ci];
 714:Middlewares/Third_Party/LibJPEG/source/jcarith.c **** 
 715:Middlewares/Third_Party/LibJPEG/source/jcarith.c ****     /* Sections F.1.4.1 & F.1.4.4.1: Encoding of DC coefficients */
ARM GAS  /tmp/ccQmBmhQ.s 			page 25


 716:Middlewares/Third_Party/LibJPEG/source/jcarith.c **** 
 717:Middlewares/Third_Party/LibJPEG/source/jcarith.c ****     tbl = compptr->dc_tbl_no;
 718:Middlewares/Third_Party/LibJPEG/source/jcarith.c **** 
 719:Middlewares/Third_Party/LibJPEG/source/jcarith.c ****     /* Table F.4: Point to statistics bin S0 for DC coefficient coding */
 720:Middlewares/Third_Party/LibJPEG/source/jcarith.c ****     st = entropy->dc_stats[tbl] + entropy->dc_context[ci];
 721:Middlewares/Third_Party/LibJPEG/source/jcarith.c **** 
 722:Middlewares/Third_Party/LibJPEG/source/jcarith.c ****     /* Figure F.4: Encode_DC_DIFF */
 723:Middlewares/Third_Party/LibJPEG/source/jcarith.c ****     if ((v = (*block)[0] - entropy->last_dc_val[ci]) == 0) {
 724:Middlewares/Third_Party/LibJPEG/source/jcarith.c ****       arith_encode(cinfo, st, 0);
 725:Middlewares/Third_Party/LibJPEG/source/jcarith.c ****       entropy->dc_context[ci] = 0;	/* zero diff category */
 726:Middlewares/Third_Party/LibJPEG/source/jcarith.c ****     } else {
 727:Middlewares/Third_Party/LibJPEG/source/jcarith.c ****       entropy->last_dc_val[ci] = (*block)[0];
 728:Middlewares/Third_Party/LibJPEG/source/jcarith.c ****       arith_encode(cinfo, st, 1);
 729:Middlewares/Third_Party/LibJPEG/source/jcarith.c ****       /* Figure F.6: Encoding nonzero value v */
 730:Middlewares/Third_Party/LibJPEG/source/jcarith.c ****       /* Figure F.7: Encoding the sign of v */
 731:Middlewares/Third_Party/LibJPEG/source/jcarith.c ****       if (v > 0) {
 732:Middlewares/Third_Party/LibJPEG/source/jcarith.c **** 	arith_encode(cinfo, st + 1, 0);	/* Table F.4: SS = S0 + 1 */
 733:Middlewares/Third_Party/LibJPEG/source/jcarith.c **** 	st += 2;			/* Table F.4: SP = S0 + 2 */
 734:Middlewares/Third_Party/LibJPEG/source/jcarith.c **** 	entropy->dc_context[ci] = 4;	/* small positive diff category */
 735:Middlewares/Third_Party/LibJPEG/source/jcarith.c ****       } else {
 736:Middlewares/Third_Party/LibJPEG/source/jcarith.c **** 	v = -v;
 737:Middlewares/Third_Party/LibJPEG/source/jcarith.c **** 	arith_encode(cinfo, st + 1, 1);	/* Table F.4: SS = S0 + 1 */
 738:Middlewares/Third_Party/LibJPEG/source/jcarith.c **** 	st += 3;			/* Table F.4: SN = S0 + 3 */
 739:Middlewares/Third_Party/LibJPEG/source/jcarith.c **** 	entropy->dc_context[ci] = 8;	/* small negative diff category */
 740:Middlewares/Third_Party/LibJPEG/source/jcarith.c ****       }
 741:Middlewares/Third_Party/LibJPEG/source/jcarith.c ****       /* Figure F.8: Encoding the magnitude category of v */
 742:Middlewares/Third_Party/LibJPEG/source/jcarith.c ****       m = 0;
 743:Middlewares/Third_Party/LibJPEG/source/jcarith.c ****       if (v -= 1) {
 744:Middlewares/Third_Party/LibJPEG/source/jcarith.c **** 	arith_encode(cinfo, st, 1);
 745:Middlewares/Third_Party/LibJPEG/source/jcarith.c **** 	m = 1;
 746:Middlewares/Third_Party/LibJPEG/source/jcarith.c **** 	v2 = v;
 747:Middlewares/Third_Party/LibJPEG/source/jcarith.c **** 	st = entropy->dc_stats[tbl] + 20; /* Table F.4: X1 = 20 */
 748:Middlewares/Third_Party/LibJPEG/source/jcarith.c **** 	while (v2 >>= 1) {
 749:Middlewares/Third_Party/LibJPEG/source/jcarith.c **** 	  arith_encode(cinfo, st, 1);
 750:Middlewares/Third_Party/LibJPEG/source/jcarith.c **** 	  m <<= 1;
 751:Middlewares/Third_Party/LibJPEG/source/jcarith.c **** 	  st += 1;
 752:Middlewares/Third_Party/LibJPEG/source/jcarith.c **** 	}
 753:Middlewares/Third_Party/LibJPEG/source/jcarith.c ****       }
 754:Middlewares/Third_Party/LibJPEG/source/jcarith.c ****       arith_encode(cinfo, st, 0);
 755:Middlewares/Third_Party/LibJPEG/source/jcarith.c ****       /* Section F.1.4.4.1.2: Establish dc_context conditioning category */
 756:Middlewares/Third_Party/LibJPEG/source/jcarith.c ****       if (m < (int) ((1L << cinfo->arith_dc_L[tbl]) >> 1))
 757:Middlewares/Third_Party/LibJPEG/source/jcarith.c **** 	entropy->dc_context[ci] = 0;	/* zero diff category */
 758:Middlewares/Third_Party/LibJPEG/source/jcarith.c ****       else if (m > (int) ((1L << cinfo->arith_dc_U[tbl]) >> 1))
 759:Middlewares/Third_Party/LibJPEG/source/jcarith.c **** 	entropy->dc_context[ci] += 8;	/* large diff category */
 760:Middlewares/Third_Party/LibJPEG/source/jcarith.c ****       /* Figure F.9: Encoding the magnitude bit pattern of v */
 761:Middlewares/Third_Party/LibJPEG/source/jcarith.c ****       st += 14;
 762:Middlewares/Third_Party/LibJPEG/source/jcarith.c ****       while (m >>= 1)
 763:Middlewares/Third_Party/LibJPEG/source/jcarith.c **** 	arith_encode(cinfo, st, (m & v) ? 1 : 0);
 764:Middlewares/Third_Party/LibJPEG/source/jcarith.c ****     }
 765:Middlewares/Third_Party/LibJPEG/source/jcarith.c **** 
 766:Middlewares/Third_Party/LibJPEG/source/jcarith.c ****     /* Sections F.1.4.2 & F.1.4.4.2: Encoding of AC coefficients */
 767:Middlewares/Third_Party/LibJPEG/source/jcarith.c **** 
 768:Middlewares/Third_Party/LibJPEG/source/jcarith.c ****     if ((ke = cinfo->lim_Se) == 0) continue;
 769:Middlewares/Third_Party/LibJPEG/source/jcarith.c ****     tbl = compptr->ac_tbl_no;
 770:Middlewares/Third_Party/LibJPEG/source/jcarith.c **** 
 771:Middlewares/Third_Party/LibJPEG/source/jcarith.c ****     /* Establish EOB (end-of-block) index */
 772:Middlewares/Third_Party/LibJPEG/source/jcarith.c ****     do {
ARM GAS  /tmp/ccQmBmhQ.s 			page 26


 773:Middlewares/Third_Party/LibJPEG/source/jcarith.c ****       if ((*block)[natural_order[ke]]) break;
 774:Middlewares/Third_Party/LibJPEG/source/jcarith.c ****     } while (--ke);
 775:Middlewares/Third_Party/LibJPEG/source/jcarith.c **** 
 776:Middlewares/Third_Party/LibJPEG/source/jcarith.c ****     /* Figure F.5: Encode_AC_Coefficients */
 777:Middlewares/Third_Party/LibJPEG/source/jcarith.c ****     for (k = 0; k < ke;) {
 778:Middlewares/Third_Party/LibJPEG/source/jcarith.c ****       st = entropy->ac_stats[tbl] + 3 * k;
 779:Middlewares/Third_Party/LibJPEG/source/jcarith.c ****       arith_encode(cinfo, st, 0);	/* EOB decision */
 780:Middlewares/Third_Party/LibJPEG/source/jcarith.c ****       while ((v = (*block)[natural_order[++k]]) == 0) {
 781:Middlewares/Third_Party/LibJPEG/source/jcarith.c **** 	arith_encode(cinfo, st + 1, 0);
 782:Middlewares/Third_Party/LibJPEG/source/jcarith.c **** 	st += 3;
 783:Middlewares/Third_Party/LibJPEG/source/jcarith.c ****       }
 784:Middlewares/Third_Party/LibJPEG/source/jcarith.c ****       arith_encode(cinfo, st + 1, 1);
 785:Middlewares/Third_Party/LibJPEG/source/jcarith.c ****       /* Figure F.6: Encoding nonzero value v */
 786:Middlewares/Third_Party/LibJPEG/source/jcarith.c ****       /* Figure F.7: Encoding the sign of v */
 787:Middlewares/Third_Party/LibJPEG/source/jcarith.c ****       if (v > 0) {
 788:Middlewares/Third_Party/LibJPEG/source/jcarith.c **** 	arith_encode(cinfo, entropy->fixed_bin, 0);
 789:Middlewares/Third_Party/LibJPEG/source/jcarith.c ****       } else {
 790:Middlewares/Third_Party/LibJPEG/source/jcarith.c **** 	v = -v;
 791:Middlewares/Third_Party/LibJPEG/source/jcarith.c **** 	arith_encode(cinfo, entropy->fixed_bin, 1);
 792:Middlewares/Third_Party/LibJPEG/source/jcarith.c ****       }
 793:Middlewares/Third_Party/LibJPEG/source/jcarith.c ****       st += 2;
 794:Middlewares/Third_Party/LibJPEG/source/jcarith.c ****       /* Figure F.8: Encoding the magnitude category of v */
 795:Middlewares/Third_Party/LibJPEG/source/jcarith.c ****       m = 0;
 796:Middlewares/Third_Party/LibJPEG/source/jcarith.c ****       if (v -= 1) {
 797:Middlewares/Third_Party/LibJPEG/source/jcarith.c **** 	arith_encode(cinfo, st, 1);
 798:Middlewares/Third_Party/LibJPEG/source/jcarith.c **** 	m = 1;
 799:Middlewares/Third_Party/LibJPEG/source/jcarith.c **** 	v2 = v;
 800:Middlewares/Third_Party/LibJPEG/source/jcarith.c **** 	if (v2 >>= 1) {
 801:Middlewares/Third_Party/LibJPEG/source/jcarith.c **** 	  arith_encode(cinfo, st, 1);
 802:Middlewares/Third_Party/LibJPEG/source/jcarith.c **** 	  m <<= 1;
 803:Middlewares/Third_Party/LibJPEG/source/jcarith.c **** 	  st = entropy->ac_stats[tbl] +
 804:Middlewares/Third_Party/LibJPEG/source/jcarith.c **** 	       (k <= cinfo->arith_ac_K[tbl] ? 189 : 217);
 805:Middlewares/Third_Party/LibJPEG/source/jcarith.c **** 	  while (v2 >>= 1) {
 806:Middlewares/Third_Party/LibJPEG/source/jcarith.c **** 	    arith_encode(cinfo, st, 1);
 807:Middlewares/Third_Party/LibJPEG/source/jcarith.c **** 	    m <<= 1;
 808:Middlewares/Third_Party/LibJPEG/source/jcarith.c **** 	    st += 1;
 809:Middlewares/Third_Party/LibJPEG/source/jcarith.c **** 	  }
 810:Middlewares/Third_Party/LibJPEG/source/jcarith.c **** 	}
 811:Middlewares/Third_Party/LibJPEG/source/jcarith.c ****       }
 812:Middlewares/Third_Party/LibJPEG/source/jcarith.c ****       arith_encode(cinfo, st, 0);
 813:Middlewares/Third_Party/LibJPEG/source/jcarith.c ****       /* Figure F.9: Encoding the magnitude bit pattern of v */
 814:Middlewares/Third_Party/LibJPEG/source/jcarith.c ****       st += 14;
 815:Middlewares/Third_Party/LibJPEG/source/jcarith.c ****       while (m >>= 1)
 816:Middlewares/Third_Party/LibJPEG/source/jcarith.c **** 	arith_encode(cinfo, st, (m & v) ? 1 : 0);
 817:Middlewares/Third_Party/LibJPEG/source/jcarith.c ****     }
 818:Middlewares/Third_Party/LibJPEG/source/jcarith.c ****     /* Encode EOB decision only if k < cinfo->lim_Se */
 819:Middlewares/Third_Party/LibJPEG/source/jcarith.c ****     if (k < cinfo->lim_Se) {
 820:Middlewares/Third_Party/LibJPEG/source/jcarith.c ****       st = entropy->ac_stats[tbl] + 3 * k;
 821:Middlewares/Third_Party/LibJPEG/source/jcarith.c ****       arith_encode(cinfo, st, 1);
 822:Middlewares/Third_Party/LibJPEG/source/jcarith.c ****     }
 823:Middlewares/Third_Party/LibJPEG/source/jcarith.c ****   }
 824:Middlewares/Third_Party/LibJPEG/source/jcarith.c **** 
 825:Middlewares/Third_Party/LibJPEG/source/jcarith.c ****   return TRUE;
 826:Middlewares/Third_Party/LibJPEG/source/jcarith.c **** }
 827:Middlewares/Third_Party/LibJPEG/source/jcarith.c **** 
 828:Middlewares/Third_Party/LibJPEG/source/jcarith.c **** 
 829:Middlewares/Third_Party/LibJPEG/source/jcarith.c **** /*
ARM GAS  /tmp/ccQmBmhQ.s 			page 27


 830:Middlewares/Third_Party/LibJPEG/source/jcarith.c ****  * Initialize for an arithmetic-compressed scan.
 831:Middlewares/Third_Party/LibJPEG/source/jcarith.c ****  */
 832:Middlewares/Third_Party/LibJPEG/source/jcarith.c **** 
 833:Middlewares/Third_Party/LibJPEG/source/jcarith.c **** METHODDEF(void)
 834:Middlewares/Third_Party/LibJPEG/source/jcarith.c **** start_pass (j_compress_ptr cinfo, boolean gather_statistics)
 835:Middlewares/Third_Party/LibJPEG/source/jcarith.c **** {
 614              		.loc 1 835 0
 615              		.cfi_startproc
 616              		@ args = 0, pretend = 0, frame = 0
 617              		@ frame_needed = 0, uses_anonymous_args = 0
 618              	.LVL58:
 619 0000 2DE9F041 		push	{r4, r5, r6, r7, r8, lr}
 620              	.LCFI3:
 621              		.cfi_def_cfa_offset 24
 622              		.cfi_offset 4, -24
 623              		.cfi_offset 5, -20
 624              		.cfi_offset 6, -16
 625              		.cfi_offset 7, -12
 626              		.cfi_offset 8, -8
 627              		.cfi_offset 14, -4
 628 0004 0446     		mov	r4, r0
 836:Middlewares/Third_Party/LibJPEG/source/jcarith.c ****   arith_entropy_ptr entropy = (arith_entropy_ptr) cinfo->entropy;
 629              		.loc 1 836 0
 630 0006 D0F8A451 		ldr	r5, [r0, #420]
 631              	.LVL59:
 837:Middlewares/Third_Party/LibJPEG/source/jcarith.c ****   int ci, tbl;
 838:Middlewares/Third_Party/LibJPEG/source/jcarith.c ****   jpeg_component_info * compptr;
 839:Middlewares/Third_Party/LibJPEG/source/jcarith.c **** 
 840:Middlewares/Third_Party/LibJPEG/source/jcarith.c ****   if (gather_statistics)
 632              		.loc 1 840 0
 633 000a 29B1     		cbz	r1, .L58
 841:Middlewares/Third_Party/LibJPEG/source/jcarith.c ****     /* Make sure to avoid that in the master control logic!
 842:Middlewares/Third_Party/LibJPEG/source/jcarith.c ****      * We are fully adaptive here and need no extra
 843:Middlewares/Third_Party/LibJPEG/source/jcarith.c ****      * statistics gathering pass!
 844:Middlewares/Third_Party/LibJPEG/source/jcarith.c ****      */
 845:Middlewares/Third_Party/LibJPEG/source/jcarith.c ****     ERREXIT(cinfo, JERR_NOT_COMPILED);
 634              		.loc 1 845 0
 635 000c 0368     		ldr	r3, [r0]
 636 000e 3122     		movs	r2, #49
 637 0010 5A61     		str	r2, [r3, #20]
 638 0012 0368     		ldr	r3, [r0]
 639 0014 1B68     		ldr	r3, [r3]
 640 0016 9847     		blx	r3
 641              	.LVL60:
 642              	.L58:
 846:Middlewares/Third_Party/LibJPEG/source/jcarith.c **** 
 847:Middlewares/Third_Party/LibJPEG/source/jcarith.c ****   /* We assume jcmaster.c already validated the progressive scan parameters. */
 848:Middlewares/Third_Party/LibJPEG/source/jcarith.c **** 
 849:Middlewares/Third_Party/LibJPEG/source/jcarith.c ****   /* Select execution routines */
 850:Middlewares/Third_Party/LibJPEG/source/jcarith.c ****   if (cinfo->progressive_mode) {
 643              		.loc 1 850 0
 644 0018 D4F80831 		ldr	r3, [r4, #264]
 645 001c A3B1     		cbz	r3, .L59
 851:Middlewares/Third_Party/LibJPEG/source/jcarith.c ****     if (cinfo->Ah == 0) {
 646              		.loc 1 851 0
 647 001e D4F87031 		ldr	r3, [r4, #368]
 648 0022 43B9     		cbnz	r3, .L60
ARM GAS  /tmp/ccQmBmhQ.s 			page 28


 852:Middlewares/Third_Party/LibJPEG/source/jcarith.c ****       if (cinfo->Ss == 0)
 649              		.loc 1 852 0
 650 0024 D4F86831 		ldr	r3, [r4, #360]
 651 0028 13B9     		cbnz	r3, .L61
 853:Middlewares/Third_Party/LibJPEG/source/jcarith.c **** 	entropy->pub.encode_mcu = encode_mcu_DC_first;
 652              		.loc 1 853 0
 653 002a 4B4B     		ldr	r3, .L74
 654 002c 6B60     		str	r3, [r5, #4]
 655 002e 0DE0     		b	.L62
 656              	.L61:
 854:Middlewares/Third_Party/LibJPEG/source/jcarith.c ****       else
 855:Middlewares/Third_Party/LibJPEG/source/jcarith.c **** 	entropy->pub.encode_mcu = encode_mcu_AC_first;
 657              		.loc 1 855 0
 658 0030 4A4B     		ldr	r3, .L74+4
 659 0032 6B60     		str	r3, [r5, #4]
 660 0034 0AE0     		b	.L62
 661              	.L60:
 856:Middlewares/Third_Party/LibJPEG/source/jcarith.c ****     } else {
 857:Middlewares/Third_Party/LibJPEG/source/jcarith.c ****       if (cinfo->Ss == 0)
 662              		.loc 1 857 0
 663 0036 D4F86831 		ldr	r3, [r4, #360]
 664 003a 13B9     		cbnz	r3, .L64
 858:Middlewares/Third_Party/LibJPEG/source/jcarith.c **** 	entropy->pub.encode_mcu = encode_mcu_DC_refine;
 665              		.loc 1 858 0
 666 003c 484B     		ldr	r3, .L74+8
 667 003e 6B60     		str	r3, [r5, #4]
 668 0040 04E0     		b	.L62
 669              	.L64:
 859:Middlewares/Third_Party/LibJPEG/source/jcarith.c ****       else
 860:Middlewares/Third_Party/LibJPEG/source/jcarith.c **** 	entropy->pub.encode_mcu = encode_mcu_AC_refine;
 670              		.loc 1 860 0
 671 0042 484B     		ldr	r3, .L74+12
 672 0044 6B60     		str	r3, [r5, #4]
 673 0046 01E0     		b	.L62
 674              	.L59:
 861:Middlewares/Third_Party/LibJPEG/source/jcarith.c ****     }
 862:Middlewares/Third_Party/LibJPEG/source/jcarith.c ****   } else
 863:Middlewares/Third_Party/LibJPEG/source/jcarith.c ****     entropy->pub.encode_mcu = encode_mcu;
 675              		.loc 1 863 0
 676 0048 474B     		ldr	r3, .L74+16
 677 004a 6B60     		str	r3, [r5, #4]
 678              	.L62:
 835:Middlewares/Third_Party/LibJPEG/source/jcarith.c ****   arith_entropy_ptr entropy = (arith_entropy_ptr) cinfo->entropy;
 679              		.loc 1 835 0 discriminator 1
 680 004c 0026     		movs	r6, #0
 681 004e 3EE0     		b	.L63
 682              	.LVL61:
 683              	.L67:
 864:Middlewares/Third_Party/LibJPEG/source/jcarith.c **** 
 865:Middlewares/Third_Party/LibJPEG/source/jcarith.c ****   /* Allocate & initialize requested statistics areas */
 866:Middlewares/Third_Party/LibJPEG/source/jcarith.c ****   for (ci = 0; ci < cinfo->comps_in_scan; ci++) {
 867:Middlewares/Third_Party/LibJPEG/source/jcarith.c ****     compptr = cinfo->cur_comp_info[ci];
 868:Middlewares/Third_Party/LibJPEG/source/jcarith.c ****     /* DC needs no table for refinement scan */
 869:Middlewares/Third_Party/LibJPEG/source/jcarith.c ****     if (cinfo->Ss == 0 && cinfo->Ah == 0) {
 870:Middlewares/Third_Party/LibJPEG/source/jcarith.c ****       tbl = compptr->dc_tbl_no;
 871:Middlewares/Third_Party/LibJPEG/source/jcarith.c ****       if (tbl < 0 || tbl >= NUM_ARITH_TBLS)
 872:Middlewares/Third_Party/LibJPEG/source/jcarith.c **** 	ERREXIT1(cinfo, JERR_NO_ARITH_TABLE, tbl);
ARM GAS  /tmp/ccQmBmhQ.s 			page 29


 873:Middlewares/Third_Party/LibJPEG/source/jcarith.c ****       if (entropy->dc_stats[tbl] == NULL)
 874:Middlewares/Third_Party/LibJPEG/source/jcarith.c **** 	entropy->dc_stats[tbl] = (unsigned char *) (*cinfo->mem->alloc_small)
 875:Middlewares/Third_Party/LibJPEG/source/jcarith.c **** 	  ((j_common_ptr) cinfo, JPOOL_IMAGE, DC_STAT_BINS);
 876:Middlewares/Third_Party/LibJPEG/source/jcarith.c ****       MEMZERO(entropy->dc_stats[tbl], DC_STAT_BINS);
 684              		.loc 1 876 0
 685 0050 1237     		adds	r7, r7, #18
 686              	.LVL62:
 687 0052 05EB8707 		add	r7, r5, r7, lsl #2
 688              	.LVL63:
 689 0056 4022     		movs	r2, #64
 690 0058 0021     		movs	r1, #0
 691 005a 7868     		ldr	r0, [r7, #4]
 692 005c FFF7FEFF 		bl	memset
 693              	.LVL64:
 877:Middlewares/Third_Party/LibJPEG/source/jcarith.c ****       /* Initialize DC predictions to 0 */
 878:Middlewares/Third_Party/LibJPEG/source/jcarith.c ****       entropy->last_dc_val[ci] = 0;
 694              		.loc 1 878 0
 695 0060 06F10803 		add	r3, r6, #8
 696 0064 05EB8303 		add	r3, r5, r3, lsl #2
 697 0068 0022     		movs	r2, #0
 698 006a 5A60     		str	r2, [r3, #4]
 879:Middlewares/Third_Party/LibJPEG/source/jcarith.c ****       entropy->dc_context[ci] = 0;
 699              		.loc 1 879 0
 700 006c 06F10C03 		add	r3, r6, #12
 701 0070 05EB8303 		add	r3, r5, r3, lsl #2
 702 0074 5A60     		str	r2, [r3, #4]
 703              	.L65:
 880:Middlewares/Third_Party/LibJPEG/source/jcarith.c ****     }
 881:Middlewares/Third_Party/LibJPEG/source/jcarith.c ****     /* AC needs no table when not present */
 882:Middlewares/Third_Party/LibJPEG/source/jcarith.c ****     if (cinfo->Se) {
 704              		.loc 1 882 0
 705 0076 D4F86C31 		ldr	r3, [r4, #364]
 706 007a 3BB3     		cbz	r3, .L68
 883:Middlewares/Third_Party/LibJPEG/source/jcarith.c ****       tbl = compptr->ac_tbl_no;
 707              		.loc 1 883 0
 708 007c D8F81870 		ldr	r7, [r8, #24]
 709              	.LVL65:
 884:Middlewares/Third_Party/LibJPEG/source/jcarith.c ****       if (tbl < 0 || tbl >= NUM_ARITH_TBLS)
 710              		.loc 1 884 0
 711 0080 0F2F     		cmp	r7, #15
 712 0082 08D9     		bls	.L69
 885:Middlewares/Third_Party/LibJPEG/source/jcarith.c **** 	ERREXIT1(cinfo, JERR_NO_ARITH_TABLE, tbl);
 713              		.loc 1 885 0
 714 0084 2368     		ldr	r3, [r4]
 715 0086 3222     		movs	r2, #50
 716 0088 5A61     		str	r2, [r3, #20]
 717 008a 2368     		ldr	r3, [r4]
 718 008c 9F61     		str	r7, [r3, #24]
 719 008e 2368     		ldr	r3, [r4]
 720 0090 1B68     		ldr	r3, [r3]
 721 0092 2046     		mov	r0, r4
 722 0094 9847     		blx	r3
 723              	.LVL66:
 724              	.L69:
 886:Middlewares/Third_Party/LibJPEG/source/jcarith.c ****       if (entropy->ac_stats[tbl] == NULL)
 725              		.loc 1 886 0
 726 0096 07F12203 		add	r3, r7, #34
ARM GAS  /tmp/ccQmBmhQ.s 			page 30


 727 009a 05EB8303 		add	r3, r5, r3, lsl #2
 728 009e 5B68     		ldr	r3, [r3, #4]
 729 00a0 5BB9     		cbnz	r3, .L70
 887:Middlewares/Third_Party/LibJPEG/source/jcarith.c **** 	entropy->ac_stats[tbl] = (unsigned char *) (*cinfo->mem->alloc_small)
 730              		.loc 1 887 0
 731 00a2 6368     		ldr	r3, [r4, #4]
 732 00a4 1B68     		ldr	r3, [r3]
 733 00a6 4FF48072 		mov	r2, #256
 734 00aa 0121     		movs	r1, #1
 735 00ac 2046     		mov	r0, r4
 736 00ae 9847     		blx	r3
 737              	.LVL67:
 738 00b0 07F12203 		add	r3, r7, #34
 739 00b4 05EB8303 		add	r3, r5, r3, lsl #2
 740 00b8 5860     		str	r0, [r3, #4]
 741              	.L70:
 888:Middlewares/Third_Party/LibJPEG/source/jcarith.c **** 	  ((j_common_ptr) cinfo, JPOOL_IMAGE, AC_STAT_BINS);
 889:Middlewares/Third_Party/LibJPEG/source/jcarith.c ****       MEMZERO(entropy->ac_stats[tbl], AC_STAT_BINS);
 742              		.loc 1 889 0
 743 00ba 2237     		adds	r7, r7, #34
 744              	.LVL68:
 745 00bc 05EB8707 		add	r7, r5, r7, lsl #2
 746              	.LVL69:
 747 00c0 4FF48072 		mov	r2, #256
 748 00c4 0021     		movs	r1, #0
 749 00c6 7868     		ldr	r0, [r7, #4]
 750 00c8 FFF7FEFF 		bl	memset
 751              	.LVL70:
 752              	.L68:
 866:Middlewares/Third_Party/LibJPEG/source/jcarith.c ****     compptr = cinfo->cur_comp_info[ci];
 753              		.loc 1 866 0 discriminator 2
 754 00cc 0136     		adds	r6, r6, #1
 755              	.LVL71:
 756              	.L63:
 866:Middlewares/Third_Party/LibJPEG/source/jcarith.c ****     compptr = cinfo->cur_comp_info[ci];
 757              		.loc 1 866 0 is_stmt 0 discriminator 1
 758 00ce D4F82031 		ldr	r3, [r4, #288]
 759 00d2 B342     		cmp	r3, r6
 760 00d4 2DDD     		ble	.L73
 867:Middlewares/Third_Party/LibJPEG/source/jcarith.c ****     /* DC needs no table for refinement scan */
 761              		.loc 1 867 0 is_stmt 1
 762 00d6 06F14803 		add	r3, r6, #72
 763 00da 04EB8303 		add	r3, r4, r3, lsl #2
 764 00de D3F80480 		ldr	r8, [r3, #4]
 765              	.LVL72:
 869:Middlewares/Third_Party/LibJPEG/source/jcarith.c ****       tbl = compptr->dc_tbl_no;
 766              		.loc 1 869 0
 767 00e2 D4F86831 		ldr	r3, [r4, #360]
 768 00e6 002B     		cmp	r3, #0
 769 00e8 C5D1     		bne	.L65
 869:Middlewares/Third_Party/LibJPEG/source/jcarith.c ****       tbl = compptr->dc_tbl_no;
 770              		.loc 1 869 0 is_stmt 0 discriminator 1
 771 00ea D4F87031 		ldr	r3, [r4, #368]
 772 00ee 002B     		cmp	r3, #0
 773 00f0 C1D1     		bne	.L65
 870:Middlewares/Third_Party/LibJPEG/source/jcarith.c ****       if (tbl < 0 || tbl >= NUM_ARITH_TBLS)
 774              		.loc 1 870 0 is_stmt 1
ARM GAS  /tmp/ccQmBmhQ.s 			page 31


 775 00f2 D8F81470 		ldr	r7, [r8, #20]
 776              	.LVL73:
 871:Middlewares/Third_Party/LibJPEG/source/jcarith.c **** 	ERREXIT1(cinfo, JERR_NO_ARITH_TABLE, tbl);
 777              		.loc 1 871 0
 778 00f6 0F2F     		cmp	r7, #15
 779 00f8 08D9     		bls	.L66
 872:Middlewares/Third_Party/LibJPEG/source/jcarith.c ****       if (entropy->dc_stats[tbl] == NULL)
 780              		.loc 1 872 0
 781 00fa 2368     		ldr	r3, [r4]
 782 00fc 3222     		movs	r2, #50
 783 00fe 5A61     		str	r2, [r3, #20]
 784 0100 2368     		ldr	r3, [r4]
 785 0102 9F61     		str	r7, [r3, #24]
 786 0104 2368     		ldr	r3, [r4]
 787 0106 1B68     		ldr	r3, [r3]
 788 0108 2046     		mov	r0, r4
 789 010a 9847     		blx	r3
 790              	.LVL74:
 791              	.L66:
 873:Middlewares/Third_Party/LibJPEG/source/jcarith.c **** 	entropy->dc_stats[tbl] = (unsigned char *) (*cinfo->mem->alloc_small)
 792              		.loc 1 873 0
 793 010c 07F11203 		add	r3, r7, #18
 794 0110 05EB8303 		add	r3, r5, r3, lsl #2
 795 0114 5B68     		ldr	r3, [r3, #4]
 796 0116 002B     		cmp	r3, #0
 797 0118 9AD1     		bne	.L67
 874:Middlewares/Third_Party/LibJPEG/source/jcarith.c **** 	  ((j_common_ptr) cinfo, JPOOL_IMAGE, DC_STAT_BINS);
 798              		.loc 1 874 0
 799 011a 6368     		ldr	r3, [r4, #4]
 800 011c 1B68     		ldr	r3, [r3]
 801 011e 4022     		movs	r2, #64
 802 0120 0121     		movs	r1, #1
 803 0122 2046     		mov	r0, r4
 804 0124 9847     		blx	r3
 805              	.LVL75:
 806 0126 07F11203 		add	r3, r7, #18
 807 012a 05EB8303 		add	r3, r5, r3, lsl #2
 808 012e 5860     		str	r0, [r3, #4]
 809 0130 8EE7     		b	.L67
 810              	.LVL76:
 811              	.L73:
 890:Middlewares/Third_Party/LibJPEG/source/jcarith.c **** #ifdef CALCULATE_SPECTRAL_CONDITIONING
 891:Middlewares/Third_Party/LibJPEG/source/jcarith.c ****       if (cinfo->progressive_mode)
 892:Middlewares/Third_Party/LibJPEG/source/jcarith.c **** 	/* Section G.1.3.2: Set appropriate arithmetic conditioning value Kx */
 893:Middlewares/Third_Party/LibJPEG/source/jcarith.c **** 	cinfo->arith_ac_K[tbl] = cinfo->Ss + ((8 + cinfo->Se - cinfo->Ss) >> 4);
 894:Middlewares/Third_Party/LibJPEG/source/jcarith.c **** #endif
 895:Middlewares/Third_Party/LibJPEG/source/jcarith.c ****     }
 896:Middlewares/Third_Party/LibJPEG/source/jcarith.c ****   }
 897:Middlewares/Third_Party/LibJPEG/source/jcarith.c **** 
 898:Middlewares/Third_Party/LibJPEG/source/jcarith.c ****   /* Initialize arithmetic encoding variables */
 899:Middlewares/Third_Party/LibJPEG/source/jcarith.c ****   entropy->c = 0;
 812              		.loc 1 899 0
 813 0132 0023     		movs	r3, #0
 814 0134 EB60     		str	r3, [r5, #12]
 900:Middlewares/Third_Party/LibJPEG/source/jcarith.c ****   entropy->a = 0x10000L;
 815              		.loc 1 900 0
 816 0136 4FF48032 		mov	r2, #65536
ARM GAS  /tmp/ccQmBmhQ.s 			page 32


 817 013a 2A61     		str	r2, [r5, #16]
 901:Middlewares/Third_Party/LibJPEG/source/jcarith.c ****   entropy->sc = 0;
 818              		.loc 1 901 0
 819 013c 6B61     		str	r3, [r5, #20]
 902:Middlewares/Third_Party/LibJPEG/source/jcarith.c ****   entropy->zc = 0;
 820              		.loc 1 902 0
 821 013e AB61     		str	r3, [r5, #24]
 903:Middlewares/Third_Party/LibJPEG/source/jcarith.c ****   entropy->ct = 11;
 822              		.loc 1 903 0
 823 0140 0B22     		movs	r2, #11
 824 0142 EA61     		str	r2, [r5, #28]
 904:Middlewares/Third_Party/LibJPEG/source/jcarith.c ****   entropy->buffer = -1;  /* empty */
 825              		.loc 1 904 0
 826 0144 4FF0FF32 		mov	r2, #-1
 827 0148 2A62     		str	r2, [r5, #32]
 905:Middlewares/Third_Party/LibJPEG/source/jcarith.c **** 
 906:Middlewares/Third_Party/LibJPEG/source/jcarith.c ****   /* Initialize restart stuff */
 907:Middlewares/Third_Party/LibJPEG/source/jcarith.c ****   entropy->restarts_to_go = cinfo->restart_interval;
 828              		.loc 1 907 0
 829 014a D4F8EC20 		ldr	r2, [r4, #236]
 830 014e 6A64     		str	r2, [r5, #68]
 908:Middlewares/Third_Party/LibJPEG/source/jcarith.c ****   entropy->next_restart_num = 0;
 831              		.loc 1 908 0
 832 0150 AB64     		str	r3, [r5, #72]
 909:Middlewares/Third_Party/LibJPEG/source/jcarith.c **** }
 833              		.loc 1 909 0
 834 0152 BDE8F081 		pop	{r4, r5, r6, r7, r8, pc}
 835              	.LVL77:
 836              	.L75:
 837 0156 00BF     		.align	2
 838              	.L74:
 839 0158 00000000 		.word	encode_mcu_DC_first
 840 015c 00000000 		.word	encode_mcu_AC_first
 841 0160 00000000 		.word	encode_mcu_DC_refine
 842 0164 00000000 		.word	encode_mcu_AC_refine
 843 0168 00000000 		.word	encode_mcu
 844              		.cfi_endproc
 845              	.LFE12:
 847              		.section	.text.emit_restart,"ax",%progbits
 848              		.align	1
 849              		.syntax unified
 850              		.thumb
 851              		.thumb_func
 852              		.fpu fpv5-sp-d16
 854              	emit_restart:
 855              	.LFB6:
 320:Middlewares/Third_Party/LibJPEG/source/jcarith.c ****   arith_entropy_ptr entropy = (arith_entropy_ptr) cinfo->entropy;
 856              		.loc 1 320 0
 857              		.cfi_startproc
 858              		@ args = 0, pretend = 0, frame = 0
 859              		@ frame_needed = 0, uses_anonymous_args = 0
 860              	.LVL78:
 861 0000 F8B5     		push	{r3, r4, r5, r6, r7, lr}
 862              	.LCFI4:
 863              		.cfi_def_cfa_offset 24
 864              		.cfi_offset 3, -24
 865              		.cfi_offset 4, -20
ARM GAS  /tmp/ccQmBmhQ.s 			page 33


 866              		.cfi_offset 5, -16
 867              		.cfi_offset 6, -12
 868              		.cfi_offset 7, -8
 869              		.cfi_offset 14, -4
 870 0002 0446     		mov	r4, r0
 871 0004 0D46     		mov	r5, r1
 321:Middlewares/Third_Party/LibJPEG/source/jcarith.c ****   int ci;
 872              		.loc 1 321 0
 873 0006 D0F8A461 		ldr	r6, [r0, #420]
 874              	.LVL79:
 325:Middlewares/Third_Party/LibJPEG/source/jcarith.c **** 
 875              		.loc 1 325 0
 876 000a FFF7FEFF 		bl	finish_pass
 877              	.LVL80:
 327:Middlewares/Third_Party/LibJPEG/source/jcarith.c ****   emit_byte(JPEG_RST0 + restart_num, cinfo);
 878              		.loc 1 327 0
 879 000e 2146     		mov	r1, r4
 880 0010 FF20     		movs	r0, #255
 881 0012 FFF7FEFF 		bl	emit_byte
 882              	.LVL81:
 328:Middlewares/Third_Party/LibJPEG/source/jcarith.c **** 
 883              		.loc 1 328 0
 884 0016 2146     		mov	r1, r4
 885 0018 05F1D000 		add	r0, r5, #208
 886 001c FFF7FEFF 		bl	emit_byte
 887              	.LVL82:
 331:Middlewares/Third_Party/LibJPEG/source/jcarith.c ****     compptr = cinfo->cur_comp_info[ci];
 888              		.loc 1 331 0
 889 0020 0025     		movs	r5, #0
 890              	.LVL83:
 891 0022 03E0     		b	.L77
 892              	.LVL84:
 893              	.L78:
 341:Middlewares/Third_Party/LibJPEG/source/jcarith.c ****       MEMZERO(entropy->ac_stats[compptr->ac_tbl_no], AC_STAT_BINS);
 894              		.loc 1 341 0
 895 0024 D4F86C31 		ldr	r3, [r4, #364]
 896 0028 33BB     		cbnz	r3, .L82
 897              	.L79:
 331:Middlewares/Third_Party/LibJPEG/source/jcarith.c ****     compptr = cinfo->cur_comp_info[ci];
 898              		.loc 1 331 0 discriminator 2
 899 002a 0135     		adds	r5, r5, #1
 900              	.LVL85:
 901              	.L77:
 331:Middlewares/Third_Party/LibJPEG/source/jcarith.c ****     compptr = cinfo->cur_comp_info[ci];
 902              		.loc 1 331 0 is_stmt 0 discriminator 1
 903 002c D4F82031 		ldr	r3, [r4, #288]
 904 0030 AB42     		cmp	r3, r5
 905 0032 2CDD     		ble	.L83
 332:Middlewares/Third_Party/LibJPEG/source/jcarith.c ****     /* DC needs no table for refinement scan */
 906              		.loc 1 332 0 is_stmt 1
 907 0034 05F14803 		add	r3, r5, #72
 908 0038 04EB8303 		add	r3, r4, r3, lsl #2
 909 003c 5F68     		ldr	r7, [r3, #4]
 910              	.LVL86:
 334:Middlewares/Third_Party/LibJPEG/source/jcarith.c ****       MEMZERO(entropy->dc_stats[compptr->dc_tbl_no], DC_STAT_BINS);
 911              		.loc 1 334 0
 912 003e D4F86831 		ldr	r3, [r4, #360]
ARM GAS  /tmp/ccQmBmhQ.s 			page 34


 913 0042 002B     		cmp	r3, #0
 914 0044 EED1     		bne	.L78
 334:Middlewares/Third_Party/LibJPEG/source/jcarith.c ****       MEMZERO(entropy->dc_stats[compptr->dc_tbl_no], DC_STAT_BINS);
 915              		.loc 1 334 0 is_stmt 0 discriminator 1
 916 0046 D4F87031 		ldr	r3, [r4, #368]
 917 004a 002B     		cmp	r3, #0
 918 004c EAD1     		bne	.L78
 335:Middlewares/Third_Party/LibJPEG/source/jcarith.c ****       /* Reset DC predictions to 0 */
 919              		.loc 1 335 0 is_stmt 1
 920 004e 7B69     		ldr	r3, [r7, #20]
 921 0050 1233     		adds	r3, r3, #18
 922 0052 06EB8303 		add	r3, r6, r3, lsl #2
 923 0056 4022     		movs	r2, #64
 924 0058 0021     		movs	r1, #0
 925 005a 5868     		ldr	r0, [r3, #4]
 926 005c FFF7FEFF 		bl	memset
 927              	.LVL87:
 337:Middlewares/Third_Party/LibJPEG/source/jcarith.c ****       entropy->dc_context[ci] = 0;
 928              		.loc 1 337 0
 929 0060 05F10803 		add	r3, r5, #8
 930 0064 06EB8303 		add	r3, r6, r3, lsl #2
 931 0068 0022     		movs	r2, #0
 932 006a 5A60     		str	r2, [r3, #4]
 338:Middlewares/Third_Party/LibJPEG/source/jcarith.c ****     }
 933              		.loc 1 338 0
 934 006c 05F10C03 		add	r3, r5, #12
 935 0070 06EB8303 		add	r3, r6, r3, lsl #2
 936 0074 5A60     		str	r2, [r3, #4]
 937 0076 D5E7     		b	.L78
 938              	.L82:
 342:Middlewares/Third_Party/LibJPEG/source/jcarith.c ****     }
 939              		.loc 1 342 0
 940 0078 BB69     		ldr	r3, [r7, #24]
 941 007a 2233     		adds	r3, r3, #34
 942 007c 06EB8303 		add	r3, r6, r3, lsl #2
 943 0080 4FF48072 		mov	r2, #256
 944 0084 0021     		movs	r1, #0
 945 0086 5868     		ldr	r0, [r3, #4]
 946 0088 FFF7FEFF 		bl	memset
 947              	.LVL88:
 948 008c CDE7     		b	.L79
 949              	.LVL89:
 950              	.L83:
 347:Middlewares/Third_Party/LibJPEG/source/jcarith.c ****   entropy->a = 0x10000L;
 951              		.loc 1 347 0
 952 008e 0023     		movs	r3, #0
 953 0090 F360     		str	r3, [r6, #12]
 348:Middlewares/Third_Party/LibJPEG/source/jcarith.c ****   entropy->sc = 0;
 954              		.loc 1 348 0
 955 0092 4FF48032 		mov	r2, #65536
 956 0096 3261     		str	r2, [r6, #16]
 349:Middlewares/Third_Party/LibJPEG/source/jcarith.c ****   entropy->zc = 0;
 957              		.loc 1 349 0
 958 0098 7361     		str	r3, [r6, #20]
 350:Middlewares/Third_Party/LibJPEG/source/jcarith.c ****   entropy->ct = 11;
 959              		.loc 1 350 0
 960 009a B361     		str	r3, [r6, #24]
ARM GAS  /tmp/ccQmBmhQ.s 			page 35


 351:Middlewares/Third_Party/LibJPEG/source/jcarith.c ****   entropy->buffer = -1;  /* empty */
 961              		.loc 1 351 0
 962 009c 0B23     		movs	r3, #11
 963 009e F361     		str	r3, [r6, #28]
 352:Middlewares/Third_Party/LibJPEG/source/jcarith.c **** }
 964              		.loc 1 352 0
 965 00a0 4FF0FF33 		mov	r3, #-1
 966 00a4 3362     		str	r3, [r6, #32]
 353:Middlewares/Third_Party/LibJPEG/source/jcarith.c **** 
 967              		.loc 1 353 0
 968 00a6 F8BD     		pop	{r3, r4, r5, r6, r7, pc}
 969              		.cfi_endproc
 970              	.LFE6:
 972              		.section	.text.encode_mcu,"ax",%progbits
 973              		.align	1
 974              		.syntax unified
 975              		.thumb
 976              		.thumb_func
 977              		.fpu fpv5-sp-d16
 979              	encode_mcu:
 980              	.LFB11:
 687:Middlewares/Third_Party/LibJPEG/source/jcarith.c ****   arith_entropy_ptr entropy = (arith_entropy_ptr) cinfo->entropy;
 981              		.loc 1 687 0
 982              		.cfi_startproc
 983              		@ args = 0, pretend = 0, frame = 32
 984              		@ frame_needed = 0, uses_anonymous_args = 0
 985              	.LVL90:
 986 0000 2DE9F04F 		push	{r4, r5, r6, r7, r8, r9, r10, fp, lr}
 987              	.LCFI5:
 988              		.cfi_def_cfa_offset 36
 989              		.cfi_offset 4, -36
 990              		.cfi_offset 5, -32
 991              		.cfi_offset 6, -28
 992              		.cfi_offset 7, -24
 993              		.cfi_offset 8, -20
 994              		.cfi_offset 9, -16
 995              		.cfi_offset 10, -12
 996              		.cfi_offset 11, -8
 997              		.cfi_offset 14, -4
 998 0004 89B0     		sub	sp, sp, #36
 999              	.LCFI6:
 1000              		.cfi_def_cfa_offset 72
 1001 0006 8246     		mov	r10, r0
 1002 0008 0591     		str	r1, [sp, #20]
 688:Middlewares/Third_Party/LibJPEG/source/jcarith.c ****   jpeg_component_info * compptr;
 1003              		.loc 1 688 0
 1004 000a D0F8A431 		ldr	r3, [r0, #420]
 1005 000e 1A46     		mov	r2, r3
 1006 0010 0493     		str	r3, [sp, #16]
 1007              	.LVL91:
 697:Middlewares/Third_Party/LibJPEG/source/jcarith.c ****     if (entropy->restarts_to_go == 0) {
 1008              		.loc 1 697 0
 1009 0012 D0F8EC30 		ldr	r3, [r0, #236]
 1010 0016 2BB1     		cbz	r3, .L85
 698:Middlewares/Third_Party/LibJPEG/source/jcarith.c ****       emit_restart(cinfo, entropy->next_restart_num);
 1011              		.loc 1 698 0
 1012 0018 536C     		ldr	r3, [r2, #68]
ARM GAS  /tmp/ccQmBmhQ.s 			page 36


 1013 001a 43B1     		cbz	r3, .L120
 1014              	.LVL92:
 1015              	.L86:
 704:Middlewares/Third_Party/LibJPEG/source/jcarith.c ****   }
 1016              		.loc 1 704 0
 1017 001c 049A     		ldr	r2, [sp, #16]
 1018 001e 536C     		ldr	r3, [r2, #68]
 1019 0020 013B     		subs	r3, r3, #1
 1020 0022 5364     		str	r3, [r2, #68]
 1021              	.L85:
 707:Middlewares/Third_Party/LibJPEG/source/jcarith.c **** 
 1022              		.loc 1 707 0
 1023 0024 DAF87CB1 		ldr	fp, [r10, #380]
 1024              	.LVL93:
 710:Middlewares/Third_Party/LibJPEG/source/jcarith.c ****     block = MCU_data[blkn];
 1025              		.loc 1 710 0
 1026 0028 0023     		movs	r3, #0
 1027 002a 0193     		str	r3, [sp, #4]
 1028 002c 05E1     		b	.L87
 1029              	.LVL94:
 1030              	.L120:
 699:Middlewares/Third_Party/LibJPEG/source/jcarith.c ****       entropy->restarts_to_go = cinfo->restart_interval;
 1031              		.loc 1 699 0
 1032 002e 1446     		mov	r4, r2
 1033 0030 916C     		ldr	r1, [r2, #72]
 1034              	.LVL95:
 1035 0032 FFF7FEFF 		bl	emit_restart
 1036              	.LVL96:
 700:Middlewares/Third_Party/LibJPEG/source/jcarith.c ****       entropy->next_restart_num++;
 1037              		.loc 1 700 0
 1038 0036 DAF8EC30 		ldr	r3, [r10, #236]
 1039 003a 6364     		str	r3, [r4, #68]
 701:Middlewares/Third_Party/LibJPEG/source/jcarith.c ****       entropy->next_restart_num &= 7;
 1040              		.loc 1 701 0
 1041 003c A36C     		ldr	r3, [r4, #72]
 1042 003e 0133     		adds	r3, r3, #1
 702:Middlewares/Third_Party/LibJPEG/source/jcarith.c ****     }
 1043              		.loc 1 702 0
 1044 0040 03F00703 		and	r3, r3, #7
 1045 0044 A364     		str	r3, [r4, #72]
 1046 0046 E9E7     		b	.L86
 1047              	.LVL97:
 1048              	.L88:
 727:Middlewares/Third_Party/LibJPEG/source/jcarith.c ****       arith_encode(cinfo, st, 1);
 1049              		.loc 1 727 0
 1050 0048 06F10803 		add	r3, r6, #8
 1051 004c 049C     		ldr	r4, [sp, #16]
 1052 004e 04EB8303 		add	r3, r4, r3, lsl #2
 1053 0052 5A60     		str	r2, [r3, #4]
 728:Middlewares/Third_Party/LibJPEG/source/jcarith.c ****       /* Figure F.6: Encoding nonzero value v */
 1054              		.loc 1 728 0
 1055 0054 0122     		movs	r2, #1
 1056 0056 2946     		mov	r1, r5
 1057 0058 5046     		mov	r0, r10
 1058 005a FFF7FEFF 		bl	arith_encode
 1059              	.LVL98:
 731:Middlewares/Third_Party/LibJPEG/source/jcarith.c **** 	arith_encode(cinfo, st + 1, 0);	/* Table F.4: SS = S0 + 1 */
ARM GAS  /tmp/ccQmBmhQ.s 			page 37


 1060              		.loc 1 731 0
 1061 005e 002F     		cmp	r7, #0
 1062 0060 25DD     		ble	.L90
 732:Middlewares/Third_Party/LibJPEG/source/jcarith.c **** 	st += 2;			/* Table F.4: SP = S0 + 2 */
 1063              		.loc 1 732 0
 1064 0062 0022     		movs	r2, #0
 1065 0064 691C     		adds	r1, r5, #1
 1066 0066 5046     		mov	r0, r10
 1067 0068 FFF7FEFF 		bl	arith_encode
 1068              	.LVL99:
 733:Middlewares/Third_Party/LibJPEG/source/jcarith.c **** 	entropy->dc_context[ci] = 4;	/* small positive diff category */
 1069              		.loc 1 733 0
 1070 006c 0235     		adds	r5, r5, #2
 1071              	.LVL100:
 734:Middlewares/Third_Party/LibJPEG/source/jcarith.c ****       } else {
 1072              		.loc 1 734 0
 1073 006e 06F10C03 		add	r3, r6, #12
 1074 0072 04EB8303 		add	r3, r4, r3, lsl #2
 1075 0076 0422     		movs	r2, #4
 1076 0078 5A60     		str	r2, [r3, #4]
 1077              	.LVL101:
 1078              	.L91:
 743:Middlewares/Third_Party/LibJPEG/source/jcarith.c **** 	arith_encode(cinfo, st, 1);
 1079              		.loc 1 743 0
 1080 007a 013F     		subs	r7, r7, #1
 1081              	.LVL102:
 1082 007c 26D1     		bne	.L121
 742:Middlewares/Third_Party/LibJPEG/source/jcarith.c ****       if (v -= 1) {
 1083              		.loc 1 742 0
 1084 007e 3C46     		mov	r4, r7
 1085              	.LVL103:
 1086              	.L92:
 754:Middlewares/Third_Party/LibJPEG/source/jcarith.c ****       /* Section F.1.4.4.1.2: Establish dc_context conditioning category */
 1087              		.loc 1 754 0
 1088 0080 0022     		movs	r2, #0
 1089 0082 2946     		mov	r1, r5
 1090 0084 5046     		mov	r0, r10
 1091 0086 FFF7FEFF 		bl	arith_encode
 1092              	.LVL104:
 756:Middlewares/Third_Party/LibJPEG/source/jcarith.c **** 	entropy->dc_context[ci] = 0;	/* zero diff category */
 1093              		.loc 1 756 0
 1094 008a 0AEB0903 		add	r3, r10, r9
 1095 008e 93F89820 		ldrb	r2, [r3, #152]	@ zero_extendqisi2
 1096 0092 0123     		movs	r3, #1
 1097 0094 9340     		lsls	r3, r3, r2
 1098 0096 B4EB630F 		cmp	r4, r3, asr #1
 1099 009a 35DA     		bge	.L95
 757:Middlewares/Third_Party/LibJPEG/source/jcarith.c ****       else if (m > (int) ((1L << cinfo->arith_dc_U[tbl]) >> 1))
 1100              		.loc 1 757 0
 1101 009c 06F10C03 		add	r3, r6, #12
 1102 00a0 049A     		ldr	r2, [sp, #16]
 1103 00a2 02EB8303 		add	r3, r2, r3, lsl #2
 1104 00a6 0022     		movs	r2, #0
 1105 00a8 5A60     		str	r2, [r3, #4]
 1106              	.LVL105:
 1107              	.L96:
 761:Middlewares/Third_Party/LibJPEG/source/jcarith.c ****       while (m >>= 1)
ARM GAS  /tmp/ccQmBmhQ.s 			page 38


 1108              		.loc 1 761 0
 1109 00aa 0E35     		adds	r5, r5, #14
 1110              	.LVL106:
 762:Middlewares/Third_Party/LibJPEG/source/jcarith.c **** 	arith_encode(cinfo, st, (m & v) ? 1 : 0);
 1111              		.loc 1 762 0
 1112 00ac 45E0     		b	.L97
 1113              	.LVL107:
 1114              	.L90:
 736:Middlewares/Third_Party/LibJPEG/source/jcarith.c **** 	arith_encode(cinfo, st + 1, 1);	/* Table F.4: SS = S0 + 1 */
 1115              		.loc 1 736 0
 1116 00ae 7F42     		negs	r7, r7
 1117              	.LVL108:
 737:Middlewares/Third_Party/LibJPEG/source/jcarith.c **** 	st += 3;			/* Table F.4: SN = S0 + 3 */
 1118              		.loc 1 737 0
 1119 00b0 0122     		movs	r2, #1
 1120 00b2 A918     		adds	r1, r5, r2
 1121 00b4 5046     		mov	r0, r10
 1122 00b6 FFF7FEFF 		bl	arith_encode
 1123              	.LVL109:
 738:Middlewares/Third_Party/LibJPEG/source/jcarith.c **** 	entropy->dc_context[ci] = 8;	/* small negative diff category */
 1124              		.loc 1 738 0
 1125 00ba 0335     		adds	r5, r5, #3
 1126              	.LVL110:
 739:Middlewares/Third_Party/LibJPEG/source/jcarith.c ****       }
 1127              		.loc 1 739 0
 1128 00bc 06F10C03 		add	r3, r6, #12
 1129 00c0 049A     		ldr	r2, [sp, #16]
 1130 00c2 02EB8303 		add	r3, r2, r3, lsl #2
 1131 00c6 0822     		movs	r2, #8
 1132 00c8 5A60     		str	r2, [r3, #4]
 1133 00ca D6E7     		b	.L91
 1134              	.LVL111:
 1135              	.L121:
 744:Middlewares/Third_Party/LibJPEG/source/jcarith.c **** 	m = 1;
 1136              		.loc 1 744 0
 1137 00cc 0122     		movs	r2, #1
 1138 00ce 2946     		mov	r1, r5
 1139 00d0 5046     		mov	r0, r10
 1140 00d2 FFF7FEFF 		bl	arith_encode
 1141              	.LVL112:
 747:Middlewares/Third_Party/LibJPEG/source/jcarith.c **** 	while (v2 >>= 1) {
 1142              		.loc 1 747 0
 1143 00d6 09F11203 		add	r3, r9, #18
 1144 00da 049A     		ldr	r2, [sp, #16]
 1145 00dc 02EB8303 		add	r3, r2, r3, lsl #2
 1146 00e0 5D68     		ldr	r5, [r3, #4]
 1147              	.LVL113:
 1148 00e2 1435     		adds	r5, r5, #20
 1149              	.LVL114:
 745:Middlewares/Third_Party/LibJPEG/source/jcarith.c **** 	v2 = v;
 1150              		.loc 1 745 0
 1151 00e4 0124     		movs	r4, #1
 1152 00e6 CDF80CB0 		str	fp, [sp, #12]
 1153 00ea BB46     		mov	fp, r7
 748:Middlewares/Third_Party/LibJPEG/source/jcarith.c **** 	  arith_encode(cinfo, st, 1);
 1154              		.loc 1 748 0
 1155 00ec 06E0     		b	.L93
ARM GAS  /tmp/ccQmBmhQ.s 			page 39


 1156              	.LVL115:
 1157              	.L94:
 749:Middlewares/Third_Party/LibJPEG/source/jcarith.c **** 	  m <<= 1;
 1158              		.loc 1 749 0
 1159 00ee 0122     		movs	r2, #1
 1160 00f0 2946     		mov	r1, r5
 1161 00f2 5046     		mov	r0, r10
 1162 00f4 FFF7FEFF 		bl	arith_encode
 1163              	.LVL116:
 750:Middlewares/Third_Party/LibJPEG/source/jcarith.c **** 	  st += 1;
 1164              		.loc 1 750 0
 1165 00f8 6400     		lsls	r4, r4, #1
 1166              	.LVL117:
 751:Middlewares/Third_Party/LibJPEG/source/jcarith.c **** 	}
 1167              		.loc 1 751 0
 1168 00fa 0135     		adds	r5, r5, #1
 1169              	.LVL118:
 1170              	.L93:
 748:Middlewares/Third_Party/LibJPEG/source/jcarith.c **** 	  arith_encode(cinfo, st, 1);
 1171              		.loc 1 748 0
 1172 00fc 5FEA6B0B 		asrs	fp, fp, #1
 1173              	.LVL119:
 1174 0100 F5D1     		bne	.L94
 1175 0102 DDF80CB0 		ldr	fp, [sp, #12]
 1176              	.LVL120:
 1177 0106 BBE7     		b	.L92
 1178              	.L95:
 758:Middlewares/Third_Party/LibJPEG/source/jcarith.c **** 	entropy->dc_context[ci] += 8;	/* large diff category */
 1179              		.loc 1 758 0
 1180 0108 D144     		add	r9, r9, r10
 1181              	.LVL121:
 1182 010a 99F8A820 		ldrb	r2, [r9, #168]	@ zero_extendqisi2
 1183 010e 0123     		movs	r3, #1
 1184 0110 9340     		lsls	r3, r3, r2
 1185 0112 B4EB630F 		cmp	r4, r3, asr #1
 1186 0116 C8DD     		ble	.L96
 759:Middlewares/Third_Party/LibJPEG/source/jcarith.c ****       /* Figure F.9: Encoding the magnitude bit pattern of v */
 1187              		.loc 1 759 0
 1188 0118 06F10C03 		add	r3, r6, #12
 1189 011c 049A     		ldr	r2, [sp, #16]
 1190 011e 02EB8303 		add	r3, r2, r3, lsl #2
 1191 0122 5A68     		ldr	r2, [r3, #4]
 1192 0124 0832     		adds	r2, r2, #8
 1193 0126 5A60     		str	r2, [r3, #4]
 1194 0128 BFE7     		b	.L96
 1195              	.L98:
 763:Middlewares/Third_Party/LibJPEG/source/jcarith.c ****     }
 1196              		.loc 1 763 0
 1197 012a 2742     		tst	r7, r4
 1198 012c 14BF     		ite	ne
 1199 012e 0122     		movne	r2, #1
 1200 0130 0022     		moveq	r2, #0
 1201 0132 2946     		mov	r1, r5
 1202 0134 5046     		mov	r0, r10
 1203 0136 FFF7FEFF 		bl	arith_encode
 1204              	.LVL122:
 1205              	.L97:
ARM GAS  /tmp/ccQmBmhQ.s 			page 40


 762:Middlewares/Third_Party/LibJPEG/source/jcarith.c **** 	arith_encode(cinfo, st, (m & v) ? 1 : 0);
 1206              		.loc 1 762 0
 1207 013a 6410     		asrs	r4, r4, #1
 1208              	.LVL123:
 1209 013c F5D1     		bne	.L98
 1210 013e B1E0     		b	.L89
 1211              	.LVL124:
 1212              	.L104:
 781:Middlewares/Third_Party/LibJPEG/source/jcarith.c **** 	st += 3;
 1213              		.loc 1 781 0
 1214 0140 0022     		movs	r2, #0
 1215 0142 611C     		adds	r1, r4, #1
 1216 0144 5046     		mov	r0, r10
 1217 0146 FFF7FEFF 		bl	arith_encode
 1218              	.LVL125:
 782:Middlewares/Third_Party/LibJPEG/source/jcarith.c ****       }
 1219              		.loc 1 782 0
 1220 014a 0334     		adds	r4, r4, #3
 1221              	.LVL126:
 1222              	.L103:
 780:Middlewares/Third_Party/LibJPEG/source/jcarith.c **** 	arith_encode(cinfo, st + 1, 0);
 1223              		.loc 1 780 0
 1224 014c 0137     		adds	r7, r7, #1
 1225              	.LVL127:
 1226 014e 5BF82730 		ldr	r3, [fp, r7, lsl #2]
 1227 0152 38F91360 		ldrsh	r6, [r8, r3, lsl #1]
 1228              	.LVL128:
 1229 0156 002E     		cmp	r6, #0
 1230 0158 F2D0     		beq	.L104
 784:Middlewares/Third_Party/LibJPEG/source/jcarith.c ****       /* Figure F.6: Encoding nonzero value v */
 1231              		.loc 1 784 0
 1232 015a 0122     		movs	r2, #1
 1233 015c A118     		adds	r1, r4, r2
 1234 015e 5046     		mov	r0, r10
 1235 0160 FFF7FEFF 		bl	arith_encode
 1236              	.LVL129:
 787:Middlewares/Third_Party/LibJPEG/source/jcarith.c **** 	arith_encode(cinfo, entropy->fixed_bin, 0);
 1237              		.loc 1 787 0
 1238 0164 002E     		cmp	r6, #0
 1239 0166 10DD     		ble	.L105
 788:Middlewares/Third_Party/LibJPEG/source/jcarith.c ****       } else {
 1240              		.loc 1 788 0
 1241 0168 0022     		movs	r2, #0
 1242 016a 09F1CC01 		add	r1, r9, #204
 1243 016e 5046     		mov	r0, r10
 1244 0170 FFF7FEFF 		bl	arith_encode
 1245              	.LVL130:
 1246              	.L106:
 793:Middlewares/Third_Party/LibJPEG/source/jcarith.c ****       /* Figure F.8: Encoding the magnitude category of v */
 1247              		.loc 1 793 0
 1248 0174 0234     		adds	r4, r4, #2
 1249              	.LVL131:
 796:Middlewares/Third_Party/LibJPEG/source/jcarith.c **** 	arith_encode(cinfo, st, 1);
 1250              		.loc 1 796 0
 1251 0176 013E     		subs	r6, r6, #1
 1252              	.LVL132:
 1253 0178 0FD1     		bne	.L122
ARM GAS  /tmp/ccQmBmhQ.s 			page 41


 795:Middlewares/Third_Party/LibJPEG/source/jcarith.c ****       if (v -= 1) {
 1254              		.loc 1 795 0
 1255 017a 3546     		mov	r5, r6
 1256              	.LVL133:
 1257              	.L107:
 812:Middlewares/Third_Party/LibJPEG/source/jcarith.c ****       /* Figure F.9: Encoding the magnitude bit pattern of v */
 1258              		.loc 1 812 0
 1259 017c 0022     		movs	r2, #0
 1260 017e 2146     		mov	r1, r4
 1261 0180 5046     		mov	r0, r10
 1262 0182 FFF7FEFF 		bl	arith_encode
 1263              	.LVL134:
 814:Middlewares/Third_Party/LibJPEG/source/jcarith.c ****       while (m >>= 1)
 1264              		.loc 1 814 0
 1265 0186 0E34     		adds	r4, r4, #14
 1266              	.LVL135:
 815:Middlewares/Third_Party/LibJPEG/source/jcarith.c **** 	arith_encode(cinfo, st, (m & v) ? 1 : 0);
 1267              		.loc 1 815 0
 1268 0188 3DE0     		b	.L111
 1269              	.LVL136:
 1270              	.L105:
 790:Middlewares/Third_Party/LibJPEG/source/jcarith.c **** 	arith_encode(cinfo, entropy->fixed_bin, 1);
 1271              		.loc 1 790 0
 1272 018a 7642     		negs	r6, r6
 1273              	.LVL137:
 791:Middlewares/Third_Party/LibJPEG/source/jcarith.c ****       }
 1274              		.loc 1 791 0
 1275 018c 0122     		movs	r2, #1
 1276 018e 09F1CC01 		add	r1, r9, #204
 1277 0192 5046     		mov	r0, r10
 1278 0194 FFF7FEFF 		bl	arith_encode
 1279              	.LVL138:
 1280 0198 ECE7     		b	.L106
 1281              	.LVL139:
 1282              	.L122:
 797:Middlewares/Third_Party/LibJPEG/source/jcarith.c **** 	m = 1;
 1283              		.loc 1 797 0
 1284 019a 0122     		movs	r2, #1
 1285 019c 2146     		mov	r1, r4
 1286 019e 5046     		mov	r0, r10
 1287 01a0 FFF7FEFF 		bl	arith_encode
 1288              	.LVL140:
 800:Middlewares/Third_Party/LibJPEG/source/jcarith.c **** 	  arith_encode(cinfo, st, 1);
 1289              		.loc 1 800 0
 1290 01a4 7310     		asrs	r3, r6, #1
 1291              	.LVL141:
 1292 01a6 0693     		str	r3, [sp, #24]
 1293 01a8 01D1     		bne	.L123
 798:Middlewares/Third_Party/LibJPEG/source/jcarith.c **** 	v2 = v;
 1294              		.loc 1 798 0
 1295 01aa 0125     		movs	r5, #1
 1296 01ac E6E7     		b	.L107
 1297              	.L123:
 801:Middlewares/Third_Party/LibJPEG/source/jcarith.c **** 	  m <<= 1;
 1298              		.loc 1 801 0
 1299 01ae 0122     		movs	r2, #1
 1300 01b0 2146     		mov	r1, r4
ARM GAS  /tmp/ccQmBmhQ.s 			page 42


 1301 01b2 5046     		mov	r0, r10
 1302 01b4 FFF7FEFF 		bl	arith_encode
 1303              	.LVL142:
 803:Middlewares/Third_Party/LibJPEG/source/jcarith.c **** 	       (k <= cinfo->arith_ac_K[tbl] ? 189 : 217);
 1304              		.loc 1 803 0
 1305 01b8 039A     		ldr	r2, [sp, #12]
 1306 01ba 1346     		mov	r3, r2
 1307 01bc 2233     		adds	r3, r3, #34
 1308 01be 09EB8303 		add	r3, r9, r3, lsl #2
 1309 01c2 5C68     		ldr	r4, [r3, #4]
 1310              	.LVL143:
 804:Middlewares/Third_Party/LibJPEG/source/jcarith.c **** 	  while (v2 >>= 1) {
 1311              		.loc 1 804 0
 1312 01c4 0AEB0203 		add	r3, r10, r2
 1313 01c8 93F8B830 		ldrb	r3, [r3, #184]	@ zero_extendqisi2
 1314 01cc BB42     		cmp	r3, r7
 1315 01ce 05DB     		blt	.L118
 1316 01d0 BD23     		movs	r3, #189
 1317              	.L108:
 803:Middlewares/Third_Party/LibJPEG/source/jcarith.c **** 	       (k <= cinfo->arith_ac_K[tbl] ? 189 : 217);
 1318              		.loc 1 803 0
 1319 01d2 1C44     		add	r4, r4, r3
 1320              	.LVL144:
 802:Middlewares/Third_Party/LibJPEG/source/jcarith.c **** 	  st = entropy->ac_stats[tbl] +
 1321              		.loc 1 802 0
 1322 01d4 0225     		movs	r5, #2
 1323 01d6 0797     		str	r7, [sp, #28]
 1324 01d8 069F     		ldr	r7, [sp, #24]
 1325              	.LVL145:
 805:Middlewares/Third_Party/LibJPEG/source/jcarith.c **** 	    arith_encode(cinfo, st, 1);
 1326              		.loc 1 805 0
 1327 01da 08E0     		b	.L109
 1328              	.LVL146:
 1329              	.L118:
 804:Middlewares/Third_Party/LibJPEG/source/jcarith.c **** 	  while (v2 >>= 1) {
 1330              		.loc 1 804 0
 1331 01dc D923     		movs	r3, #217
 1332 01de F8E7     		b	.L108
 1333              	.LVL147:
 1334              	.L110:
 806:Middlewares/Third_Party/LibJPEG/source/jcarith.c **** 	    m <<= 1;
 1335              		.loc 1 806 0
 1336 01e0 0122     		movs	r2, #1
 1337 01e2 2146     		mov	r1, r4
 1338 01e4 5046     		mov	r0, r10
 1339 01e6 FFF7FEFF 		bl	arith_encode
 1340              	.LVL148:
 807:Middlewares/Third_Party/LibJPEG/source/jcarith.c **** 	    st += 1;
 1341              		.loc 1 807 0
 1342 01ea 6D00     		lsls	r5, r5, #1
 1343              	.LVL149:
 808:Middlewares/Third_Party/LibJPEG/source/jcarith.c **** 	  }
 1344              		.loc 1 808 0
 1345 01ec 0134     		adds	r4, r4, #1
 1346              	.LVL150:
 1347              	.L109:
 805:Middlewares/Third_Party/LibJPEG/source/jcarith.c **** 	    arith_encode(cinfo, st, 1);
ARM GAS  /tmp/ccQmBmhQ.s 			page 43


 1348              		.loc 1 805 0
 1349 01ee 7F10     		asrs	r7, r7, #1
 1350              	.LVL151:
 1351 01f0 F6D1     		bne	.L110
 1352 01f2 079F     		ldr	r7, [sp, #28]
 1353              	.LVL152:
 1354 01f4 C2E7     		b	.L107
 1355              	.LVL153:
 1356              	.L112:
 816:Middlewares/Third_Party/LibJPEG/source/jcarith.c ****     }
 1357              		.loc 1 816 0
 1358 01f6 2E42     		tst	r6, r5
 1359 01f8 14BF     		ite	ne
 1360 01fa 0122     		movne	r2, #1
 1361 01fc 0022     		moveq	r2, #0
 1362 01fe 2146     		mov	r1, r4
 1363 0200 5046     		mov	r0, r10
 1364 0202 FFF7FEFF 		bl	arith_encode
 1365              	.LVL154:
 1366              	.L111:
 815:Middlewares/Third_Party/LibJPEG/source/jcarith.c **** 	arith_encode(cinfo, st, (m & v) ? 1 : 0);
 1367              		.loc 1 815 0
 1368 0206 6D10     		asrs	r5, r5, #1
 1369              	.LVL155:
 1370 0208 F5D1     		bne	.L112
 1371              	.LVL156:
 1372              	.L102:
 777:Middlewares/Third_Party/LibJPEG/source/jcarith.c ****       st = entropy->ac_stats[tbl] + 3 * k;
 1373              		.loc 1 777 0 discriminator 1
 1374 020a 029B     		ldr	r3, [sp, #8]
 1375 020c 9F42     		cmp	r7, r3
 1376 020e 0DDA     		bge	.L124
 778:Middlewares/Third_Party/LibJPEG/source/jcarith.c ****       arith_encode(cinfo, st, 0);	/* EOB decision */
 1377              		.loc 1 778 0
 1378 0210 039B     		ldr	r3, [sp, #12]
 1379 0212 2233     		adds	r3, r3, #34
 1380 0214 09EB8303 		add	r3, r9, r3, lsl #2
 1381 0218 5C68     		ldr	r4, [r3, #4]
 1382 021a 07EB4703 		add	r3, r7, r7, lsl #1
 1383 021e 1C44     		add	r4, r4, r3
 1384              	.LVL157:
 779:Middlewares/Third_Party/LibJPEG/source/jcarith.c ****       while ((v = (*block)[natural_order[++k]]) == 0) {
 1385              		.loc 1 779 0
 1386 0220 0022     		movs	r2, #0
 1387 0222 2146     		mov	r1, r4
 1388 0224 5046     		mov	r0, r10
 1389 0226 FFF7FEFF 		bl	arith_encode
 1390              	.LVL158:
 780:Middlewares/Third_Party/LibJPEG/source/jcarith.c **** 	arith_encode(cinfo, st + 1, 0);
 1391              		.loc 1 780 0
 1392 022a 8FE7     		b	.L103
 1393              	.LVL159:
 1394              	.L124:
 819:Middlewares/Third_Party/LibJPEG/source/jcarith.c ****       st = entropy->ac_stats[tbl] + 3 * k;
 1395              		.loc 1 819 0
 1396 022c DAF88031 		ldr	r3, [r10, #384]
 1397 0230 BB42     		cmp	r3, r7
ARM GAS  /tmp/ccQmBmhQ.s 			page 44


 1398 0232 4DDC     		bgt	.L125
 1399              	.LVL160:
 1400              	.L99:
 710:Middlewares/Third_Party/LibJPEG/source/jcarith.c ****     block = MCU_data[blkn];
 1401              		.loc 1 710 0 discriminator 2
 1402 0234 019B     		ldr	r3, [sp, #4]
 1403 0236 0133     		adds	r3, r3, #1
 1404 0238 0193     		str	r3, [sp, #4]
 1405              	.LVL161:
 1406              	.L87:
 710:Middlewares/Third_Party/LibJPEG/source/jcarith.c ****     block = MCU_data[blkn];
 1407              		.loc 1 710 0 is_stmt 0 discriminator 1
 1408 023a DAF83C31 		ldr	r3, [r10, #316]
 1409 023e 019A     		ldr	r2, [sp, #4]
 1410 0240 9342     		cmp	r3, r2
 1411 0242 53DD     		ble	.L126
 711:Middlewares/Third_Party/LibJPEG/source/jcarith.c ****     ci = cinfo->MCU_membership[blkn];
 1412              		.loc 1 711 0 is_stmt 1
 1413 0244 059B     		ldr	r3, [sp, #20]
 1414 0246 1946     		mov	r1, r3
 1415 0248 019B     		ldr	r3, [sp, #4]
 1416 024a 51F82380 		ldr	r8, [r1, r3, lsl #2]
 1417              	.LVL162:
 712:Middlewares/Third_Party/LibJPEG/source/jcarith.c ****     compptr = cinfo->cur_comp_info[ci];
 1418              		.loc 1 712 0
 1419 024e 5033     		adds	r3, r3, #80
 1420 0250 5AF82360 		ldr	r6, [r10, r3, lsl #2]
 1421              	.LVL163:
 713:Middlewares/Third_Party/LibJPEG/source/jcarith.c **** 
 1422              		.loc 1 713 0
 1423 0254 06F14803 		add	r3, r6, #72
 1424 0258 0AEB8303 		add	r3, r10, r3, lsl #2
 1425 025c 5B68     		ldr	r3, [r3, #4]
 1426 025e 0293     		str	r3, [sp, #8]
 1427              	.LVL164:
 717:Middlewares/Third_Party/LibJPEG/source/jcarith.c **** 
 1428              		.loc 1 717 0
 1429 0260 D3F81490 		ldr	r9, [r3, #20]
 1430              	.LVL165:
 720:Middlewares/Third_Party/LibJPEG/source/jcarith.c **** 
 1431              		.loc 1 720 0
 1432 0264 09F11203 		add	r3, r9, #18
 1433              	.LVL166:
 1434 0268 049C     		ldr	r4, [sp, #16]
 1435 026a 04EB8303 		add	r3, r4, r3, lsl #2
 1436 026e 5D68     		ldr	r5, [r3, #4]
 1437 0270 06F10C03 		add	r3, r6, #12
 1438 0274 04EB8303 		add	r3, r4, r3, lsl #2
 1439 0278 5B68     		ldr	r3, [r3, #4]
 1440 027a 1D44     		add	r5, r5, r3
 1441              	.LVL167:
 723:Middlewares/Third_Party/LibJPEG/source/jcarith.c ****       arith_encode(cinfo, st, 0);
 1442              		.loc 1 723 0
 1443 027c B8F90020 		ldrsh	r2, [r8]
 1444 0280 06F10803 		add	r3, r6, #8
 1445 0284 04EB8303 		add	r3, r4, r3, lsl #2
 1446 0288 5F68     		ldr	r7, [r3, #4]
ARM GAS  /tmp/ccQmBmhQ.s 			page 45


 1447              	.LVL168:
 1448 028a D71B     		subs	r7, r2, r7
 1449              	.LVL169:
 1450 028c 7FF4DCAE 		bne	.L88
 724:Middlewares/Third_Party/LibJPEG/source/jcarith.c ****       entropy->dc_context[ci] = 0;	/* zero diff category */
 1451              		.loc 1 724 0
 1452 0290 0022     		movs	r2, #0
 1453 0292 2946     		mov	r1, r5
 1454 0294 5046     		mov	r0, r10
 1455 0296 FFF7FEFF 		bl	arith_encode
 1456              	.LVL170:
 725:Middlewares/Third_Party/LibJPEG/source/jcarith.c ****     } else {
 1457              		.loc 1 725 0
 1458 029a 0C36     		adds	r6, r6, #12
 1459              	.LVL171:
 1460 029c 04EB8606 		add	r6, r4, r6, lsl #2
 1461              	.LVL172:
 1462 02a0 0023     		movs	r3, #0
 1463 02a2 7360     		str	r3, [r6, #4]
 1464              	.LVL173:
 1465              	.L89:
 768:Middlewares/Third_Party/LibJPEG/source/jcarith.c ****     tbl = compptr->ac_tbl_no;
 1466              		.loc 1 768 0
 1467 02a4 DAF88091 		ldr	r9, [r10, #384]
 1468              	.LVL174:
 1469 02a8 B9F1000F 		cmp	r9, #0
 1470 02ac C2D0     		beq	.L99
 769:Middlewares/Third_Party/LibJPEG/source/jcarith.c **** 
 1471              		.loc 1 769 0
 1472 02ae 029B     		ldr	r3, [sp, #8]
 1473 02b0 9B69     		ldr	r3, [r3, #24]
 1474 02b2 0393     		str	r3, [sp, #12]
 1475              	.LVL175:
 1476              	.L101:
 773:Middlewares/Third_Party/LibJPEG/source/jcarith.c ****     } while (--ke);
 1477              		.loc 1 773 0
 1478 02b4 5BF82930 		ldr	r3, [fp, r9, lsl #2]
 1479 02b8 38F91330 		ldrsh	r3, [r8, r3, lsl #1]
 1480 02bc 13B9     		cbnz	r3, .L100
 1481              	.LVL176:
 774:Middlewares/Third_Party/LibJPEG/source/jcarith.c **** 
 1482              		.loc 1 774 0
 1483 02be B9F10109 		subs	r9, r9, #1
 1484              	.LVL177:
 1485 02c2 F7D1     		bne	.L101
 1486              	.L100:
 1487              	.LVL178:
 777:Middlewares/Third_Party/LibJPEG/source/jcarith.c ****       st = entropy->ac_stats[tbl] + 3 * k;
 1488              		.loc 1 777 0
 1489 02c4 0027     		movs	r7, #0
 1490 02c6 CDF80890 		str	r9, [sp, #8]
 1491              	.LVL179:
 1492 02ca DDF81090 		ldr	r9, [sp, #16]
 1493              	.LVL180:
 1494 02ce 9CE7     		b	.L102
 1495              	.LVL181:
 1496              	.L125:
ARM GAS  /tmp/ccQmBmhQ.s 			page 46


 820:Middlewares/Third_Party/LibJPEG/source/jcarith.c ****       arith_encode(cinfo, st, 1);
 1497              		.loc 1 820 0
 1498 02d0 039B     		ldr	r3, [sp, #12]
 1499 02d2 2233     		adds	r3, r3, #34
 1500 02d4 049A     		ldr	r2, [sp, #16]
 1501 02d6 02EB8303 		add	r3, r2, r3, lsl #2
 1502 02da 5968     		ldr	r1, [r3, #4]
 1503 02dc 07EB4707 		add	r7, r7, r7, lsl #1
 1504              	.LVL182:
 821:Middlewares/Third_Party/LibJPEG/source/jcarith.c ****     }
 1505              		.loc 1 821 0
 1506 02e0 0122     		movs	r2, #1
 1507 02e2 3944     		add	r1, r1, r7
 1508              	.LVL183:
 1509 02e4 5046     		mov	r0, r10
 1510 02e6 FFF7FEFF 		bl	arith_encode
 1511              	.LVL184:
 1512 02ea A3E7     		b	.L99
 1513              	.LVL185:
 1514              	.L126:
 826:Middlewares/Third_Party/LibJPEG/source/jcarith.c **** 
 1515              		.loc 1 826 0
 1516 02ec 0120     		movs	r0, #1
 1517 02ee 09B0     		add	sp, sp, #36
 1518              	.LCFI7:
 1519              		.cfi_def_cfa_offset 36
 1520              		@ sp needed
 1521 02f0 BDE8F08F 		pop	{r4, r5, r6, r7, r8, r9, r10, fp, pc}
 1522              		.cfi_endproc
 1523              	.LFE11:
 1525              		.section	.text.encode_mcu_AC_refine,"ax",%progbits
 1526              		.align	1
 1527              		.syntax unified
 1528              		.thumb
 1529              		.thumb_func
 1530              		.fpu fpv5-sp-d16
 1532              	encode_mcu_AC_refine:
 1533              	.LFB10:
 591:Middlewares/Third_Party/LibJPEG/source/jcarith.c ****   arith_entropy_ptr entropy = (arith_entropy_ptr) cinfo->entropy;
 1534              		.loc 1 591 0
 1535              		.cfi_startproc
 1536              		@ args = 0, pretend = 0, frame = 8
 1537              		@ frame_needed = 0, uses_anonymous_args = 0
 1538              	.LVL186:
 1539 0000 2DE9F04F 		push	{r4, r5, r6, r7, r8, r9, r10, fp, lr}
 1540              	.LCFI8:
 1541              		.cfi_def_cfa_offset 36
 1542              		.cfi_offset 4, -36
 1543              		.cfi_offset 5, -32
 1544              		.cfi_offset 6, -28
 1545              		.cfi_offset 7, -24
 1546              		.cfi_offset 8, -20
 1547              		.cfi_offset 9, -16
 1548              		.cfi_offset 10, -12
 1549              		.cfi_offset 11, -8
 1550              		.cfi_offset 14, -4
 1551 0004 83B0     		sub	sp, sp, #12
ARM GAS  /tmp/ccQmBmhQ.s 			page 47


 1552              	.LCFI9:
 1553              		.cfi_def_cfa_offset 48
 1554 0006 0646     		mov	r6, r0
 1555 0008 0C46     		mov	r4, r1
 592:Middlewares/Third_Party/LibJPEG/source/jcarith.c ****   JBLOCKROW block;
 1556              		.loc 1 592 0
 1557 000a D0F8A4B1 		ldr	fp, [r0, #420]
 1558              	.LVL187:
 600:Middlewares/Third_Party/LibJPEG/source/jcarith.c ****     if (entropy->restarts_to_go == 0) {
 1559              		.loc 1 600 0
 1560 000e D0F8EC30 		ldr	r3, [r0, #236]
 1561 0012 3BB1     		cbz	r3, .L128
 601:Middlewares/Third_Party/LibJPEG/source/jcarith.c ****       emit_restart(cinfo, entropy->next_restart_num);
 1562              		.loc 1 601 0
 1563 0014 DBF84430 		ldr	r3, [fp, #68]
 1564 0018 7BB1     		cbz	r3, .L153
 1565              	.LVL188:
 1566              	.L129:
 607:Middlewares/Third_Party/LibJPEG/source/jcarith.c ****   }
 1567              		.loc 1 607 0
 1568 001a DBF84430 		ldr	r3, [fp, #68]
 1569 001e 013B     		subs	r3, r3, #1
 1570 0020 CBF84430 		str	r3, [fp, #68]
 1571              	.L128:
 610:Middlewares/Third_Party/LibJPEG/source/jcarith.c **** 
 1572              		.loc 1 610 0
 1573 0024 D6F87C71 		ldr	r7, [r6, #380]
 1574              	.LVL189:
 613:Middlewares/Third_Party/LibJPEG/source/jcarith.c ****   tbl = cinfo->cur_comp_info[0]->ac_tbl_no;
 1575              		.loc 1 613 0
 1576 0028 D4F80080 		ldr	r8, [r4]
 1577              	.LVL190:
 614:Middlewares/Third_Party/LibJPEG/source/jcarith.c **** 
 1578              		.loc 1 614 0
 1579 002c D6F82431 		ldr	r3, [r6, #292]
 1580 0030 9B69     		ldr	r3, [r3, #24]
 1581 0032 0193     		str	r3, [sp, #4]
 1582              	.LVL191:
 619:Middlewares/Third_Party/LibJPEG/source/jcarith.c ****     /* We must apply the point transform by Al.  For AC coefficients this
 1583              		.loc 1 619 0
 1584 0034 D6F86C91 		ldr	r9, [r6, #364]
 1585              	.LVL192:
 1586 0038 16E0     		b	.L130
 1587              	.LVL193:
 1588              	.L153:
 602:Middlewares/Third_Party/LibJPEG/source/jcarith.c ****       entropy->restarts_to_go = cinfo->restart_interval;
 1589              		.loc 1 602 0
 1590 003a DBF84810 		ldr	r1, [fp, #72]
 1591              	.LVL194:
 1592 003e FFF7FEFF 		bl	emit_restart
 1593              	.LVL195:
 603:Middlewares/Third_Party/LibJPEG/source/jcarith.c ****       entropy->next_restart_num++;
 1594              		.loc 1 603 0
 1595 0042 D6F8EC30 		ldr	r3, [r6, #236]
 1596 0046 CBF84430 		str	r3, [fp, #68]
 604:Middlewares/Third_Party/LibJPEG/source/jcarith.c ****       entropy->next_restart_num &= 7;
 1597              		.loc 1 604 0
ARM GAS  /tmp/ccQmBmhQ.s 			page 48


 1598 004a DBF84830 		ldr	r3, [fp, #72]
 1599 004e 0133     		adds	r3, r3, #1
 605:Middlewares/Third_Party/LibJPEG/source/jcarith.c ****     }
 1600              		.loc 1 605 0
 1601 0050 03F00703 		and	r3, r3, #7
 1602 0054 CBF84830 		str	r3, [fp, #72]
 1603 0058 DFE7     		b	.L129
 1604              	.LVL196:
 1605              	.L131:
 627:Middlewares/Third_Party/LibJPEG/source/jcarith.c ****       if (v >>= cinfo->Al) break;
 1606              		.loc 1 627 0
 1607 005a 5B42     		negs	r3, r3
 1608              	.LVL197:
 628:Middlewares/Third_Party/LibJPEG/source/jcarith.c ****     }
 1609              		.loc 1 628 0
 1610 005c D6F87421 		ldr	r2, [r6, #372]
 1611              	.LVL198:
 1612 0060 1341     		asrs	r3, r3, r2
 1613              	.LVL199:
 1614 0062 29D1     		bne	.L151
 1615              	.LVL200:
 1616              	.L133:
 619:Middlewares/Third_Party/LibJPEG/source/jcarith.c ****     /* We must apply the point transform by Al.  For AC coefficients this
 1617              		.loc 1 619 0 discriminator 2
 1618 0064 09F1FF39 		add	r9, r9, #-1
 1619              	.LVL201:
 1620              	.L130:
 619:Middlewares/Third_Party/LibJPEG/source/jcarith.c ****     /* We must apply the point transform by Al.  For AC coefficients this
 1621              		.loc 1 619 0 is_stmt 0 discriminator 1
 1622 0068 B9F1000F 		cmp	r9, #0
 1623 006c 0BDD     		ble	.L154
 624:Middlewares/Third_Party/LibJPEG/source/jcarith.c ****       if (v >>= cinfo->Al) break;
 1624              		.loc 1 624 0 is_stmt 1
 1625 006e 57F82930 		ldr	r3, [r7, r9, lsl #2]
 1626 0072 38F91330 		ldrsh	r3, [r8, r3, lsl #1]
 1627              	.LVL202:
 1628 0076 002B     		cmp	r3, #0
 1629 0078 EFDB     		blt	.L131
 625:Middlewares/Third_Party/LibJPEG/source/jcarith.c ****     } else {
 1630              		.loc 1 625 0
 1631 007a D6F87421 		ldr	r2, [r6, #372]
 1632              	.LVL203:
 1633 007e 1341     		asrs	r3, r3, r2
 1634              	.LVL204:
 1635 0080 F0D0     		beq	.L133
 1636 0082 CA46     		mov	r10, r9
 1637 0084 08E0     		b	.L138
 1638              	.LVL205:
 1639              	.L154:
 1640 0086 CA46     		mov	r10, r9
 1641 0088 06E0     		b	.L138
 1642              	.LVL206:
 1643              	.L135:
 636:Middlewares/Third_Party/LibJPEG/source/jcarith.c ****       if (v >>= cinfo->Ah) break;
 1644              		.loc 1 636 0
 1645 008a 5B42     		negs	r3, r3
 1646              	.LVL207:
ARM GAS  /tmp/ccQmBmhQ.s 			page 49


 637:Middlewares/Third_Party/LibJPEG/source/jcarith.c ****     }
 1647              		.loc 1 637 0
 1648 008c D6F87021 		ldr	r2, [r6, #368]
 1649              	.LVL208:
 1650 0090 1341     		asrs	r3, r3, r2
 1651              	.LVL209:
 1652 0092 0ED1     		bne	.L136
 1653              	.LVL210:
 1654              	.L137:
 632:Middlewares/Third_Party/LibJPEG/source/jcarith.c ****     if ((v = (*block)[natural_order[kex]]) >= 0) {
 1655              		.loc 1 632 0 discriminator 2
 1656 0094 0AF1FF3A 		add	r10, r10, #-1
 1657              	.LVL211:
 1658              	.L138:
 632:Middlewares/Third_Party/LibJPEG/source/jcarith.c ****     if ((v = (*block)[natural_order[kex]]) >= 0) {
 1659              		.loc 1 632 0 is_stmt 0 discriminator 1
 1660 0098 BAF1000F 		cmp	r10, #0
 1661 009c 09DD     		ble	.L136
 633:Middlewares/Third_Party/LibJPEG/source/jcarith.c ****       if (v >>= cinfo->Ah) break;
 1662              		.loc 1 633 0 is_stmt 1
 1663 009e 57F82A30 		ldr	r3, [r7, r10, lsl #2]
 1664 00a2 38F91330 		ldrsh	r3, [r8, r3, lsl #1]
 1665              	.LVL212:
 1666 00a6 002B     		cmp	r3, #0
 1667 00a8 EFDB     		blt	.L135
 634:Middlewares/Third_Party/LibJPEG/source/jcarith.c ****     } else {
 1668              		.loc 1 634 0
 1669 00aa D6F87021 		ldr	r2, [r6, #368]
 1670              	.LVL213:
 1671 00ae 1341     		asrs	r3, r3, r2
 1672              	.LVL214:
 1673 00b0 F0D0     		beq	.L137
 1674              	.LVL215:
 1675              	.L136:
 641:Middlewares/Third_Party/LibJPEG/source/jcarith.c ****     st = entropy->ac_stats[tbl] + 3 * (k - 1);
 1676              		.loc 1 641 0
 1677 00b2 D6F86841 		ldr	r4, [r6, #360]
 1678              	.LVL216:
 1679 00b6 2CE0     		b	.L140
 1680              	.LVL217:
 1681              	.L151:
 1682 00b8 CA46     		mov	r10, r9
 1683 00ba EDE7     		b	.L138
 1684              	.LVL218:
 1685              	.L144:
 651:Middlewares/Third_Party/LibJPEG/source/jcarith.c **** 	    arith_encode(cinfo, entropy->fixed_bin, 0);
 1686              		.loc 1 651 0
 1687 00bc 0122     		movs	r2, #1
 1688              	.LVL219:
 1689 00be A918     		adds	r1, r5, r2
 1690 00c0 3046     		mov	r0, r6
 1691 00c2 FFF7FEFF 		bl	arith_encode
 1692              	.LVL220:
 652:Middlewares/Third_Party/LibJPEG/source/jcarith.c **** 	  }
 1693              		.loc 1 652 0
 1694 00c6 0022     		movs	r2, #0
 1695 00c8 0BF1CC01 		add	r1, fp, #204
ARM GAS  /tmp/ccQmBmhQ.s 			page 50


 1696 00cc 3046     		mov	r0, r6
 1697 00ce FFF7FEFF 		bl	arith_encode
 1698              	.LVL221:
 1699 00d2 1DE0     		b	.L145
 1700              	.LVL222:
 1701              	.L142:
 657:Middlewares/Third_Party/LibJPEG/source/jcarith.c **** 	if (v >>= cinfo->Al) {
 1702              		.loc 1 657 0
 1703 00d4 5242     		negs	r2, r2
 1704              	.LVL223:
 658:Middlewares/Third_Party/LibJPEG/source/jcarith.c **** 	  if (v >> 1)			/* previously nonzero coef */
 1705              		.loc 1 658 0
 1706 00d6 D6F87431 		ldr	r3, [r6, #372]
 1707              	.LVL224:
 1708 00da 1A41     		asrs	r2, r2, r3
 1709              	.LVL225:
 1710 00dc 2CD1     		bne	.L155
 1711              	.LVL226:
 1712              	.L143:
 668:Middlewares/Third_Party/LibJPEG/source/jcarith.c ****     }
 1713              		.loc 1 668 0
 1714 00de 0022     		movs	r2, #0
 1715 00e0 691C     		adds	r1, r5, #1
 1716 00e2 3046     		mov	r0, r6
 1717 00e4 FFF7FEFF 		bl	arith_encode
 1718              	.LVL227:
 1719 00e8 0335     		adds	r5, r5, #3
 1720              	.LVL228:
 1721 00ea 0134     		adds	r4, r4, #1
 1722              	.LVL229:
 1723              	.L147:
 646:Middlewares/Third_Party/LibJPEG/source/jcarith.c **** 	if (v >>= cinfo->Al) {
 1724              		.loc 1 646 0
 1725 00ec 57F82430 		ldr	r3, [r7, r4, lsl #2]
 1726 00f0 38F91320 		ldrsh	r2, [r8, r3, lsl #1]
 1727              	.LVL230:
 1728 00f4 002A     		cmp	r2, #0
 1729 00f6 EDDB     		blt	.L142
 647:Middlewares/Third_Party/LibJPEG/source/jcarith.c **** 	  if (v >> 1)			/* previously nonzero coef */
 1730              		.loc 1 647 0
 1731 00f8 D6F87431 		ldr	r3, [r6, #372]
 1732              	.LVL231:
 1733 00fc 1A41     		asrs	r2, r2, r3
 1734              	.LVL232:
 1735 00fe EED0     		beq	.L143
 648:Middlewares/Third_Party/LibJPEG/source/jcarith.c **** 	    arith_encode(cinfo, st + 2, (v & 1));
 1736              		.loc 1 648 0
 1737 0100 5308     		lsrs	r3, r2, #1
 1738 0102 DBD0     		beq	.L144
 649:Middlewares/Third_Party/LibJPEG/source/jcarith.c **** 	  else {			/* newly nonzero coef */
 1739              		.loc 1 649 0
 1740 0104 02F00102 		and	r2, r2, #1
 1741              	.LVL233:
 1742 0108 A91C     		adds	r1, r5, #2
 1743 010a 3046     		mov	r0, r6
 1744 010c FFF7FEFF 		bl	arith_encode
 1745              	.LVL234:
ARM GAS  /tmp/ccQmBmhQ.s 			page 51


 1746              	.L145:
 641:Middlewares/Third_Party/LibJPEG/source/jcarith.c ****     st = entropy->ac_stats[tbl] + 3 * (k - 1);
 1747              		.loc 1 641 0 discriminator 2
 1748 0110 0134     		adds	r4, r4, #1
 1749              	.LVL235:
 1750              	.L140:
 641:Middlewares/Third_Party/LibJPEG/source/jcarith.c ****     st = entropy->ac_stats[tbl] + 3 * (k - 1);
 1751              		.loc 1 641 0 is_stmt 0 discriminator 1
 1752 0112 4C45     		cmp	r4, r9
 1753 0114 25DC     		bgt	.L156
 642:Middlewares/Third_Party/LibJPEG/source/jcarith.c ****     if (k > kex)
 1754              		.loc 1 642 0 is_stmt 1
 1755 0116 019B     		ldr	r3, [sp, #4]
 1756 0118 2233     		adds	r3, r3, #34
 1757 011a 0BEB8303 		add	r3, fp, r3, lsl #2
 1758 011e 5D68     		ldr	r5, [r3, #4]
 1759 0120 631E     		subs	r3, r4, #1
 1760 0122 03EB4303 		add	r3, r3, r3, lsl #1
 1761 0126 1D44     		add	r5, r5, r3
 1762              	.LVL236:
 643:Middlewares/Third_Party/LibJPEG/source/jcarith.c ****       arith_encode(cinfo, st, 0);	/* EOB decision */
 1763              		.loc 1 643 0
 1764 0128 5445     		cmp	r4, r10
 1765 012a DFDD     		ble	.L147
 644:Middlewares/Third_Party/LibJPEG/source/jcarith.c ****     for (;;) {
 1766              		.loc 1 644 0
 1767 012c 0022     		movs	r2, #0
 1768 012e 2946     		mov	r1, r5
 1769 0130 3046     		mov	r0, r6
 1770 0132 FFF7FEFF 		bl	arith_encode
 1771              	.LVL237:
 1772 0136 D9E7     		b	.L147
 1773              	.LVL238:
 1774              	.L155:
 659:Middlewares/Third_Party/LibJPEG/source/jcarith.c **** 	    arith_encode(cinfo, st + 2, (v & 1));
 1775              		.loc 1 659 0
 1776 0138 5308     		lsrs	r3, r2, #1
 1777 013a 06D0     		beq	.L146
 660:Middlewares/Third_Party/LibJPEG/source/jcarith.c **** 	  else {			/* newly nonzero coef */
 1778              		.loc 1 660 0
 1779 013c 02F00102 		and	r2, r2, #1
 1780              	.LVL239:
 1781 0140 A91C     		adds	r1, r5, #2
 1782 0142 3046     		mov	r0, r6
 1783 0144 FFF7FEFF 		bl	arith_encode
 1784              	.LVL240:
 1785 0148 E2E7     		b	.L145
 1786              	.LVL241:
 1787              	.L146:
 662:Middlewares/Third_Party/LibJPEG/source/jcarith.c **** 	    arith_encode(cinfo, entropy->fixed_bin, 1);
 1788              		.loc 1 662 0
 1789 014a 0122     		movs	r2, #1
 1790              	.LVL242:
 1791 014c A918     		adds	r1, r5, r2
 1792 014e 3046     		mov	r0, r6
 1793 0150 FFF7FEFF 		bl	arith_encode
 1794              	.LVL243:
ARM GAS  /tmp/ccQmBmhQ.s 			page 52


 663:Middlewares/Third_Party/LibJPEG/source/jcarith.c **** 	  }
 1795              		.loc 1 663 0
 1796 0154 0122     		movs	r2, #1
 1797 0156 0BF1CC01 		add	r1, fp, #204
 1798 015a 3046     		mov	r0, r6
 1799 015c FFF7FEFF 		bl	arith_encode
 1800              	.LVL244:
 1801 0160 D6E7     		b	.L145
 1802              	.LVL245:
 1803              	.L156:
 672:Middlewares/Third_Party/LibJPEG/source/jcarith.c ****     st = entropy->ac_stats[tbl] + 3 * (k - 1);
 1804              		.loc 1 672 0
 1805 0162 D6F86C31 		ldr	r3, [r6, #364]
 1806 0166 A342     		cmp	r3, r4
 1807 0168 03DA     		bge	.L157
 1808              	.LVL246:
 1809              	.L149:
 678:Middlewares/Third_Party/LibJPEG/source/jcarith.c **** 
 1810              		.loc 1 678 0
 1811 016a 0120     		movs	r0, #1
 1812 016c 03B0     		add	sp, sp, #12
 1813              	.LCFI10:
 1814              		.cfi_remember_state
 1815              		.cfi_def_cfa_offset 36
 1816              		@ sp needed
 1817 016e BDE8F08F 		pop	{r4, r5, r6, r7, r8, r9, r10, fp, pc}
 1818              	.LVL247:
 1819              	.L157:
 1820              	.LCFI11:
 1821              		.cfi_restore_state
 673:Middlewares/Third_Party/LibJPEG/source/jcarith.c ****     arith_encode(cinfo, st, 1);
 1822              		.loc 1 673 0
 1823 0172 019B     		ldr	r3, [sp, #4]
 1824 0174 2233     		adds	r3, r3, #34
 1825 0176 0BEB830B 		add	fp, fp, r3, lsl #2
 1826              	.LVL248:
 1827 017a DBF80410 		ldr	r1, [fp, #4]
 1828 017e 013C     		subs	r4, r4, #1
 1829              	.LVL249:
 1830 0180 04EB4404 		add	r4, r4, r4, lsl #1
 1831              	.LVL250:
 674:Middlewares/Third_Party/LibJPEG/source/jcarith.c ****   }
 1832              		.loc 1 674 0
 1833 0184 0122     		movs	r2, #1
 1834 0186 2144     		add	r1, r1, r4
 1835              	.LVL251:
 1836 0188 3046     		mov	r0, r6
 1837 018a FFF7FEFF 		bl	arith_encode
 1838              	.LVL252:
 1839 018e ECE7     		b	.L149
 1840              		.cfi_endproc
 1841              	.LFE10:
 1843              		.section	.text.encode_mcu_DC_refine,"ax",%progbits
 1844              		.align	1
 1845              		.syntax unified
 1846              		.thumb
 1847              		.thumb_func
ARM GAS  /tmp/ccQmBmhQ.s 			page 53


 1848              		.fpu fpv5-sp-d16
 1850              	encode_mcu_DC_refine:
 1851              	.LFB9:
 556:Middlewares/Third_Party/LibJPEG/source/jcarith.c ****   arith_entropy_ptr entropy = (arith_entropy_ptr) cinfo->entropy;
 1852              		.loc 1 556 0
 1853              		.cfi_startproc
 1854              		@ args = 0, pretend = 0, frame = 0
 1855              		@ frame_needed = 0, uses_anonymous_args = 0
 1856              	.LVL253:
 1857 0000 2DE9F041 		push	{r4, r5, r6, r7, r8, lr}
 1858              	.LCFI12:
 1859              		.cfi_def_cfa_offset 24
 1860              		.cfi_offset 4, -24
 1861              		.cfi_offset 5, -20
 1862              		.cfi_offset 6, -16
 1863              		.cfi_offset 7, -12
 1864              		.cfi_offset 8, -8
 1865              		.cfi_offset 14, -4
 1866 0004 0546     		mov	r5, r0
 1867 0006 8846     		mov	r8, r1
 557:Middlewares/Third_Party/LibJPEG/source/jcarith.c ****   unsigned char *st;
 1868              		.loc 1 557 0
 1869 0008 D0F8A461 		ldr	r6, [r0, #420]
 1870              	.LVL254:
 562:Middlewares/Third_Party/LibJPEG/source/jcarith.c ****     if (entropy->restarts_to_go == 0) {
 1871              		.loc 1 562 0
 1872 000c D0F8EC30 		ldr	r3, [r0, #236]
 1873 0010 23B1     		cbz	r3, .L159
 563:Middlewares/Third_Party/LibJPEG/source/jcarith.c ****       emit_restart(cinfo, entropy->next_restart_num);
 1874              		.loc 1 563 0
 1875 0012 736C     		ldr	r3, [r6, #68]
 1876 0014 3BB1     		cbz	r3, .L164
 1877              	.LVL255:
 1878              	.L160:
 569:Middlewares/Third_Party/LibJPEG/source/jcarith.c ****   }
 1879              		.loc 1 569 0
 1880 0016 736C     		ldr	r3, [r6, #68]
 1881 0018 013B     		subs	r3, r3, #1
 1882 001a 7364     		str	r3, [r6, #68]
 1883              	.L159:
 572:Middlewares/Third_Party/LibJPEG/source/jcarith.c ****   Al = cinfo->Al;
 1884              		.loc 1 572 0
 1885 001c CC36     		adds	r6, r6, #204
 1886              	.LVL256:
 573:Middlewares/Third_Party/LibJPEG/source/jcarith.c **** 
 1887              		.loc 1 573 0
 1888 001e D5F87471 		ldr	r7, [r5, #372]
 1889              	.LVL257:
 576:Middlewares/Third_Party/LibJPEG/source/jcarith.c ****     /* We simply emit the Al'th bit of the DC coefficient value. */
 1890              		.loc 1 576 0
 1891 0022 0024     		movs	r4, #0
 1892 0024 17E0     		b	.L161
 1893              	.LVL258:
 1894              	.L164:
 564:Middlewares/Third_Party/LibJPEG/source/jcarith.c ****       entropy->restarts_to_go = cinfo->restart_interval;
 1895              		.loc 1 564 0
 1896 0026 B16C     		ldr	r1, [r6, #72]
ARM GAS  /tmp/ccQmBmhQ.s 			page 54


 1897              	.LVL259:
 1898 0028 FFF7FEFF 		bl	emit_restart
 1899              	.LVL260:
 565:Middlewares/Third_Party/LibJPEG/source/jcarith.c ****       entropy->next_restart_num++;
 1900              		.loc 1 565 0
 1901 002c D5F8EC30 		ldr	r3, [r5, #236]
 1902 0030 7364     		str	r3, [r6, #68]
 566:Middlewares/Third_Party/LibJPEG/source/jcarith.c ****       entropy->next_restart_num &= 7;
 1903              		.loc 1 566 0
 1904 0032 B36C     		ldr	r3, [r6, #72]
 1905 0034 0133     		adds	r3, r3, #1
 567:Middlewares/Third_Party/LibJPEG/source/jcarith.c ****     }
 1906              		.loc 1 567 0
 1907 0036 03F00703 		and	r3, r3, #7
 1908 003a B364     		str	r3, [r6, #72]
 1909 003c EBE7     		b	.L160
 1910              	.LVL261:
 1911              	.L162:
 578:Middlewares/Third_Party/LibJPEG/source/jcarith.c ****   }
 1912              		.loc 1 578 0 discriminator 3
 1913 003e 58F82430 		ldr	r3, [r8, r4, lsl #2]
 1914 0042 B3F90020 		ldrsh	r2, [r3]
 1915 0046 3A41     		asrs	r2, r2, r7
 1916 0048 02F00102 		and	r2, r2, #1
 1917 004c 3146     		mov	r1, r6
 1918 004e 2846     		mov	r0, r5
 1919 0050 FFF7FEFF 		bl	arith_encode
 1920              	.LVL262:
 576:Middlewares/Third_Party/LibJPEG/source/jcarith.c ****     /* We simply emit the Al'th bit of the DC coefficient value. */
 1921              		.loc 1 576 0 discriminator 3
 1922 0054 0134     		adds	r4, r4, #1
 1923              	.LVL263:
 1924              	.L161:
 576:Middlewares/Third_Party/LibJPEG/source/jcarith.c ****     /* We simply emit the Al'th bit of the DC coefficient value. */
 1925              		.loc 1 576 0 is_stmt 0 discriminator 1
 1926 0056 D5F83C31 		ldr	r3, [r5, #316]
 1927 005a A342     		cmp	r3, r4
 1928 005c EFDC     		bgt	.L162
 582:Middlewares/Third_Party/LibJPEG/source/jcarith.c **** 
 1929              		.loc 1 582 0 is_stmt 1
 1930 005e 0120     		movs	r0, #1
 1931 0060 BDE8F081 		pop	{r4, r5, r6, r7, r8, pc}
 1932              		.cfi_endproc
 1933              	.LFE9:
 1935              		.section	.text.encode_mcu_AC_first,"ax",%progbits
 1936              		.align	1
 1937              		.syntax unified
 1938              		.thumb
 1939              		.thumb_func
 1940              		.fpu fpv5-sp-d16
 1942              	encode_mcu_AC_first:
 1943              	.LFB8:
 454:Middlewares/Third_Party/LibJPEG/source/jcarith.c ****   arith_entropy_ptr entropy = (arith_entropy_ptr) cinfo->entropy;
 1944              		.loc 1 454 0
 1945              		.cfi_startproc
 1946              		@ args = 0, pretend = 0, frame = 24
 1947              		@ frame_needed = 0, uses_anonymous_args = 0
ARM GAS  /tmp/ccQmBmhQ.s 			page 55


 1948              	.LVL264:
 1949 0000 2DE9F04F 		push	{r4, r5, r6, r7, r8, r9, r10, fp, lr}
 1950              	.LCFI13:
 1951              		.cfi_def_cfa_offset 36
 1952              		.cfi_offset 4, -36
 1953              		.cfi_offset 5, -32
 1954              		.cfi_offset 6, -28
 1955              		.cfi_offset 7, -24
 1956              		.cfi_offset 8, -20
 1957              		.cfi_offset 9, -16
 1958              		.cfi_offset 10, -12
 1959              		.cfi_offset 11, -8
 1960              		.cfi_offset 14, -4
 1961 0004 87B0     		sub	sp, sp, #28
 1962              	.LCFI14:
 1963              		.cfi_def_cfa_offset 64
 1964 0006 0746     		mov	r7, r0
 1965 0008 0C46     		mov	r4, r1
 455:Middlewares/Third_Party/LibJPEG/source/jcarith.c ****   JBLOCKROW block;
 1966              		.loc 1 455 0
 1967 000a D0F8A431 		ldr	r3, [r0, #420]
 1968 000e 1A46     		mov	r2, r3
 1969 0010 0393     		str	r3, [sp, #12]
 1970              	.LVL265:
 463:Middlewares/Third_Party/LibJPEG/source/jcarith.c ****     if (entropy->restarts_to_go == 0) {
 1971              		.loc 1 463 0
 1972 0012 D0F8EC30 		ldr	r3, [r0, #236]
 1973 0016 2BB1     		cbz	r3, .L166
 464:Middlewares/Third_Party/LibJPEG/source/jcarith.c ****       emit_restart(cinfo, entropy->next_restart_num);
 1974              		.loc 1 464 0
 1975 0018 536C     		ldr	r3, [r2, #68]
 1976 001a 73B1     		cbz	r3, .L191
 1977              	.LVL266:
 1978              	.L167:
 470:Middlewares/Third_Party/LibJPEG/source/jcarith.c ****   }
 1979              		.loc 1 470 0
 1980 001c 039A     		ldr	r2, [sp, #12]
 1981 001e 536C     		ldr	r3, [r2, #68]
 1982 0020 013B     		subs	r3, r3, #1
 1983 0022 5364     		str	r3, [r2, #68]
 1984              	.L166:
 473:Middlewares/Third_Party/LibJPEG/source/jcarith.c **** 
 1985              		.loc 1 473 0
 1986 0024 D7F87C91 		ldr	r9, [r7, #380]
 1987              	.LVL267:
 476:Middlewares/Third_Party/LibJPEG/source/jcarith.c ****   tbl = cinfo->cur_comp_info[0]->ac_tbl_no;
 1988              		.loc 1 476 0
 1989 0028 D4F800A0 		ldr	r10, [r4]
 1990              	.LVL268:
 477:Middlewares/Third_Party/LibJPEG/source/jcarith.c **** 
 1991              		.loc 1 477 0
 1992 002c D7F82431 		ldr	r3, [r7, #292]
 1993 0030 9B69     		ldr	r3, [r3, #24]
 1994 0032 0293     		str	r3, [sp, #8]
 1995              	.LVL269:
 482:Middlewares/Third_Party/LibJPEG/source/jcarith.c ****     /* We must apply the point transform by Al.  For AC coefficients this
 1996              		.loc 1 482 0
ARM GAS  /tmp/ccQmBmhQ.s 			page 56


 1997 0034 D7F86CB1 		ldr	fp, [r7, #364]
 1998              	.LVL270:
 1999 0038 13E0     		b	.L168
 2000              	.LVL271:
 2001              	.L191:
 465:Middlewares/Third_Party/LibJPEG/source/jcarith.c ****       entropy->restarts_to_go = cinfo->restart_interval;
 2002              		.loc 1 465 0
 2003 003a 1546     		mov	r5, r2
 2004 003c 916C     		ldr	r1, [r2, #72]
 2005              	.LVL272:
 2006 003e FFF7FEFF 		bl	emit_restart
 2007              	.LVL273:
 466:Middlewares/Third_Party/LibJPEG/source/jcarith.c ****       entropy->next_restart_num++;
 2008              		.loc 1 466 0
 2009 0042 D7F8EC30 		ldr	r3, [r7, #236]
 2010 0046 6B64     		str	r3, [r5, #68]
 467:Middlewares/Third_Party/LibJPEG/source/jcarith.c ****       entropy->next_restart_num &= 7;
 2011              		.loc 1 467 0
 2012 0048 AB6C     		ldr	r3, [r5, #72]
 2013 004a 0133     		adds	r3, r3, #1
 468:Middlewares/Third_Party/LibJPEG/source/jcarith.c ****     }
 2014              		.loc 1 468 0
 2015 004c 03F00703 		and	r3, r3, #7
 2016 0050 AB64     		str	r3, [r5, #72]
 2017 0052 E3E7     		b	.L167
 2018              	.LVL274:
 2019              	.L169:
 490:Middlewares/Third_Party/LibJPEG/source/jcarith.c ****       if (v >>= cinfo->Al) break;
 2020              		.loc 1 490 0
 2021 0054 5B42     		negs	r3, r3
 2022              	.LVL275:
 491:Middlewares/Third_Party/LibJPEG/source/jcarith.c ****     }
 2023              		.loc 1 491 0
 2024 0056 D7F87421 		ldr	r2, [r7, #372]
 2025              	.LVL276:
 2026 005a 1341     		asrs	r3, r3, r2
 2027              	.LVL277:
 2028 005c 0ED1     		bne	.L170
 2029              	.LVL278:
 2030              	.L171:
 482:Middlewares/Third_Party/LibJPEG/source/jcarith.c ****     /* We must apply the point transform by Al.  For AC coefficients this
 2031              		.loc 1 482 0 discriminator 2
 2032 005e 0BF1FF3B 		add	fp, fp, #-1
 2033              	.LVL279:
 2034              	.L168:
 482:Middlewares/Third_Party/LibJPEG/source/jcarith.c ****     /* We must apply the point transform by Al.  For AC coefficients this
 2035              		.loc 1 482 0 is_stmt 0 discriminator 1
 2036 0062 BBF1000F 		cmp	fp, #0
 2037 0066 09DD     		ble	.L170
 487:Middlewares/Third_Party/LibJPEG/source/jcarith.c ****       if (v >>= cinfo->Al) break;
 2038              		.loc 1 487 0 is_stmt 1
 2039 0068 59F82B30 		ldr	r3, [r9, fp, lsl #2]
 2040 006c 3AF91330 		ldrsh	r3, [r10, r3, lsl #1]
 2041              	.LVL280:
 2042 0070 002B     		cmp	r3, #0
 2043 0072 EFDB     		blt	.L169
 488:Middlewares/Third_Party/LibJPEG/source/jcarith.c ****     } else {
ARM GAS  /tmp/ccQmBmhQ.s 			page 57


 2044              		.loc 1 488 0
 2045 0074 D7F87421 		ldr	r2, [r7, #372]
 2046              	.LVL281:
 2047 0078 1341     		asrs	r3, r3, r2
 2048              	.LVL282:
 2049 007a F0D0     		beq	.L171
 2050              	.LVL283:
 2051              	.L170:
 495:Middlewares/Third_Party/LibJPEG/source/jcarith.c ****     st = entropy->ac_stats[tbl] + 3 * (k - 1);
 2052              		.loc 1 495 0
 2053 007c D7F86861 		ldr	r6, [r7, #360]
 2054              	.LVL284:
 2055 0080 CDF804B0 		str	fp, [sp, #4]
 2056 0084 DDF80CB0 		ldr	fp, [sp, #12]
 2057              	.LVL285:
 2058 0088 76E0     		b	.L173
 2059              	.LVL286:
 2060              	.L174:
 506:Middlewares/Third_Party/LibJPEG/source/jcarith.c **** 	if (v >>= cinfo->Al) {
 2061              		.loc 1 506 0
 2062 008a 5B42     		negs	r3, r3
 2063              	.LVL287:
 507:Middlewares/Third_Party/LibJPEG/source/jcarith.c **** 	  arith_encode(cinfo, st + 1, 1);
 2064              		.loc 1 507 0
 2065 008c D7F87421 		ldr	r2, [r7, #372]
 2066              	.LVL288:
 2067 0090 1341     		asrs	r3, r3, r2
 2068              	.LVL289:
 2069 0092 27D1     		bne	.L192
 2070              	.LVL290:
 2071              	.L175:
 513:Middlewares/Third_Party/LibJPEG/source/jcarith.c ****     }
 2072              		.loc 1 513 0
 2073 0094 0022     		movs	r2, #0
 2074 0096 691C     		adds	r1, r5, #1
 2075 0098 3846     		mov	r0, r7
 2076 009a FFF7FEFF 		bl	arith_encode
 2077              	.LVL291:
 2078 009e 0335     		adds	r5, r5, #3
 2079              	.LVL292:
 2080 00a0 0136     		adds	r6, r6, #1
 2081              	.LVL293:
 2082              	.L177:
 499:Middlewares/Third_Party/LibJPEG/source/jcarith.c **** 	if (v >>= cinfo->Al) {
 2083              		.loc 1 499 0
 2084 00a2 59F82630 		ldr	r3, [r9, r6, lsl #2]
 2085 00a6 3AF91330 		ldrsh	r3, [r10, r3, lsl #1]
 2086              	.LVL294:
 2087 00aa 002B     		cmp	r3, #0
 2088 00ac EDDB     		blt	.L174
 500:Middlewares/Third_Party/LibJPEG/source/jcarith.c **** 	  arith_encode(cinfo, st + 1, 1);
 2089              		.loc 1 500 0
 2090 00ae D7F87421 		ldr	r2, [r7, #372]
 2091              	.LVL295:
 2092 00b2 1341     		asrs	r3, r3, r2
 2093              	.LVL296:
 2094 00b4 EED0     		beq	.L175
ARM GAS  /tmp/ccQmBmhQ.s 			page 58


 2095 00b6 1C46     		mov	r4, r3
 501:Middlewares/Third_Party/LibJPEG/source/jcarith.c **** 	  arith_encode(cinfo, entropy->fixed_bin, 0);
 2096              		.loc 1 501 0
 2097 00b8 0122     		movs	r2, #1
 2098 00ba A918     		adds	r1, r5, r2
 2099 00bc 3846     		mov	r0, r7
 2100 00be FFF7FEFF 		bl	arith_encode
 2101              	.LVL297:
 502:Middlewares/Third_Party/LibJPEG/source/jcarith.c **** 	  break;
 2102              		.loc 1 502 0
 2103 00c2 0022     		movs	r2, #0
 2104 00c4 0BF1CC01 		add	r1, fp, #204
 2105 00c8 3846     		mov	r0, r7
 2106 00ca FFF7FEFF 		bl	arith_encode
 2107              	.LVL298:
 2108              	.L176:
 515:Middlewares/Third_Party/LibJPEG/source/jcarith.c ****     /* Figure F.8: Encoding the magnitude category of v */
 2109              		.loc 1 515 0
 2110 00ce 0235     		adds	r5, r5, #2
 2111              	.LVL299:
 518:Middlewares/Third_Party/LibJPEG/source/jcarith.c ****       arith_encode(cinfo, st, 1);
 2112              		.loc 1 518 0
 2113 00d0 013C     		subs	r4, r4, #1
 2114              	.LVL300:
 2115 00d2 14D1     		bne	.L193
 517:Middlewares/Third_Party/LibJPEG/source/jcarith.c ****     if (v -= 1) {
 2116              		.loc 1 517 0
 2117 00d4 A046     		mov	r8, r4
 2118              	.LVL301:
 2119              	.L178:
 534:Middlewares/Third_Party/LibJPEG/source/jcarith.c ****     /* Figure F.9: Encoding the magnitude bit pattern of v */
 2120              		.loc 1 534 0
 2121 00d6 0022     		movs	r2, #0
 2122 00d8 2946     		mov	r1, r5
 2123 00da 3846     		mov	r0, r7
 2124 00dc FFF7FEFF 		bl	arith_encode
 2125              	.LVL302:
 536:Middlewares/Third_Party/LibJPEG/source/jcarith.c ****     while (m >>= 1)
 2126              		.loc 1 536 0
 2127 00e0 0E35     		adds	r5, r5, #14
 2128              	.LVL303:
 537:Middlewares/Third_Party/LibJPEG/source/jcarith.c ****       arith_encode(cinfo, st, (m & v) ? 1 : 0);
 2129              		.loc 1 537 0
 2130 00e2 45E0     		b	.L182
 2131              	.LVL304:
 2132              	.L192:
 2133 00e4 1C46     		mov	r4, r3
 508:Middlewares/Third_Party/LibJPEG/source/jcarith.c **** 	  arith_encode(cinfo, entropy->fixed_bin, 1);
 2134              		.loc 1 508 0
 2135 00e6 0122     		movs	r2, #1
 2136 00e8 A918     		adds	r1, r5, r2
 2137 00ea 3846     		mov	r0, r7
 2138 00ec FFF7FEFF 		bl	arith_encode
 2139              	.LVL305:
 509:Middlewares/Third_Party/LibJPEG/source/jcarith.c **** 	  break;
 2140              		.loc 1 509 0
 2141 00f0 0122     		movs	r2, #1
ARM GAS  /tmp/ccQmBmhQ.s 			page 59


 2142 00f2 0BF1CC01 		add	r1, fp, #204
 2143 00f6 3846     		mov	r0, r7
 2144 00f8 FFF7FEFF 		bl	arith_encode
 2145              	.LVL306:
 510:Middlewares/Third_Party/LibJPEG/source/jcarith.c **** 	}
 2146              		.loc 1 510 0
 2147 00fc E7E7     		b	.L176
 2148              	.LVL307:
 2149              	.L193:
 519:Middlewares/Third_Party/LibJPEG/source/jcarith.c ****       m = 1;
 2150              		.loc 1 519 0
 2151 00fe 0122     		movs	r2, #1
 2152 0100 2946     		mov	r1, r5
 2153 0102 3846     		mov	r0, r7
 2154 0104 FFF7FEFF 		bl	arith_encode
 2155              	.LVL308:
 522:Middlewares/Third_Party/LibJPEG/source/jcarith.c **** 	arith_encode(cinfo, st, 1);
 2156              		.loc 1 522 0
 2157 0108 6310     		asrs	r3, r4, #1
 2158              	.LVL309:
 2159 010a 0493     		str	r3, [sp, #16]
 2160 010c 02D1     		bne	.L194
 520:Middlewares/Third_Party/LibJPEG/source/jcarith.c ****       v2 = v;
 2161              		.loc 1 520 0
 2162 010e 4FF00108 		mov	r8, #1
 2163 0112 E0E7     		b	.L178
 2164              	.L194:
 523:Middlewares/Third_Party/LibJPEG/source/jcarith.c **** 	m <<= 1;
 2165              		.loc 1 523 0
 2166 0114 0122     		movs	r2, #1
 2167 0116 2946     		mov	r1, r5
 2168 0118 3846     		mov	r0, r7
 2169 011a FFF7FEFF 		bl	arith_encode
 2170              	.LVL310:
 525:Middlewares/Third_Party/LibJPEG/source/jcarith.c **** 	     (k <= cinfo->arith_ac_K[tbl] ? 189 : 217);
 2171              		.loc 1 525 0
 2172 011e 029A     		ldr	r2, [sp, #8]
 2173 0120 1346     		mov	r3, r2
 2174 0122 2233     		adds	r3, r3, #34
 2175 0124 0BEB8303 		add	r3, fp, r3, lsl #2
 2176 0128 5D68     		ldr	r5, [r3, #4]
 2177              	.LVL311:
 526:Middlewares/Third_Party/LibJPEG/source/jcarith.c **** 	while (v2 >>= 1) {
 2178              		.loc 1 526 0
 2179 012a BB18     		adds	r3, r7, r2
 2180 012c 93F8B830 		ldrb	r3, [r3, #184]	@ zero_extendqisi2
 2181 0130 B342     		cmp	r3, r6
 2182 0132 06DB     		blt	.L188
 2183 0134 BD23     		movs	r3, #189
 2184              	.L179:
 525:Middlewares/Third_Party/LibJPEG/source/jcarith.c **** 	     (k <= cinfo->arith_ac_K[tbl] ? 189 : 217);
 2185              		.loc 1 525 0
 2186 0136 1D44     		add	r5, r5, r3
 2187              	.LVL312:
 524:Middlewares/Third_Party/LibJPEG/source/jcarith.c **** 	st = entropy->ac_stats[tbl] +
 2188              		.loc 1 524 0
 2189 0138 4FF00208 		mov	r8, #2
ARM GAS  /tmp/ccQmBmhQ.s 			page 60


 2190 013c 0596     		str	r6, [sp, #20]
 2191 013e 049E     		ldr	r6, [sp, #16]
 2192              	.LVL313:
 527:Middlewares/Third_Party/LibJPEG/source/jcarith.c **** 	  arith_encode(cinfo, st, 1);
 2193              		.loc 1 527 0
 2194 0140 09E0     		b	.L180
 2195              	.LVL314:
 2196              	.L188:
 526:Middlewares/Third_Party/LibJPEG/source/jcarith.c **** 	while (v2 >>= 1) {
 2197              		.loc 1 526 0
 2198 0142 D923     		movs	r3, #217
 2199 0144 F7E7     		b	.L179
 2200              	.LVL315:
 2201              	.L181:
 528:Middlewares/Third_Party/LibJPEG/source/jcarith.c **** 	  m <<= 1;
 2202              		.loc 1 528 0
 2203 0146 0122     		movs	r2, #1
 2204 0148 2946     		mov	r1, r5
 2205 014a 3846     		mov	r0, r7
 2206 014c FFF7FEFF 		bl	arith_encode
 2207              	.LVL316:
 529:Middlewares/Third_Party/LibJPEG/source/jcarith.c **** 	  st += 1;
 2208              		.loc 1 529 0
 2209 0150 4FEA4808 		lsl	r8, r8, #1
 2210              	.LVL317:
 530:Middlewares/Third_Party/LibJPEG/source/jcarith.c **** 	}
 2211              		.loc 1 530 0
 2212 0154 0135     		adds	r5, r5, #1
 2213              	.LVL318:
 2214              	.L180:
 527:Middlewares/Third_Party/LibJPEG/source/jcarith.c **** 	  arith_encode(cinfo, st, 1);
 2215              		.loc 1 527 0
 2216 0156 7610     		asrs	r6, r6, #1
 2217              	.LVL319:
 2218 0158 F5D1     		bne	.L181
 2219 015a 059E     		ldr	r6, [sp, #20]
 2220              	.LVL320:
 2221 015c BBE7     		b	.L178
 2222              	.LVL321:
 2223              	.L183:
 538:Middlewares/Third_Party/LibJPEG/source/jcarith.c ****   }
 2224              		.loc 1 538 0
 2225 015e 14EA080F 		tst	r4, r8
 2226 0162 14BF     		ite	ne
 2227 0164 0122     		movne	r2, #1
 2228 0166 0022     		moveq	r2, #0
 2229 0168 2946     		mov	r1, r5
 2230 016a 3846     		mov	r0, r7
 2231 016c FFF7FEFF 		bl	arith_encode
 2232              	.LVL322:
 2233              	.L182:
 537:Middlewares/Third_Party/LibJPEG/source/jcarith.c ****       arith_encode(cinfo, st, (m & v) ? 1 : 0);
 2234              		.loc 1 537 0
 2235 0170 5FEA6808 		asrs	r8, r8, #1
 2236              	.LVL323:
 2237 0174 F3D1     		bne	.L183
 495:Middlewares/Third_Party/LibJPEG/source/jcarith.c ****     st = entropy->ac_stats[tbl] + 3 * (k - 1);
ARM GAS  /tmp/ccQmBmhQ.s 			page 61


 2238              		.loc 1 495 0 discriminator 2
 2239 0176 0136     		adds	r6, r6, #1
 2240              	.LVL324:
 2241              	.L173:
 495:Middlewares/Third_Party/LibJPEG/source/jcarith.c ****     st = entropy->ac_stats[tbl] + 3 * (k - 1);
 2242              		.loc 1 495 0 is_stmt 0 discriminator 1
 2243 0178 019B     		ldr	r3, [sp, #4]
 2244 017a 9E42     		cmp	r6, r3
 2245 017c 0EDC     		bgt	.L195
 496:Middlewares/Third_Party/LibJPEG/source/jcarith.c ****     arith_encode(cinfo, st, 0);		/* EOB decision */
 2246              		.loc 1 496 0 is_stmt 1
 2247 017e 029B     		ldr	r3, [sp, #8]
 2248 0180 2233     		adds	r3, r3, #34
 2249 0182 0BEB8303 		add	r3, fp, r3, lsl #2
 2250 0186 5D68     		ldr	r5, [r3, #4]
 2251 0188 731E     		subs	r3, r6, #1
 2252 018a 03EB4303 		add	r3, r3, r3, lsl #1
 2253 018e 1D44     		add	r5, r5, r3
 2254              	.LVL325:
 497:Middlewares/Third_Party/LibJPEG/source/jcarith.c ****     for (;;) {
 2255              		.loc 1 497 0
 2256 0190 0022     		movs	r2, #0
 2257 0192 2946     		mov	r1, r5
 2258 0194 3846     		mov	r0, r7
 2259 0196 FFF7FEFF 		bl	arith_encode
 2260              	.LVL326:
 2261 019a 82E7     		b	.L177
 2262              	.LVL327:
 2263              	.L195:
 541:Middlewares/Third_Party/LibJPEG/source/jcarith.c ****     st = entropy->ac_stats[tbl] + 3 * (k - 1);
 2264              		.loc 1 541 0
 2265 019c D7F86C31 		ldr	r3, [r7, #364]
 2266 01a0 B342     		cmp	r3, r6
 2267 01a2 03DA     		bge	.L196
 2268              	.LVL328:
 2269              	.L185:
 547:Middlewares/Third_Party/LibJPEG/source/jcarith.c **** 
 2270              		.loc 1 547 0
 2271 01a4 0120     		movs	r0, #1
 2272 01a6 07B0     		add	sp, sp, #28
 2273              	.LCFI15:
 2274              		.cfi_remember_state
 2275              		.cfi_def_cfa_offset 36
 2276              		@ sp needed
 2277 01a8 BDE8F08F 		pop	{r4, r5, r6, r7, r8, r9, r10, fp, pc}
 2278              	.LVL329:
 2279              	.L196:
 2280              	.LCFI16:
 2281              		.cfi_restore_state
 542:Middlewares/Third_Party/LibJPEG/source/jcarith.c ****     arith_encode(cinfo, st, 1);
 2282              		.loc 1 542 0
 2283 01ac 029B     		ldr	r3, [sp, #8]
 2284 01ae 2233     		adds	r3, r3, #34
 2285 01b0 039A     		ldr	r2, [sp, #12]
 2286 01b2 02EB8303 		add	r3, r2, r3, lsl #2
 2287 01b6 5968     		ldr	r1, [r3, #4]
 2288 01b8 013E     		subs	r6, r6, #1
ARM GAS  /tmp/ccQmBmhQ.s 			page 62


 2289              	.LVL330:
 2290 01ba 06EB4606 		add	r6, r6, r6, lsl #1
 2291              	.LVL331:
 543:Middlewares/Third_Party/LibJPEG/source/jcarith.c ****   }
 2292              		.loc 1 543 0
 2293 01be 0122     		movs	r2, #1
 2294 01c0 3144     		add	r1, r1, r6
 2295              	.LVL332:
 2296 01c2 3846     		mov	r0, r7
 2297 01c4 FFF7FEFF 		bl	arith_encode
 2298              	.LVL333:
 2299 01c8 ECE7     		b	.L185
 2300              		.cfi_endproc
 2301              	.LFE8:
 2303              		.section	.text.encode_mcu_DC_first,"ax",%progbits
 2304              		.align	1
 2305              		.syntax unified
 2306              		.thumb
 2307              		.thumb_func
 2308              		.fpu fpv5-sp-d16
 2310              	encode_mcu_DC_first:
 2311              	.LFB7:
 363:Middlewares/Third_Party/LibJPEG/source/jcarith.c ****   arith_entropy_ptr entropy = (arith_entropy_ptr) cinfo->entropy;
 2312              		.loc 1 363 0
 2313              		.cfi_startproc
 2314              		@ args = 0, pretend = 0, frame = 8
 2315              		@ frame_needed = 0, uses_anonymous_args = 0
 2316              	.LVL334:
 2317 0000 2DE9F04F 		push	{r4, r5, r6, r7, r8, r9, r10, fp, lr}
 2318              	.LCFI17:
 2319              		.cfi_def_cfa_offset 36
 2320              		.cfi_offset 4, -36
 2321              		.cfi_offset 5, -32
 2322              		.cfi_offset 6, -28
 2323              		.cfi_offset 7, -24
 2324              		.cfi_offset 8, -20
 2325              		.cfi_offset 9, -16
 2326              		.cfi_offset 10, -12
 2327              		.cfi_offset 11, -8
 2328              		.cfi_offset 14, -4
 2329 0004 83B0     		sub	sp, sp, #12
 2330              	.LCFI18:
 2331              		.cfi_def_cfa_offset 48
 2332 0006 0746     		mov	r7, r0
 2333 0008 0091     		str	r1, [sp]
 364:Middlewares/Third_Party/LibJPEG/source/jcarith.c ****   JBLOCKROW block;
 2334              		.loc 1 364 0
 2335 000a D0F8A4A1 		ldr	r10, [r0, #420]
 2336              	.LVL335:
 372:Middlewares/Third_Party/LibJPEG/source/jcarith.c ****     if (entropy->restarts_to_go == 0) {
 2337              		.loc 1 372 0
 2338 000e D0F8EC30 		ldr	r3, [r0, #236]
 2339 0012 3BB1     		cbz	r3, .L198
 373:Middlewares/Third_Party/LibJPEG/source/jcarith.c ****       emit_restart(cinfo, entropy->next_restart_num);
 2340              		.loc 1 373 0
 2341 0014 DAF84430 		ldr	r3, [r10, #68]
 2342 0018 3BB1     		cbz	r3, .L215
ARM GAS  /tmp/ccQmBmhQ.s 			page 63


 2343              	.LVL336:
 2344              	.L199:
 379:Middlewares/Third_Party/LibJPEG/source/jcarith.c ****   }
 2345              		.loc 1 379 0
 2346 001a DAF84430 		ldr	r3, [r10, #68]
 2347 001e 013B     		subs	r3, r3, #1
 2348 0020 CAF84430 		str	r3, [r10, #68]
 2349              	.L198:
 418:Middlewares/Third_Party/LibJPEG/source/jcarith.c ****       if (v -= 1) {
 2350              		.loc 1 418 0 discriminator 1
 2351 0024 4FF00009 		mov	r9, #0
 2352 0028 89E0     		b	.L200
 2353              	.LVL337:
 2354              	.L215:
 374:Middlewares/Third_Party/LibJPEG/source/jcarith.c ****       entropy->restarts_to_go = cinfo->restart_interval;
 2355              		.loc 1 374 0
 2356 002a DAF84810 		ldr	r1, [r10, #72]
 2357              	.LVL338:
 2358 002e FFF7FEFF 		bl	emit_restart
 2359              	.LVL339:
 375:Middlewares/Third_Party/LibJPEG/source/jcarith.c ****       entropy->next_restart_num++;
 2360              		.loc 1 375 0
 2361 0032 D7F8EC30 		ldr	r3, [r7, #236]
 2362 0036 CAF84430 		str	r3, [r10, #68]
 376:Middlewares/Third_Party/LibJPEG/source/jcarith.c ****       entropy->next_restart_num &= 7;
 2363              		.loc 1 376 0
 2364 003a DAF84830 		ldr	r3, [r10, #72]
 2365 003e 0133     		adds	r3, r3, #1
 377:Middlewares/Third_Party/LibJPEG/source/jcarith.c ****     }
 2366              		.loc 1 377 0
 2367 0040 03F00703 		and	r3, r3, #7
 2368 0044 CAF84830 		str	r3, [r10, #72]
 2369 0048 E7E7     		b	.L199
 2370              	.LVL340:
 2371              	.L201:
 403:Middlewares/Third_Party/LibJPEG/source/jcarith.c ****       arith_encode(cinfo, st, 1);
 2372              		.loc 1 403 0
 2373 004a 06F10802 		add	r2, r6, #8
 2374 004e 0AEB8202 		add	r2, r10, r2, lsl #2
 2375 0052 5360     		str	r3, [r2, #4]
 2376              	.LVL341:
 404:Middlewares/Third_Party/LibJPEG/source/jcarith.c ****       /* Figure F.6: Encoding nonzero value v */
 2377              		.loc 1 404 0
 2378 0054 0122     		movs	r2, #1
 2379 0056 2946     		mov	r1, r5
 2380 0058 3846     		mov	r0, r7
 2381 005a FFF7FEFF 		bl	arith_encode
 2382              	.LVL342:
 407:Middlewares/Third_Party/LibJPEG/source/jcarith.c **** 	arith_encode(cinfo, st + 1, 0);	/* Table F.4: SS = S0 + 1 */
 2383              		.loc 1 407 0
 2384 005e B8F1000F 		cmp	r8, #0
 2385 0062 24DD     		ble	.L203
 408:Middlewares/Third_Party/LibJPEG/source/jcarith.c **** 	st += 2;			/* Table F.4: SP = S0 + 2 */
 2386              		.loc 1 408 0
 2387 0064 0022     		movs	r2, #0
 2388 0066 691C     		adds	r1, r5, #1
 2389 0068 3846     		mov	r0, r7
ARM GAS  /tmp/ccQmBmhQ.s 			page 64


 2390 006a FFF7FEFF 		bl	arith_encode
 2391              	.LVL343:
 409:Middlewares/Third_Party/LibJPEG/source/jcarith.c **** 	entropy->dc_context[ci] = 4;	/* small positive diff category */
 2392              		.loc 1 409 0
 2393 006e 0235     		adds	r5, r5, #2
 2394              	.LVL344:
 410:Middlewares/Third_Party/LibJPEG/source/jcarith.c ****       } else {
 2395              		.loc 1 410 0
 2396 0070 06F10C03 		add	r3, r6, #12
 2397 0074 0AEB8303 		add	r3, r10, r3, lsl #2
 2398 0078 0422     		movs	r2, #4
 2399 007a 5A60     		str	r2, [r3, #4]
 2400              	.LVL345:
 2401              	.L204:
 419:Middlewares/Third_Party/LibJPEG/source/jcarith.c **** 	arith_encode(cinfo, st, 1);
 2402              		.loc 1 419 0
 2403 007c B8F10108 		subs	r8, r8, #1
 2404              	.LVL346:
 2405 0080 24D1     		bne	.L216
 418:Middlewares/Third_Party/LibJPEG/source/jcarith.c ****       if (v -= 1) {
 2406              		.loc 1 418 0
 2407 0082 4446     		mov	r4, r8
 2408              	.LVL347:
 2409              	.L205:
 430:Middlewares/Third_Party/LibJPEG/source/jcarith.c ****       /* Section F.1.4.4.1.2: Establish dc_context conditioning category */
 2410              		.loc 1 430 0
 2411 0084 0022     		movs	r2, #0
 2412 0086 2946     		mov	r1, r5
 2413 0088 3846     		mov	r0, r7
 2414 008a FFF7FEFF 		bl	arith_encode
 2415              	.LVL348:
 432:Middlewares/Third_Party/LibJPEG/source/jcarith.c **** 	entropy->dc_context[ci] = 0;	/* zero diff category */
 2416              		.loc 1 432 0
 2417 008e 07EB0B03 		add	r3, r7, fp
 2418 0092 93F89820 		ldrb	r2, [r3, #152]	@ zero_extendqisi2
 2419 0096 0123     		movs	r3, #1
 2420 0098 9340     		lsls	r3, r3, r2
 2421 009a B4EB630F 		cmp	r4, r3, asr #1
 2422 009e 32DA     		bge	.L208
 433:Middlewares/Third_Party/LibJPEG/source/jcarith.c ****       else if (m > (int) ((1L << cinfo->arith_dc_U[tbl]) >> 1))
 2423              		.loc 1 433 0
 2424 00a0 0C36     		adds	r6, r6, #12
 2425              	.LVL349:
 2426 00a2 0AEB8606 		add	r6, r10, r6, lsl #2
 2427              	.LVL350:
 2428 00a6 0023     		movs	r3, #0
 2429 00a8 7360     		str	r3, [r6, #4]
 2430              	.LVL351:
 2431              	.L209:
 437:Middlewares/Third_Party/LibJPEG/source/jcarith.c ****       while (m >>= 1)
 2432              		.loc 1 437 0
 2433 00aa 0E35     		adds	r5, r5, #14
 2434              	.LVL352:
 438:Middlewares/Third_Party/LibJPEG/source/jcarith.c **** 	arith_encode(cinfo, st, (m & v) ? 1 : 0);
 2435              		.loc 1 438 0
 2436 00ac 43E0     		b	.L210
 2437              	.LVL353:
ARM GAS  /tmp/ccQmBmhQ.s 			page 65


 2438              	.L203:
 412:Middlewares/Third_Party/LibJPEG/source/jcarith.c **** 	arith_encode(cinfo, st + 1, 1);	/* Table F.4: SS = S0 + 1 */
 2439              		.loc 1 412 0
 2440 00ae C8F10008 		rsb	r8, r8, #0
 2441              	.LVL354:
 413:Middlewares/Third_Party/LibJPEG/source/jcarith.c **** 	st += 3;			/* Table F.4: SN = S0 + 3 */
 2442              		.loc 1 413 0
 2443 00b2 0122     		movs	r2, #1
 2444 00b4 A918     		adds	r1, r5, r2
 2445 00b6 3846     		mov	r0, r7
 2446 00b8 FFF7FEFF 		bl	arith_encode
 2447              	.LVL355:
 414:Middlewares/Third_Party/LibJPEG/source/jcarith.c **** 	entropy->dc_context[ci] = 8;	/* small negative diff category */
 2448              		.loc 1 414 0
 2449 00bc 0335     		adds	r5, r5, #3
 2450              	.LVL356:
 415:Middlewares/Third_Party/LibJPEG/source/jcarith.c ****       }
 2451              		.loc 1 415 0
 2452 00be 06F10C03 		add	r3, r6, #12
 2453 00c2 0AEB8303 		add	r3, r10, r3, lsl #2
 2454 00c6 0822     		movs	r2, #8
 2455 00c8 5A60     		str	r2, [r3, #4]
 2456 00ca D7E7     		b	.L204
 2457              	.LVL357:
 2458              	.L216:
 420:Middlewares/Third_Party/LibJPEG/source/jcarith.c **** 	m = 1;
 2459              		.loc 1 420 0
 2460 00cc 0122     		movs	r2, #1
 2461 00ce 2946     		mov	r1, r5
 2462 00d0 3846     		mov	r0, r7
 2463 00d2 FFF7FEFF 		bl	arith_encode
 2464              	.LVL358:
 423:Middlewares/Third_Party/LibJPEG/source/jcarith.c **** 	while (v2 >>= 1) {
 2465              		.loc 1 423 0
 2466 00d6 0BF11203 		add	r3, fp, #18
 2467 00da 0AEB8303 		add	r3, r10, r3, lsl #2
 2468 00de 5D68     		ldr	r5, [r3, #4]
 2469              	.LVL359:
 2470 00e0 1435     		adds	r5, r5, #20
 2471              	.LVL360:
 421:Middlewares/Third_Party/LibJPEG/source/jcarith.c **** 	v2 = v;
 2472              		.loc 1 421 0
 2473 00e2 0124     		movs	r4, #1
 2474 00e4 CDF80490 		str	r9, [sp, #4]
 2475 00e8 C146     		mov	r9, r8
 2476              	.LVL361:
 424:Middlewares/Third_Party/LibJPEG/source/jcarith.c **** 	  arith_encode(cinfo, st, 1);
 2477              		.loc 1 424 0
 2478 00ea 06E0     		b	.L206
 2479              	.LVL362:
 2480              	.L207:
 425:Middlewares/Third_Party/LibJPEG/source/jcarith.c **** 	  m <<= 1;
 2481              		.loc 1 425 0
 2482 00ec 0122     		movs	r2, #1
 2483 00ee 2946     		mov	r1, r5
 2484 00f0 3846     		mov	r0, r7
 2485 00f2 FFF7FEFF 		bl	arith_encode
ARM GAS  /tmp/ccQmBmhQ.s 			page 66


 2486              	.LVL363:
 426:Middlewares/Third_Party/LibJPEG/source/jcarith.c **** 	  st += 1;
 2487              		.loc 1 426 0
 2488 00f6 6400     		lsls	r4, r4, #1
 2489              	.LVL364:
 427:Middlewares/Third_Party/LibJPEG/source/jcarith.c **** 	}
 2490              		.loc 1 427 0
 2491 00f8 0135     		adds	r5, r5, #1
 2492              	.LVL365:
 2493              	.L206:
 424:Middlewares/Third_Party/LibJPEG/source/jcarith.c **** 	  arith_encode(cinfo, st, 1);
 2494              		.loc 1 424 0
 2495 00fa 5FEA6909 		asrs	r9, r9, #1
 2496              	.LVL366:
 2497 00fe F5D1     		bne	.L207
 2498 0100 DDF80490 		ldr	r9, [sp, #4]
 2499              	.LVL367:
 2500 0104 BEE7     		b	.L205
 2501              	.LVL368:
 2502              	.L208:
 434:Middlewares/Third_Party/LibJPEG/source/jcarith.c **** 	entropy->dc_context[ci] += 8;	/* large diff category */
 2503              		.loc 1 434 0
 2504 0106 BB44     		add	fp, fp, r7
 2505              	.LVL369:
 2506 0108 9BF8A820 		ldrb	r2, [fp, #168]	@ zero_extendqisi2
 2507 010c 0123     		movs	r3, #1
 2508 010e 9340     		lsls	r3, r3, r2
 2509 0110 B4EB630F 		cmp	r4, r3, asr #1
 2510 0114 C9DD     		ble	.L209
 435:Middlewares/Third_Party/LibJPEG/source/jcarith.c ****       /* Figure F.9: Encoding the magnitude bit pattern of v */
 2511              		.loc 1 435 0
 2512 0116 0C36     		adds	r6, r6, #12
 2513              	.LVL370:
 2514 0118 0AEB8606 		add	r6, r10, r6, lsl #2
 2515              	.LVL371:
 2516 011c 7368     		ldr	r3, [r6, #4]
 2517 011e 0833     		adds	r3, r3, #8
 2518 0120 7360     		str	r3, [r6, #4]
 2519 0122 C2E7     		b	.L209
 2520              	.L211:
 439:Middlewares/Third_Party/LibJPEG/source/jcarith.c ****     }
 2521              		.loc 1 439 0
 2522 0124 18EA040F 		tst	r8, r4
 2523 0128 14BF     		ite	ne
 2524 012a 0122     		movne	r2, #1
 2525 012c 0022     		moveq	r2, #0
 2526 012e 2946     		mov	r1, r5
 2527 0130 3846     		mov	r0, r7
 2528 0132 FFF7FEFF 		bl	arith_encode
 2529              	.LVL372:
 2530              	.L210:
 438:Middlewares/Third_Party/LibJPEG/source/jcarith.c **** 	arith_encode(cinfo, st, (m & v) ? 1 : 0);
 2531              		.loc 1 438 0
 2532 0136 6410     		asrs	r4, r4, #1
 2533              	.LVL373:
 2534 0138 F4D1     		bne	.L211
 2535              	.LVL374:
ARM GAS  /tmp/ccQmBmhQ.s 			page 67


 2536              	.L202:
 383:Middlewares/Third_Party/LibJPEG/source/jcarith.c ****     block = MCU_data[blkn];
 2537              		.loc 1 383 0 discriminator 2
 2538 013a 09F10109 		add	r9, r9, #1
 2539              	.LVL375:
 2540              	.L200:
 383:Middlewares/Third_Party/LibJPEG/source/jcarith.c ****     block = MCU_data[blkn];
 2541              		.loc 1 383 0 is_stmt 0 discriminator 1
 2542 013e D7F83C31 		ldr	r3, [r7, #316]
 2543 0142 4B45     		cmp	r3, r9
 2544 0144 32DD     		ble	.L217
 384:Middlewares/Third_Party/LibJPEG/source/jcarith.c ****     ci = cinfo->MCU_membership[blkn];
 2545              		.loc 1 384 0 is_stmt 1
 2546 0146 009B     		ldr	r3, [sp]
 2547 0148 53F82920 		ldr	r2, [r3, r9, lsl #2]
 2548              	.LVL376:
 385:Middlewares/Third_Party/LibJPEG/source/jcarith.c ****     tbl = cinfo->cur_comp_info[ci]->dc_tbl_no;
 2549              		.loc 1 385 0
 2550 014c 09F15003 		add	r3, r9, #80
 2551 0150 57F82360 		ldr	r6, [r7, r3, lsl #2]
 2552              	.LVL377:
 386:Middlewares/Third_Party/LibJPEG/source/jcarith.c **** 
 2553              		.loc 1 386 0
 2554 0154 06F14803 		add	r3, r6, #72
 2555 0158 07EB8303 		add	r3, r7, r3, lsl #2
 2556 015c 5B68     		ldr	r3, [r3, #4]
 2557 015e D3F814B0 		ldr	fp, [r3, #20]
 2558              	.LVL378:
 391:Middlewares/Third_Party/LibJPEG/source/jcarith.c **** 
 2559              		.loc 1 391 0
 2560 0162 B2F90020 		ldrsh	r2, [r2]
 2561              	.LVL379:
 2562 0166 D7F87431 		ldr	r3, [r7, #372]
 2563 016a 42FA03F3 		asr	r3, r2, r3
 2564              	.LVL380:
 396:Middlewares/Third_Party/LibJPEG/source/jcarith.c **** 
 2565              		.loc 1 396 0
 2566 016e 0BF11202 		add	r2, fp, #18
 2567 0172 0AEB8202 		add	r2, r10, r2, lsl #2
 2568 0176 5568     		ldr	r5, [r2, #4]
 2569 0178 06F10C02 		add	r2, r6, #12
 2570 017c 0AEB8202 		add	r2, r10, r2, lsl #2
 2571 0180 5268     		ldr	r2, [r2, #4]
 2572 0182 1544     		add	r5, r5, r2
 2573              	.LVL381:
 399:Middlewares/Third_Party/LibJPEG/source/jcarith.c ****       arith_encode(cinfo, st, 0);
 2574              		.loc 1 399 0
 2575 0184 06F10802 		add	r2, r6, #8
 2576 0188 0AEB8202 		add	r2, r10, r2, lsl #2
 2577 018c 5268     		ldr	r2, [r2, #4]
 2578              	.LVL382:
 2579 018e B3EB0208 		subs	r8, r3, r2
 2580              	.LVL383:
 2581 0192 7FF45AAF 		bne	.L201
 400:Middlewares/Third_Party/LibJPEG/source/jcarith.c ****       entropy->dc_context[ci] = 0;	/* zero diff category */
 2582              		.loc 1 400 0
 2583 0196 0022     		movs	r2, #0
ARM GAS  /tmp/ccQmBmhQ.s 			page 68


 2584 0198 2946     		mov	r1, r5
 2585 019a 3846     		mov	r0, r7
 2586 019c FFF7FEFF 		bl	arith_encode
 2587              	.LVL384:
 401:Middlewares/Third_Party/LibJPEG/source/jcarith.c ****     } else {
 2588              		.loc 1 401 0
 2589 01a0 0C36     		adds	r6, r6, #12
 2590              	.LVL385:
 2591 01a2 0AEB8606 		add	r6, r10, r6, lsl #2
 2592              	.LVL386:
 2593 01a6 0023     		movs	r3, #0
 2594 01a8 7360     		str	r3, [r6, #4]
 2595 01aa C6E7     		b	.L202
 2596              	.LVL387:
 2597              	.L217:
 444:Middlewares/Third_Party/LibJPEG/source/jcarith.c **** 
 2598              		.loc 1 444 0
 2599 01ac 0120     		movs	r0, #1
 2600 01ae 03B0     		add	sp, sp, #12
 2601              	.LCFI19:
 2602              		.cfi_def_cfa_offset 36
 2603              	.LVL388:
 2604              		@ sp needed
 2605 01b0 BDE8F08F 		pop	{r4, r5, r6, r7, r8, r9, r10, fp, pc}
 2606              		.cfi_endproc
 2607              	.LFE7:
 2609              		.section	.text.jinit_arith_encoder,"ax",%progbits
 2610              		.align	1
 2611              		.global	jinit_arith_encoder
 2612              		.syntax unified
 2613              		.thumb
 2614              		.thumb_func
 2615              		.fpu fpv5-sp-d16
 2617              	jinit_arith_encoder:
 2618              	.LFB13:
 910:Middlewares/Third_Party/LibJPEG/source/jcarith.c **** 
 911:Middlewares/Third_Party/LibJPEG/source/jcarith.c **** 
 912:Middlewares/Third_Party/LibJPEG/source/jcarith.c **** /*
 913:Middlewares/Third_Party/LibJPEG/source/jcarith.c ****  * Module initialization routine for arithmetic entropy encoding.
 914:Middlewares/Third_Party/LibJPEG/source/jcarith.c ****  */
 915:Middlewares/Third_Party/LibJPEG/source/jcarith.c **** 
 916:Middlewares/Third_Party/LibJPEG/source/jcarith.c **** GLOBAL(void)
 917:Middlewares/Third_Party/LibJPEG/source/jcarith.c **** jinit_arith_encoder (j_compress_ptr cinfo)
 918:Middlewares/Third_Party/LibJPEG/source/jcarith.c **** {
 2619              		.loc 1 918 0
 2620              		.cfi_startproc
 2621              		@ args = 0, pretend = 0, frame = 0
 2622              		@ frame_needed = 0, uses_anonymous_args = 0
 2623              	.LVL389:
 2624 0000 10B5     		push	{r4, lr}
 2625              	.LCFI20:
 2626              		.cfi_def_cfa_offset 8
 2627              		.cfi_offset 4, -8
 2628              		.cfi_offset 14, -4
 2629 0002 0446     		mov	r4, r0
 919:Middlewares/Third_Party/LibJPEG/source/jcarith.c ****   arith_entropy_ptr entropy;
 920:Middlewares/Third_Party/LibJPEG/source/jcarith.c ****   int i;
ARM GAS  /tmp/ccQmBmhQ.s 			page 69


 921:Middlewares/Third_Party/LibJPEG/source/jcarith.c **** 
 922:Middlewares/Third_Party/LibJPEG/source/jcarith.c ****   entropy = (arith_entropy_ptr)
 923:Middlewares/Third_Party/LibJPEG/source/jcarith.c ****     (*cinfo->mem->alloc_small) ((j_common_ptr) cinfo, JPOOL_IMAGE,
 2630              		.loc 1 923 0
 2631 0004 4368     		ldr	r3, [r0, #4]
 2632 0006 1B68     		ldr	r3, [r3]
 922:Middlewares/Third_Party/LibJPEG/source/jcarith.c ****     (*cinfo->mem->alloc_small) ((j_common_ptr) cinfo, JPOOL_IMAGE,
 2633              		.loc 1 922 0
 2634 0008 D022     		movs	r2, #208
 2635 000a 0121     		movs	r1, #1
 2636 000c 9847     		blx	r3
 2637              	.LVL390:
 924:Middlewares/Third_Party/LibJPEG/source/jcarith.c **** 				SIZEOF(arith_entropy_encoder));
 925:Middlewares/Third_Party/LibJPEG/source/jcarith.c ****   cinfo->entropy = (struct jpeg_entropy_encoder *) entropy;
 2638              		.loc 1 925 0
 2639 000e C4F8A401 		str	r0, [r4, #420]
 926:Middlewares/Third_Party/LibJPEG/source/jcarith.c ****   entropy->pub.start_pass = start_pass;
 2640              		.loc 1 926 0
 2641 0012 0C4B     		ldr	r3, .L222
 2642 0014 0360     		str	r3, [r0]
 927:Middlewares/Third_Party/LibJPEG/source/jcarith.c ****   entropy->pub.finish_pass = finish_pass;
 2643              		.loc 1 927 0
 2644 0016 0C4B     		ldr	r3, .L222+4
 2645 0018 8360     		str	r3, [r0, #8]
 2646              	.LVL391:
 928:Middlewares/Third_Party/LibJPEG/source/jcarith.c **** 
 929:Middlewares/Third_Party/LibJPEG/source/jcarith.c ****   /* Mark tables unallocated */
 930:Middlewares/Third_Party/LibJPEG/source/jcarith.c ****   for (i = 0; i < NUM_ARITH_TBLS; i++) {
 2647              		.loc 1 930 0
 2648 001a 0023     		movs	r3, #0
 2649 001c 0BE0     		b	.L219
 2650              	.LVL392:
 2651              	.L220:
 931:Middlewares/Third_Party/LibJPEG/source/jcarith.c ****     entropy->dc_stats[i] = NULL;
 2652              		.loc 1 931 0 discriminator 3
 2653 001e 03F11202 		add	r2, r3, #18
 2654 0022 00EB8202 		add	r2, r0, r2, lsl #2
 2655 0026 0021     		movs	r1, #0
 2656 0028 5160     		str	r1, [r2, #4]
 932:Middlewares/Third_Party/LibJPEG/source/jcarith.c ****     entropy->ac_stats[i] = NULL;
 2657              		.loc 1 932 0 discriminator 3
 2658 002a 03F12202 		add	r2, r3, #34
 2659 002e 00EB8202 		add	r2, r0, r2, lsl #2
 2660 0032 5160     		str	r1, [r2, #4]
 930:Middlewares/Third_Party/LibJPEG/source/jcarith.c ****     entropy->dc_stats[i] = NULL;
 2661              		.loc 1 930 0 discriminator 3
 2662 0034 0133     		adds	r3, r3, #1
 2663              	.LVL393:
 2664              	.L219:
 930:Middlewares/Third_Party/LibJPEG/source/jcarith.c ****     entropy->dc_stats[i] = NULL;
 2665              		.loc 1 930 0 is_stmt 0 discriminator 1
 2666 0036 0F2B     		cmp	r3, #15
 2667 0038 F1DD     		ble	.L220
 933:Middlewares/Third_Party/LibJPEG/source/jcarith.c ****   }
 934:Middlewares/Third_Party/LibJPEG/source/jcarith.c **** 
 935:Middlewares/Third_Party/LibJPEG/source/jcarith.c ****   /* Initialize index for fixed probability estimation */
 936:Middlewares/Third_Party/LibJPEG/source/jcarith.c ****   entropy->fixed_bin[0] = 113;
ARM GAS  /tmp/ccQmBmhQ.s 			page 70


 2668              		.loc 1 936 0 is_stmt 1
 2669 003a 7123     		movs	r3, #113
 2670              	.LVL394:
 2671 003c 80F8CC30 		strb	r3, [r0, #204]
 937:Middlewares/Third_Party/LibJPEG/source/jcarith.c **** }
 2672              		.loc 1 937 0
 2673 0040 10BD     		pop	{r4, pc}
 2674              	.LVL395:
 2675              	.L223:
 2676 0042 00BF     		.align	2
 2677              	.L222:
 2678 0044 00000000 		.word	start_pass
 2679 0048 00000000 		.word	finish_pass
 2680              		.cfi_endproc
 2681              	.LFE13:
 2683              		.text
 2684              	.Letext0:
 2685              		.file 2 "/home/jaxc/opt/gcc-arm-none-eabi-7-2018-q2-update/lib/gcc/arm-none-eabi/7.3.1/include/std
 2686              		.file 3 "/home/jaxc/opt/gcc-arm-none-eabi-7-2018-q2-update/arm-none-eabi/include/sys/lock.h"
 2687              		.file 4 "/home/jaxc/opt/gcc-arm-none-eabi-7-2018-q2-update/arm-none-eabi/include/sys/_types.h"
 2688              		.file 5 "/home/jaxc/opt/gcc-arm-none-eabi-7-2018-q2-update/arm-none-eabi/include/sys/reent.h"
 2689              		.file 6 "/home/jaxc/opt/gcc-arm-none-eabi-7-2018-q2-update/arm-none-eabi/include/stdlib.h"
 2690              		.file 7 "Inc/jmorecfg.h"
 2691              		.file 8 "Middlewares/Third_Party/LibJPEG/include/jpeglib.h"
 2692              		.file 9 "Middlewares/Third_Party/LibJPEG/include/jpegint.h"
 2693              		.file 10 "Middlewares/Third_Party/LibJPEG/include/jerror.h"
 2694              		.file 11 "<built-in>"
ARM GAS  /tmp/ccQmBmhQ.s 			page 71

