ARM GAS  /tmp/ccDBelVl.s 			page 1


   1              		.cpu cortex-m7
   2              		.eabi_attribute 27, 1
   3              		.eabi_attribute 28, 1
   4              		.eabi_attribute 20, 1
   5              		.eabi_attribute 21, 1
   6              		.eabi_attribute 23, 3
   7              		.eabi_attribute 24, 1
   8              		.eabi_attribute 25, 1
   9              		.eabi_attribute 26, 1
  10              		.eabi_attribute 30, 1
  11              		.eabi_attribute 34, 1
  12              		.eabi_attribute 18, 4
  13              		.file	"jcinit.c"
  14              		.text
  15              	.Ltext0:
  16              		.cfi_sections	.debug_frame
  17              		.section	.text.jinit_compress_master,"ax",%progbits
  18              		.align	1
  19              		.global	jinit_compress_master
  20              		.syntax unified
  21              		.thumb
  22              		.thumb_func
  23              		.fpu fpv5-sp-d16
  25              	jinit_compress_master:
  26              	.LFB3:
  27              		.file 1 "Middlewares/Third_Party/LibJPEG/source/jcinit.c"
   1:Middlewares/Third_Party/LibJPEG/source/jcinit.c **** /*
   2:Middlewares/Third_Party/LibJPEG/source/jcinit.c ****  * jcinit.c
   3:Middlewares/Third_Party/LibJPEG/source/jcinit.c ****  *
   4:Middlewares/Third_Party/LibJPEG/source/jcinit.c ****  * Copyright (C) 1991-1997, Thomas G. Lane.
   5:Middlewares/Third_Party/LibJPEG/source/jcinit.c ****  * This file is part of the Independent JPEG Group's software.
   6:Middlewares/Third_Party/LibJPEG/source/jcinit.c ****  * For conditions of distribution and use, see the accompanying README file.
   7:Middlewares/Third_Party/LibJPEG/source/jcinit.c ****  *
   8:Middlewares/Third_Party/LibJPEG/source/jcinit.c ****  * This file contains initialization logic for the JPEG compressor.
   9:Middlewares/Third_Party/LibJPEG/source/jcinit.c ****  * This routine is in charge of selecting the modules to be executed and
  10:Middlewares/Third_Party/LibJPEG/source/jcinit.c ****  * making an initialization call to each one.
  11:Middlewares/Third_Party/LibJPEG/source/jcinit.c ****  *
  12:Middlewares/Third_Party/LibJPEG/source/jcinit.c ****  * Logically, this code belongs in jcmaster.c.  It's split out because
  13:Middlewares/Third_Party/LibJPEG/source/jcinit.c ****  * linking this routine implies linking the entire compression library.
  14:Middlewares/Third_Party/LibJPEG/source/jcinit.c ****  * For a transcoding-only application, we want to be able to use jcmaster.c
  15:Middlewares/Third_Party/LibJPEG/source/jcinit.c ****  * without linking in the whole library.
  16:Middlewares/Third_Party/LibJPEG/source/jcinit.c ****  */
  17:Middlewares/Third_Party/LibJPEG/source/jcinit.c **** 
  18:Middlewares/Third_Party/LibJPEG/source/jcinit.c **** #define JPEG_INTERNALS
  19:Middlewares/Third_Party/LibJPEG/source/jcinit.c **** #include "jinclude.h"
  20:Middlewares/Third_Party/LibJPEG/source/jcinit.c **** #include "jpeglib.h"
  21:Middlewares/Third_Party/LibJPEG/source/jcinit.c **** 
  22:Middlewares/Third_Party/LibJPEG/source/jcinit.c **** 
  23:Middlewares/Third_Party/LibJPEG/source/jcinit.c **** /*
  24:Middlewares/Third_Party/LibJPEG/source/jcinit.c ****  * Master selection of compression modules.
  25:Middlewares/Third_Party/LibJPEG/source/jcinit.c ****  * This is done once at the start of processing an image.  We determine
  26:Middlewares/Third_Party/LibJPEG/source/jcinit.c ****  * which modules will be used and give them appropriate initialization calls.
  27:Middlewares/Third_Party/LibJPEG/source/jcinit.c ****  */
  28:Middlewares/Third_Party/LibJPEG/source/jcinit.c **** 
  29:Middlewares/Third_Party/LibJPEG/source/jcinit.c **** GLOBAL(void)
  30:Middlewares/Third_Party/LibJPEG/source/jcinit.c **** jinit_compress_master (j_compress_ptr cinfo)
  31:Middlewares/Third_Party/LibJPEG/source/jcinit.c **** {
ARM GAS  /tmp/ccDBelVl.s 			page 2


  28              		.loc 1 31 0
  29              		.cfi_startproc
  30              		@ args = 0, pretend = 0, frame = 0
  31              		@ frame_needed = 0, uses_anonymous_args = 0
  32              	.LVL0:
  33 0000 10B5     		push	{r4, lr}
  34              	.LCFI0:
  35              		.cfi_def_cfa_offset 8
  36              		.cfi_offset 4, -8
  37              		.cfi_offset 14, -4
  38 0002 0446     		mov	r4, r0
  32:Middlewares/Third_Party/LibJPEG/source/jcinit.c ****   /* Initialize master control (includes parameter checking/processing) */
  33:Middlewares/Third_Party/LibJPEG/source/jcinit.c ****   jinit_c_master_control(cinfo, FALSE /* full compression */);
  39              		.loc 1 33 0
  40 0004 0021     		movs	r1, #0
  41 0006 FFF7FEFF 		bl	jinit_c_master_control
  42              	.LVL1:
  34:Middlewares/Third_Party/LibJPEG/source/jcinit.c **** 
  35:Middlewares/Third_Party/LibJPEG/source/jcinit.c ****   /* Preprocessing */
  36:Middlewares/Third_Party/LibJPEG/source/jcinit.c ****   if (! cinfo->raw_data_in) {
  43              		.loc 1 36 0
  44 000a D4F8D030 		ldr	r3, [r4, #208]
  45 000e 0BB3     		cbz	r3, .L9
  46              	.L2:
  37:Middlewares/Third_Party/LibJPEG/source/jcinit.c ****     jinit_color_converter(cinfo);
  38:Middlewares/Third_Party/LibJPEG/source/jcinit.c ****     jinit_downsampler(cinfo);
  39:Middlewares/Third_Party/LibJPEG/source/jcinit.c ****     jinit_c_prep_controller(cinfo, FALSE /* never need full buffer here */);
  40:Middlewares/Third_Party/LibJPEG/source/jcinit.c ****   }
  41:Middlewares/Third_Party/LibJPEG/source/jcinit.c ****   /* Forward DCT */
  42:Middlewares/Third_Party/LibJPEG/source/jcinit.c ****   jinit_forward_dct(cinfo);
  47              		.loc 1 42 0
  48 0010 2046     		mov	r0, r4
  49 0012 FFF7FEFF 		bl	jinit_forward_dct
  50              	.LVL2:
  43:Middlewares/Third_Party/LibJPEG/source/jcinit.c ****   /* Entropy encoding: either Huffman or arithmetic coding. */
  44:Middlewares/Third_Party/LibJPEG/source/jcinit.c ****   if (cinfo->arith_code)
  51              		.loc 1 44 0
  52 0016 D4F8D430 		ldr	r3, [r4, #212]
  53 001a 33B3     		cbz	r3, .L3
  45:Middlewares/Third_Party/LibJPEG/source/jcinit.c ****     jinit_arith_encoder(cinfo);
  54              		.loc 1 45 0
  55 001c 2046     		mov	r0, r4
  56 001e FFF7FEFF 		bl	jinit_arith_encoder
  57              	.LVL3:
  58              	.L4:
  46:Middlewares/Third_Party/LibJPEG/source/jcinit.c ****   else {
  47:Middlewares/Third_Party/LibJPEG/source/jcinit.c ****     jinit_huff_encoder(cinfo);
  48:Middlewares/Third_Party/LibJPEG/source/jcinit.c ****   }
  49:Middlewares/Third_Party/LibJPEG/source/jcinit.c **** 
  50:Middlewares/Third_Party/LibJPEG/source/jcinit.c ****   /* Need a full-image coefficient buffer in any multi-pass mode. */
  51:Middlewares/Third_Party/LibJPEG/source/jcinit.c ****   jinit_c_coef_controller(cinfo,
  52:Middlewares/Third_Party/LibJPEG/source/jcinit.c **** 		(boolean) (cinfo->num_scans > 1 || cinfo->optimize_coding));
  59              		.loc 1 52 0
  60 0022 D4F8C830 		ldr	r3, [r4, #200]
  51:Middlewares/Third_Party/LibJPEG/source/jcinit.c **** 		(boolean) (cinfo->num_scans > 1 || cinfo->optimize_coding));
  61              		.loc 1 51 0
  62 0026 012B     		cmp	r3, #1
ARM GAS  /tmp/ccDBelVl.s 			page 3


  63 0028 23DD     		ble	.L10
  64 002a 0121     		movs	r1, #1
  65              	.L5:
  51:Middlewares/Third_Party/LibJPEG/source/jcinit.c **** 		(boolean) (cinfo->num_scans > 1 || cinfo->optimize_coding));
  66              		.loc 1 51 0 is_stmt 0 discriminator 6
  67 002c 2046     		mov	r0, r4
  68 002e FFF7FEFF 		bl	jinit_c_coef_controller
  69              	.LVL4:
  53:Middlewares/Third_Party/LibJPEG/source/jcinit.c ****   jinit_c_main_controller(cinfo, FALSE /* never need full buffer here */);
  70              		.loc 1 53 0 is_stmt 1 discriminator 6
  71 0032 0021     		movs	r1, #0
  72 0034 2046     		mov	r0, r4
  73 0036 FFF7FEFF 		bl	jinit_c_main_controller
  74              	.LVL5:
  54:Middlewares/Third_Party/LibJPEG/source/jcinit.c **** 
  55:Middlewares/Third_Party/LibJPEG/source/jcinit.c ****   jinit_marker_writer(cinfo);
  75              		.loc 1 55 0 discriminator 6
  76 003a 2046     		mov	r0, r4
  77 003c FFF7FEFF 		bl	jinit_marker_writer
  78              	.LVL6:
  56:Middlewares/Third_Party/LibJPEG/source/jcinit.c **** 
  57:Middlewares/Third_Party/LibJPEG/source/jcinit.c ****   /* We can now tell the memory manager to allocate virtual arrays. */
  58:Middlewares/Third_Party/LibJPEG/source/jcinit.c ****   (*cinfo->mem->realize_virt_arrays) ((j_common_ptr) cinfo);
  79              		.loc 1 58 0 discriminator 6
  80 0040 6368     		ldr	r3, [r4, #4]
  81 0042 9B69     		ldr	r3, [r3, #24]
  82 0044 2046     		mov	r0, r4
  83 0046 9847     		blx	r3
  84              	.LVL7:
  59:Middlewares/Third_Party/LibJPEG/source/jcinit.c **** 
  60:Middlewares/Third_Party/LibJPEG/source/jcinit.c ****   /* Write the datastream header (SOI) immediately.
  61:Middlewares/Third_Party/LibJPEG/source/jcinit.c ****    * Frame and scan headers are postponed till later.
  62:Middlewares/Third_Party/LibJPEG/source/jcinit.c ****    * This lets application insert special markers after the SOI.
  63:Middlewares/Third_Party/LibJPEG/source/jcinit.c ****    */
  64:Middlewares/Third_Party/LibJPEG/source/jcinit.c ****   (*cinfo->marker->write_file_header) (cinfo);
  85              		.loc 1 64 0 discriminator 6
  86 0048 D4F89431 		ldr	r3, [r4, #404]
  87 004c 1B68     		ldr	r3, [r3]
  88 004e 2046     		mov	r0, r4
  89 0050 9847     		blx	r3
  90              	.LVL8:
  65:Middlewares/Third_Party/LibJPEG/source/jcinit.c **** }
  91              		.loc 1 65 0 discriminator 6
  92 0052 10BD     		pop	{r4, pc}
  93              	.LVL9:
  94              	.L9:
  37:Middlewares/Third_Party/LibJPEG/source/jcinit.c ****     jinit_downsampler(cinfo);
  95              		.loc 1 37 0
  96 0054 2046     		mov	r0, r4
  97 0056 FFF7FEFF 		bl	jinit_color_converter
  98              	.LVL10:
  38:Middlewares/Third_Party/LibJPEG/source/jcinit.c ****     jinit_c_prep_controller(cinfo, FALSE /* never need full buffer here */);
  99              		.loc 1 38 0
 100 005a 2046     		mov	r0, r4
 101 005c FFF7FEFF 		bl	jinit_downsampler
 102              	.LVL11:
  39:Middlewares/Third_Party/LibJPEG/source/jcinit.c ****   }
ARM GAS  /tmp/ccDBelVl.s 			page 4


 103              		.loc 1 39 0
 104 0060 0021     		movs	r1, #0
 105 0062 2046     		mov	r0, r4
 106 0064 FFF7FEFF 		bl	jinit_c_prep_controller
 107              	.LVL12:
 108 0068 D2E7     		b	.L2
 109              	.L3:
  47:Middlewares/Third_Party/LibJPEG/source/jcinit.c ****   }
 110              		.loc 1 47 0
 111 006a 2046     		mov	r0, r4
 112 006c FFF7FEFF 		bl	jinit_huff_encoder
 113              	.LVL13:
 114 0070 D7E7     		b	.L4
 115              	.L10:
  52:Middlewares/Third_Party/LibJPEG/source/jcinit.c ****   jinit_c_main_controller(cinfo, FALSE /* never need full buffer here */);
 116              		.loc 1 52 0 discriminator 2
 117 0072 D4F8D830 		ldr	r3, [r4, #216]
  51:Middlewares/Third_Party/LibJPEG/source/jcinit.c **** 		(boolean) (cinfo->num_scans > 1 || cinfo->optimize_coding));
 118              		.loc 1 51 0 discriminator 2
 119 0076 0BB9     		cbnz	r3, .L11
  51:Middlewares/Third_Party/LibJPEG/source/jcinit.c **** 		(boolean) (cinfo->num_scans > 1 || cinfo->optimize_coding));
 120              		.loc 1 51 0 is_stmt 0
 121 0078 0021     		movs	r1, #0
 122 007a D7E7     		b	.L5
 123              	.L11:
 124 007c 0121     		movs	r1, #1
 125 007e D5E7     		b	.L5
 126              		.cfi_endproc
 127              	.LFE3:
 129              		.text
 130              	.Letext0:
 131              		.file 2 "/home/jaxc/opt/gcc-arm-none-eabi-7-2018-q2-update/lib/gcc/arm-none-eabi/7.3.1/include/std
 132              		.file 3 "/home/jaxc/opt/gcc-arm-none-eabi-7-2018-q2-update/arm-none-eabi/include/sys/lock.h"
 133              		.file 4 "/home/jaxc/opt/gcc-arm-none-eabi-7-2018-q2-update/arm-none-eabi/include/sys/_types.h"
 134              		.file 5 "/home/jaxc/opt/gcc-arm-none-eabi-7-2018-q2-update/arm-none-eabi/include/sys/reent.h"
 135              		.file 6 "/home/jaxc/opt/gcc-arm-none-eabi-7-2018-q2-update/arm-none-eabi/include/stdlib.h"
 136              		.file 7 "Inc/jmorecfg.h"
 137              		.file 8 "Middlewares/Third_Party/LibJPEG/include/jpeglib.h"
 138              		.file 9 "Middlewares/Third_Party/LibJPEG/include/jpegint.h"
ARM GAS  /tmp/ccDBelVl.s 			page 5


DEFINED SYMBOLS
                            *ABS*:0000000000000000 jcinit.c
     /tmp/ccDBelVl.s:18     .text.jinit_compress_master:0000000000000000 $t
     /tmp/ccDBelVl.s:25     .text.jinit_compress_master:0000000000000000 jinit_compress_master

UNDEFINED SYMBOLS
jinit_c_master_control
jinit_forward_dct
jinit_arith_encoder
jinit_c_coef_controller
jinit_c_main_controller
jinit_marker_writer
jinit_color_converter
jinit_downsampler
jinit_c_prep_controller
jinit_huff_encoder
