ARM GAS  /tmp/cckGKv0o.s 			page 1


   1              		.cpu cortex-m7
   2              		.eabi_attribute 27, 1
   3              		.eabi_attribute 28, 1
   4              		.eabi_attribute 20, 1
   5              		.eabi_attribute 21, 1
   6              		.eabi_attribute 23, 3
   7              		.eabi_attribute 24, 1
   8              		.eabi_attribute 25, 1
   9              		.eabi_attribute 26, 1
  10              		.eabi_attribute 30, 1
  11              		.eabi_attribute 34, 1
  12              		.eabi_attribute 18, 4
  13              		.file	"jcmaster.c"
  14              		.text
  15              	.Ltext0:
  16              		.cfi_sections	.debug_frame
  17              		.section	.text.jpeg_calc_trans_dimensions,"ax",%progbits
  18              		.align	1
  19              		.syntax unified
  20              		.thumb
  21              		.thumb_func
  22              		.fpu fpv5-sp-d16
  24              	jpeg_calc_trans_dimensions:
  25              	.LFB4:
  26              		.file 1 "Middlewares/Third_Party/LibJPEG/source/jcmaster.c"
   1:Middlewares/Third_Party/LibJPEG/source/jcmaster.c **** /*
   2:Middlewares/Third_Party/LibJPEG/source/jcmaster.c ****  * jcmaster.c
   3:Middlewares/Third_Party/LibJPEG/source/jcmaster.c ****  *
   4:Middlewares/Third_Party/LibJPEG/source/jcmaster.c ****  * Copyright (C) 1991-1997, Thomas G. Lane.
   5:Middlewares/Third_Party/LibJPEG/source/jcmaster.c ****  * Modified 2003-2011 by Guido Vollbeding.
   6:Middlewares/Third_Party/LibJPEG/source/jcmaster.c ****  * This file is part of the Independent JPEG Group's software.
   7:Middlewares/Third_Party/LibJPEG/source/jcmaster.c ****  * For conditions of distribution and use, see the accompanying README file.
   8:Middlewares/Third_Party/LibJPEG/source/jcmaster.c ****  *
   9:Middlewares/Third_Party/LibJPEG/source/jcmaster.c ****  * This file contains master control logic for the JPEG compressor.
  10:Middlewares/Third_Party/LibJPEG/source/jcmaster.c ****  * These routines are concerned with parameter validation, initial setup,
  11:Middlewares/Third_Party/LibJPEG/source/jcmaster.c ****  * and inter-pass control (determining the number of passes and the work 
  12:Middlewares/Third_Party/LibJPEG/source/jcmaster.c ****  * to be done in each pass).
  13:Middlewares/Third_Party/LibJPEG/source/jcmaster.c ****  */
  14:Middlewares/Third_Party/LibJPEG/source/jcmaster.c **** 
  15:Middlewares/Third_Party/LibJPEG/source/jcmaster.c **** #define JPEG_INTERNALS
  16:Middlewares/Third_Party/LibJPEG/source/jcmaster.c **** #include "jinclude.h"
  17:Middlewares/Third_Party/LibJPEG/source/jcmaster.c **** #include "jpeglib.h"
  18:Middlewares/Third_Party/LibJPEG/source/jcmaster.c **** 
  19:Middlewares/Third_Party/LibJPEG/source/jcmaster.c **** 
  20:Middlewares/Third_Party/LibJPEG/source/jcmaster.c **** /* Private state */
  21:Middlewares/Third_Party/LibJPEG/source/jcmaster.c **** 
  22:Middlewares/Third_Party/LibJPEG/source/jcmaster.c **** typedef enum {
  23:Middlewares/Third_Party/LibJPEG/source/jcmaster.c **** 	main_pass,		/* input data, also do first output step */
  24:Middlewares/Third_Party/LibJPEG/source/jcmaster.c **** 	huff_opt_pass,		/* Huffman code optimization pass */
  25:Middlewares/Third_Party/LibJPEG/source/jcmaster.c **** 	output_pass		/* data output pass */
  26:Middlewares/Third_Party/LibJPEG/source/jcmaster.c **** } c_pass_type;
  27:Middlewares/Third_Party/LibJPEG/source/jcmaster.c **** 
  28:Middlewares/Third_Party/LibJPEG/source/jcmaster.c **** typedef struct {
  29:Middlewares/Third_Party/LibJPEG/source/jcmaster.c ****   struct jpeg_comp_master pub;	/* public fields */
  30:Middlewares/Third_Party/LibJPEG/source/jcmaster.c **** 
  31:Middlewares/Third_Party/LibJPEG/source/jcmaster.c ****   c_pass_type pass_type;	/* the type of the current pass */
  32:Middlewares/Third_Party/LibJPEG/source/jcmaster.c **** 
ARM GAS  /tmp/cckGKv0o.s 			page 2


  33:Middlewares/Third_Party/LibJPEG/source/jcmaster.c ****   int pass_number;		/* # of passes completed */
  34:Middlewares/Third_Party/LibJPEG/source/jcmaster.c ****   int total_passes;		/* total # of passes needed */
  35:Middlewares/Third_Party/LibJPEG/source/jcmaster.c **** 
  36:Middlewares/Third_Party/LibJPEG/source/jcmaster.c ****   int scan_number;		/* current index in scan_info[] */
  37:Middlewares/Third_Party/LibJPEG/source/jcmaster.c **** } my_comp_master;
  38:Middlewares/Third_Party/LibJPEG/source/jcmaster.c **** 
  39:Middlewares/Third_Party/LibJPEG/source/jcmaster.c **** typedef my_comp_master * my_master_ptr;
  40:Middlewares/Third_Party/LibJPEG/source/jcmaster.c **** 
  41:Middlewares/Third_Party/LibJPEG/source/jcmaster.c **** 
  42:Middlewares/Third_Party/LibJPEG/source/jcmaster.c **** /*
  43:Middlewares/Third_Party/LibJPEG/source/jcmaster.c ****  * Support routines that do various essential calculations.
  44:Middlewares/Third_Party/LibJPEG/source/jcmaster.c ****  */
  45:Middlewares/Third_Party/LibJPEG/source/jcmaster.c **** 
  46:Middlewares/Third_Party/LibJPEG/source/jcmaster.c **** /*
  47:Middlewares/Third_Party/LibJPEG/source/jcmaster.c ****  * Compute JPEG image dimensions and related values.
  48:Middlewares/Third_Party/LibJPEG/source/jcmaster.c ****  * NOTE: this is exported for possible use by application.
  49:Middlewares/Third_Party/LibJPEG/source/jcmaster.c ****  * Hence it mustn't do anything that can't be done twice.
  50:Middlewares/Third_Party/LibJPEG/source/jcmaster.c ****  */
  51:Middlewares/Third_Party/LibJPEG/source/jcmaster.c **** 
  52:Middlewares/Third_Party/LibJPEG/source/jcmaster.c **** GLOBAL(void)
  53:Middlewares/Third_Party/LibJPEG/source/jcmaster.c **** jpeg_calc_jpeg_dimensions (j_compress_ptr cinfo)
  54:Middlewares/Third_Party/LibJPEG/source/jcmaster.c **** /* Do computations that are needed before master selection phase */
  55:Middlewares/Third_Party/LibJPEG/source/jcmaster.c **** {
  56:Middlewares/Third_Party/LibJPEG/source/jcmaster.c **** #ifdef DCT_SCALING_SUPPORTED
  57:Middlewares/Third_Party/LibJPEG/source/jcmaster.c **** 
  58:Middlewares/Third_Party/LibJPEG/source/jcmaster.c ****   /* Sanity check on input image dimensions to prevent overflow in
  59:Middlewares/Third_Party/LibJPEG/source/jcmaster.c ****    * following calculation.
  60:Middlewares/Third_Party/LibJPEG/source/jcmaster.c ****    * We do check jpeg_width and jpeg_height in initial_setup below,
  61:Middlewares/Third_Party/LibJPEG/source/jcmaster.c ****    * but image_width and image_height can come from arbitrary data,
  62:Middlewares/Third_Party/LibJPEG/source/jcmaster.c ****    * and we need some space for multiplication by block_size.
  63:Middlewares/Third_Party/LibJPEG/source/jcmaster.c ****    */
  64:Middlewares/Third_Party/LibJPEG/source/jcmaster.c ****   if (((long) cinfo->image_width >> 24) || ((long) cinfo->image_height >> 24))
  65:Middlewares/Third_Party/LibJPEG/source/jcmaster.c ****     ERREXIT1(cinfo, JERR_IMAGE_TOO_BIG, (unsigned int) JPEG_MAX_DIMENSION);
  66:Middlewares/Third_Party/LibJPEG/source/jcmaster.c **** 
  67:Middlewares/Third_Party/LibJPEG/source/jcmaster.c ****   /* Compute actual JPEG image dimensions and DCT scaling choices. */
  68:Middlewares/Third_Party/LibJPEG/source/jcmaster.c ****   if (cinfo->scale_num >= cinfo->scale_denom * cinfo->block_size) {
  69:Middlewares/Third_Party/LibJPEG/source/jcmaster.c ****     /* Provide block_size/1 scaling */
  70:Middlewares/Third_Party/LibJPEG/source/jcmaster.c ****     cinfo->jpeg_width = cinfo->image_width * cinfo->block_size;
  71:Middlewares/Third_Party/LibJPEG/source/jcmaster.c ****     cinfo->jpeg_height = cinfo->image_height * cinfo->block_size;
  72:Middlewares/Third_Party/LibJPEG/source/jcmaster.c ****     cinfo->min_DCT_h_scaled_size = 1;
  73:Middlewares/Third_Party/LibJPEG/source/jcmaster.c ****     cinfo->min_DCT_v_scaled_size = 1;
  74:Middlewares/Third_Party/LibJPEG/source/jcmaster.c ****   } else if (cinfo->scale_num * 2 >= cinfo->scale_denom * cinfo->block_size) {
  75:Middlewares/Third_Party/LibJPEG/source/jcmaster.c ****     /* Provide block_size/2 scaling */
  76:Middlewares/Third_Party/LibJPEG/source/jcmaster.c ****     cinfo->jpeg_width = (JDIMENSION)
  77:Middlewares/Third_Party/LibJPEG/source/jcmaster.c ****       jdiv_round_up((long) cinfo->image_width * cinfo->block_size, 2L);
  78:Middlewares/Third_Party/LibJPEG/source/jcmaster.c ****     cinfo->jpeg_height = (JDIMENSION)
  79:Middlewares/Third_Party/LibJPEG/source/jcmaster.c ****       jdiv_round_up((long) cinfo->image_height * cinfo->block_size, 2L);
  80:Middlewares/Third_Party/LibJPEG/source/jcmaster.c ****     cinfo->min_DCT_h_scaled_size = 2;
  81:Middlewares/Third_Party/LibJPEG/source/jcmaster.c ****     cinfo->min_DCT_v_scaled_size = 2;
  82:Middlewares/Third_Party/LibJPEG/source/jcmaster.c ****   } else if (cinfo->scale_num * 3 >= cinfo->scale_denom * cinfo->block_size) {
  83:Middlewares/Third_Party/LibJPEG/source/jcmaster.c ****     /* Provide block_size/3 scaling */
  84:Middlewares/Third_Party/LibJPEG/source/jcmaster.c ****     cinfo->jpeg_width = (JDIMENSION)
  85:Middlewares/Third_Party/LibJPEG/source/jcmaster.c ****       jdiv_round_up((long) cinfo->image_width * cinfo->block_size, 3L);
  86:Middlewares/Third_Party/LibJPEG/source/jcmaster.c ****     cinfo->jpeg_height = (JDIMENSION)
  87:Middlewares/Third_Party/LibJPEG/source/jcmaster.c ****       jdiv_round_up((long) cinfo->image_height * cinfo->block_size, 3L);
  88:Middlewares/Third_Party/LibJPEG/source/jcmaster.c ****     cinfo->min_DCT_h_scaled_size = 3;
  89:Middlewares/Third_Party/LibJPEG/source/jcmaster.c ****     cinfo->min_DCT_v_scaled_size = 3;
ARM GAS  /tmp/cckGKv0o.s 			page 3


  90:Middlewares/Third_Party/LibJPEG/source/jcmaster.c ****   } else if (cinfo->scale_num * 4 >= cinfo->scale_denom * cinfo->block_size) {
  91:Middlewares/Third_Party/LibJPEG/source/jcmaster.c ****     /* Provide block_size/4 scaling */
  92:Middlewares/Third_Party/LibJPEG/source/jcmaster.c ****     cinfo->jpeg_width = (JDIMENSION)
  93:Middlewares/Third_Party/LibJPEG/source/jcmaster.c ****       jdiv_round_up((long) cinfo->image_width * cinfo->block_size, 4L);
  94:Middlewares/Third_Party/LibJPEG/source/jcmaster.c ****     cinfo->jpeg_height = (JDIMENSION)
  95:Middlewares/Third_Party/LibJPEG/source/jcmaster.c ****       jdiv_round_up((long) cinfo->image_height * cinfo->block_size, 4L);
  96:Middlewares/Third_Party/LibJPEG/source/jcmaster.c ****     cinfo->min_DCT_h_scaled_size = 4;
  97:Middlewares/Third_Party/LibJPEG/source/jcmaster.c ****     cinfo->min_DCT_v_scaled_size = 4;
  98:Middlewares/Third_Party/LibJPEG/source/jcmaster.c ****   } else if (cinfo->scale_num * 5 >= cinfo->scale_denom * cinfo->block_size) {
  99:Middlewares/Third_Party/LibJPEG/source/jcmaster.c ****     /* Provide block_size/5 scaling */
 100:Middlewares/Third_Party/LibJPEG/source/jcmaster.c ****     cinfo->jpeg_width = (JDIMENSION)
 101:Middlewares/Third_Party/LibJPEG/source/jcmaster.c ****       jdiv_round_up((long) cinfo->image_width * cinfo->block_size, 5L);
 102:Middlewares/Third_Party/LibJPEG/source/jcmaster.c ****     cinfo->jpeg_height = (JDIMENSION)
 103:Middlewares/Third_Party/LibJPEG/source/jcmaster.c ****       jdiv_round_up((long) cinfo->image_height * cinfo->block_size, 5L);
 104:Middlewares/Third_Party/LibJPEG/source/jcmaster.c ****     cinfo->min_DCT_h_scaled_size = 5;
 105:Middlewares/Third_Party/LibJPEG/source/jcmaster.c ****     cinfo->min_DCT_v_scaled_size = 5;
 106:Middlewares/Third_Party/LibJPEG/source/jcmaster.c ****   } else if (cinfo->scale_num * 6 >= cinfo->scale_denom * cinfo->block_size) {
 107:Middlewares/Third_Party/LibJPEG/source/jcmaster.c ****     /* Provide block_size/6 scaling */
 108:Middlewares/Third_Party/LibJPEG/source/jcmaster.c ****     cinfo->jpeg_width = (JDIMENSION)
 109:Middlewares/Third_Party/LibJPEG/source/jcmaster.c ****       jdiv_round_up((long) cinfo->image_width * cinfo->block_size, 6L);
 110:Middlewares/Third_Party/LibJPEG/source/jcmaster.c ****     cinfo->jpeg_height = (JDIMENSION)
 111:Middlewares/Third_Party/LibJPEG/source/jcmaster.c ****       jdiv_round_up((long) cinfo->image_height * cinfo->block_size, 6L);
 112:Middlewares/Third_Party/LibJPEG/source/jcmaster.c ****     cinfo->min_DCT_h_scaled_size = 6;
 113:Middlewares/Third_Party/LibJPEG/source/jcmaster.c ****     cinfo->min_DCT_v_scaled_size = 6;
 114:Middlewares/Third_Party/LibJPEG/source/jcmaster.c ****   } else if (cinfo->scale_num * 7 >= cinfo->scale_denom * cinfo->block_size) {
 115:Middlewares/Third_Party/LibJPEG/source/jcmaster.c ****     /* Provide block_size/7 scaling */
 116:Middlewares/Third_Party/LibJPEG/source/jcmaster.c ****     cinfo->jpeg_width = (JDIMENSION)
 117:Middlewares/Third_Party/LibJPEG/source/jcmaster.c ****       jdiv_round_up((long) cinfo->image_width * cinfo->block_size, 7L);
 118:Middlewares/Third_Party/LibJPEG/source/jcmaster.c ****     cinfo->jpeg_height = (JDIMENSION)
 119:Middlewares/Third_Party/LibJPEG/source/jcmaster.c ****       jdiv_round_up((long) cinfo->image_height * cinfo->block_size, 7L);
 120:Middlewares/Third_Party/LibJPEG/source/jcmaster.c ****     cinfo->min_DCT_h_scaled_size = 7;
 121:Middlewares/Third_Party/LibJPEG/source/jcmaster.c ****     cinfo->min_DCT_v_scaled_size = 7;
 122:Middlewares/Third_Party/LibJPEG/source/jcmaster.c ****   } else if (cinfo->scale_num * 8 >= cinfo->scale_denom * cinfo->block_size) {
 123:Middlewares/Third_Party/LibJPEG/source/jcmaster.c ****     /* Provide block_size/8 scaling */
 124:Middlewares/Third_Party/LibJPEG/source/jcmaster.c ****     cinfo->jpeg_width = (JDIMENSION)
 125:Middlewares/Third_Party/LibJPEG/source/jcmaster.c ****       jdiv_round_up((long) cinfo->image_width * cinfo->block_size, 8L);
 126:Middlewares/Third_Party/LibJPEG/source/jcmaster.c ****     cinfo->jpeg_height = (JDIMENSION)
 127:Middlewares/Third_Party/LibJPEG/source/jcmaster.c ****       jdiv_round_up((long) cinfo->image_height * cinfo->block_size, 8L);
 128:Middlewares/Third_Party/LibJPEG/source/jcmaster.c ****     cinfo->min_DCT_h_scaled_size = 8;
 129:Middlewares/Third_Party/LibJPEG/source/jcmaster.c ****     cinfo->min_DCT_v_scaled_size = 8;
 130:Middlewares/Third_Party/LibJPEG/source/jcmaster.c ****   } else if (cinfo->scale_num * 9 >= cinfo->scale_denom * cinfo->block_size) {
 131:Middlewares/Third_Party/LibJPEG/source/jcmaster.c ****     /* Provide block_size/9 scaling */
 132:Middlewares/Third_Party/LibJPEG/source/jcmaster.c ****     cinfo->jpeg_width = (JDIMENSION)
 133:Middlewares/Third_Party/LibJPEG/source/jcmaster.c ****       jdiv_round_up((long) cinfo->image_width * cinfo->block_size, 9L);
 134:Middlewares/Third_Party/LibJPEG/source/jcmaster.c ****     cinfo->jpeg_height = (JDIMENSION)
 135:Middlewares/Third_Party/LibJPEG/source/jcmaster.c ****       jdiv_round_up((long) cinfo->image_height * cinfo->block_size, 9L);
 136:Middlewares/Third_Party/LibJPEG/source/jcmaster.c ****     cinfo->min_DCT_h_scaled_size = 9;
 137:Middlewares/Third_Party/LibJPEG/source/jcmaster.c ****     cinfo->min_DCT_v_scaled_size = 9;
 138:Middlewares/Third_Party/LibJPEG/source/jcmaster.c ****   } else if (cinfo->scale_num * 10 >= cinfo->scale_denom * cinfo->block_size) {
 139:Middlewares/Third_Party/LibJPEG/source/jcmaster.c ****     /* Provide block_size/10 scaling */
 140:Middlewares/Third_Party/LibJPEG/source/jcmaster.c ****     cinfo->jpeg_width = (JDIMENSION)
 141:Middlewares/Third_Party/LibJPEG/source/jcmaster.c ****       jdiv_round_up((long) cinfo->image_width * cinfo->block_size, 10L);
 142:Middlewares/Third_Party/LibJPEG/source/jcmaster.c ****     cinfo->jpeg_height = (JDIMENSION)
 143:Middlewares/Third_Party/LibJPEG/source/jcmaster.c ****       jdiv_round_up((long) cinfo->image_height * cinfo->block_size, 10L);
 144:Middlewares/Third_Party/LibJPEG/source/jcmaster.c ****     cinfo->min_DCT_h_scaled_size = 10;
 145:Middlewares/Third_Party/LibJPEG/source/jcmaster.c ****     cinfo->min_DCT_v_scaled_size = 10;
 146:Middlewares/Third_Party/LibJPEG/source/jcmaster.c ****   } else if (cinfo->scale_num * 11 >= cinfo->scale_denom * cinfo->block_size) {
ARM GAS  /tmp/cckGKv0o.s 			page 4


 147:Middlewares/Third_Party/LibJPEG/source/jcmaster.c ****     /* Provide block_size/11 scaling */
 148:Middlewares/Third_Party/LibJPEG/source/jcmaster.c ****     cinfo->jpeg_width = (JDIMENSION)
 149:Middlewares/Third_Party/LibJPEG/source/jcmaster.c ****       jdiv_round_up((long) cinfo->image_width * cinfo->block_size, 11L);
 150:Middlewares/Third_Party/LibJPEG/source/jcmaster.c ****     cinfo->jpeg_height = (JDIMENSION)
 151:Middlewares/Third_Party/LibJPEG/source/jcmaster.c ****       jdiv_round_up((long) cinfo->image_height * cinfo->block_size, 11L);
 152:Middlewares/Third_Party/LibJPEG/source/jcmaster.c ****     cinfo->min_DCT_h_scaled_size = 11;
 153:Middlewares/Third_Party/LibJPEG/source/jcmaster.c ****     cinfo->min_DCT_v_scaled_size = 11;
 154:Middlewares/Third_Party/LibJPEG/source/jcmaster.c ****   } else if (cinfo->scale_num * 12 >= cinfo->scale_denom * cinfo->block_size) {
 155:Middlewares/Third_Party/LibJPEG/source/jcmaster.c ****     /* Provide block_size/12 scaling */
 156:Middlewares/Third_Party/LibJPEG/source/jcmaster.c ****     cinfo->jpeg_width = (JDIMENSION)
 157:Middlewares/Third_Party/LibJPEG/source/jcmaster.c ****       jdiv_round_up((long) cinfo->image_width * cinfo->block_size, 12L);
 158:Middlewares/Third_Party/LibJPEG/source/jcmaster.c ****     cinfo->jpeg_height = (JDIMENSION)
 159:Middlewares/Third_Party/LibJPEG/source/jcmaster.c ****       jdiv_round_up((long) cinfo->image_height * cinfo->block_size, 12L);
 160:Middlewares/Third_Party/LibJPEG/source/jcmaster.c ****     cinfo->min_DCT_h_scaled_size = 12;
 161:Middlewares/Third_Party/LibJPEG/source/jcmaster.c ****     cinfo->min_DCT_v_scaled_size = 12;
 162:Middlewares/Third_Party/LibJPEG/source/jcmaster.c ****   } else if (cinfo->scale_num * 13 >= cinfo->scale_denom * cinfo->block_size) {
 163:Middlewares/Third_Party/LibJPEG/source/jcmaster.c ****     /* Provide block_size/13 scaling */
 164:Middlewares/Third_Party/LibJPEG/source/jcmaster.c ****     cinfo->jpeg_width = (JDIMENSION)
 165:Middlewares/Third_Party/LibJPEG/source/jcmaster.c ****       jdiv_round_up((long) cinfo->image_width * cinfo->block_size, 13L);
 166:Middlewares/Third_Party/LibJPEG/source/jcmaster.c ****     cinfo->jpeg_height = (JDIMENSION)
 167:Middlewares/Third_Party/LibJPEG/source/jcmaster.c ****       jdiv_round_up((long) cinfo->image_height * cinfo->block_size, 13L);
 168:Middlewares/Third_Party/LibJPEG/source/jcmaster.c ****     cinfo->min_DCT_h_scaled_size = 13;
 169:Middlewares/Third_Party/LibJPEG/source/jcmaster.c ****     cinfo->min_DCT_v_scaled_size = 13;
 170:Middlewares/Third_Party/LibJPEG/source/jcmaster.c ****   } else if (cinfo->scale_num * 14 >= cinfo->scale_denom * cinfo->block_size) {
 171:Middlewares/Third_Party/LibJPEG/source/jcmaster.c ****     /* Provide block_size/14 scaling */
 172:Middlewares/Third_Party/LibJPEG/source/jcmaster.c ****     cinfo->jpeg_width = (JDIMENSION)
 173:Middlewares/Third_Party/LibJPEG/source/jcmaster.c ****       jdiv_round_up((long) cinfo->image_width * cinfo->block_size, 14L);
 174:Middlewares/Third_Party/LibJPEG/source/jcmaster.c ****     cinfo->jpeg_height = (JDIMENSION)
 175:Middlewares/Third_Party/LibJPEG/source/jcmaster.c ****       jdiv_round_up((long) cinfo->image_height * cinfo->block_size, 14L);
 176:Middlewares/Third_Party/LibJPEG/source/jcmaster.c ****     cinfo->min_DCT_h_scaled_size = 14;
 177:Middlewares/Third_Party/LibJPEG/source/jcmaster.c ****     cinfo->min_DCT_v_scaled_size = 14;
 178:Middlewares/Third_Party/LibJPEG/source/jcmaster.c ****   } else if (cinfo->scale_num * 15 >= cinfo->scale_denom * cinfo->block_size) {
 179:Middlewares/Third_Party/LibJPEG/source/jcmaster.c ****     /* Provide block_size/15 scaling */
 180:Middlewares/Third_Party/LibJPEG/source/jcmaster.c ****     cinfo->jpeg_width = (JDIMENSION)
 181:Middlewares/Third_Party/LibJPEG/source/jcmaster.c ****       jdiv_round_up((long) cinfo->image_width * cinfo->block_size, 15L);
 182:Middlewares/Third_Party/LibJPEG/source/jcmaster.c ****     cinfo->jpeg_height = (JDIMENSION)
 183:Middlewares/Third_Party/LibJPEG/source/jcmaster.c ****       jdiv_round_up((long) cinfo->image_height * cinfo->block_size, 15L);
 184:Middlewares/Third_Party/LibJPEG/source/jcmaster.c ****     cinfo->min_DCT_h_scaled_size = 15;
 185:Middlewares/Third_Party/LibJPEG/source/jcmaster.c ****     cinfo->min_DCT_v_scaled_size = 15;
 186:Middlewares/Third_Party/LibJPEG/source/jcmaster.c ****   } else {
 187:Middlewares/Third_Party/LibJPEG/source/jcmaster.c ****     /* Provide block_size/16 scaling */
 188:Middlewares/Third_Party/LibJPEG/source/jcmaster.c ****     cinfo->jpeg_width = (JDIMENSION)
 189:Middlewares/Third_Party/LibJPEG/source/jcmaster.c ****       jdiv_round_up((long) cinfo->image_width * cinfo->block_size, 16L);
 190:Middlewares/Third_Party/LibJPEG/source/jcmaster.c ****     cinfo->jpeg_height = (JDIMENSION)
 191:Middlewares/Third_Party/LibJPEG/source/jcmaster.c ****       jdiv_round_up((long) cinfo->image_height * cinfo->block_size, 16L);
 192:Middlewares/Third_Party/LibJPEG/source/jcmaster.c ****     cinfo->min_DCT_h_scaled_size = 16;
 193:Middlewares/Third_Party/LibJPEG/source/jcmaster.c ****     cinfo->min_DCT_v_scaled_size = 16;
 194:Middlewares/Third_Party/LibJPEG/source/jcmaster.c ****   }
 195:Middlewares/Third_Party/LibJPEG/source/jcmaster.c **** 
 196:Middlewares/Third_Party/LibJPEG/source/jcmaster.c **** #else /* !DCT_SCALING_SUPPORTED */
 197:Middlewares/Third_Party/LibJPEG/source/jcmaster.c **** 
 198:Middlewares/Third_Party/LibJPEG/source/jcmaster.c ****   /* Hardwire it to "no scaling" */
 199:Middlewares/Third_Party/LibJPEG/source/jcmaster.c ****   cinfo->jpeg_width = cinfo->image_width;
 200:Middlewares/Third_Party/LibJPEG/source/jcmaster.c ****   cinfo->jpeg_height = cinfo->image_height;
 201:Middlewares/Third_Party/LibJPEG/source/jcmaster.c ****   cinfo->min_DCT_h_scaled_size = DCTSIZE;
 202:Middlewares/Third_Party/LibJPEG/source/jcmaster.c ****   cinfo->min_DCT_v_scaled_size = DCTSIZE;
 203:Middlewares/Third_Party/LibJPEG/source/jcmaster.c **** 
ARM GAS  /tmp/cckGKv0o.s 			page 5


 204:Middlewares/Third_Party/LibJPEG/source/jcmaster.c **** #endif /* DCT_SCALING_SUPPORTED */
 205:Middlewares/Third_Party/LibJPEG/source/jcmaster.c **** }
 206:Middlewares/Third_Party/LibJPEG/source/jcmaster.c **** 
 207:Middlewares/Third_Party/LibJPEG/source/jcmaster.c **** 
 208:Middlewares/Third_Party/LibJPEG/source/jcmaster.c **** LOCAL(void)
 209:Middlewares/Third_Party/LibJPEG/source/jcmaster.c **** jpeg_calc_trans_dimensions (j_compress_ptr cinfo)
 210:Middlewares/Third_Party/LibJPEG/source/jcmaster.c **** {
  27              		.loc 1 210 0
  28              		.cfi_startproc
  29              		@ args = 0, pretend = 0, frame = 0
  30              		@ frame_needed = 0, uses_anonymous_args = 0
  31              	.LVL0:
  32 0000 10B5     		push	{r4, lr}
  33              	.LCFI0:
  34              		.cfi_def_cfa_offset 8
  35              		.cfi_offset 4, -8
  36              		.cfi_offset 14, -4
  37 0002 0446     		mov	r4, r0
 211:Middlewares/Third_Party/LibJPEG/source/jcmaster.c ****   if (cinfo->min_DCT_h_scaled_size != cinfo->min_DCT_v_scaled_size)
  38              		.loc 1 211 0
  39 0004 D0F81421 		ldr	r2, [r0, #276]
  40 0008 D0F81831 		ldr	r3, [r0, #280]
  41 000c 9A42     		cmp	r2, r3
  42 000e 0DD0     		beq	.L2
 212:Middlewares/Third_Party/LibJPEG/source/jcmaster.c ****     ERREXIT2(cinfo, JERR_BAD_DCTSIZE,
  43              		.loc 1 212 0
  44 0010 0368     		ldr	r3, [r0]
  45 0012 0722     		movs	r2, #7
  46 0014 5A61     		str	r2, [r3, #20]
  47 0016 0368     		ldr	r3, [r0]
  48 0018 D0F81421 		ldr	r2, [r0, #276]
  49 001c 9A61     		str	r2, [r3, #24]
  50 001e 0368     		ldr	r3, [r0]
  51 0020 D0F81821 		ldr	r2, [r0, #280]
  52 0024 DA61     		str	r2, [r3, #28]
  53 0026 0368     		ldr	r3, [r0]
  54 0028 1B68     		ldr	r3, [r3]
  55 002a 9847     		blx	r3
  56              	.LVL1:
  57              	.L2:
 213:Middlewares/Third_Party/LibJPEG/source/jcmaster.c **** 	     cinfo->min_DCT_h_scaled_size, cinfo->min_DCT_v_scaled_size);
 214:Middlewares/Third_Party/LibJPEG/source/jcmaster.c **** 
 215:Middlewares/Third_Party/LibJPEG/source/jcmaster.c ****   cinfo->block_size = cinfo->min_DCT_h_scaled_size;
  58              		.loc 1 215 0
  59 002c D4F81431 		ldr	r3, [r4, #276]
  60 0030 C4F87831 		str	r3, [r4, #376]
 216:Middlewares/Third_Party/LibJPEG/source/jcmaster.c **** }
  61              		.loc 1 216 0
  62 0034 10BD     		pop	{r4, pc}
  63              		.cfi_endproc
  64              	.LFE4:
  66              		.section	.text.validate_script,"ax",%progbits
  67              		.align	1
  68              		.syntax unified
  69              		.thumb
  70              		.thumb_func
  71              		.fpu fpv5-sp-d16
ARM GAS  /tmp/cckGKv0o.s 			page 6


  73              	validate_script:
  74              	.LFB6:
 217:Middlewares/Third_Party/LibJPEG/source/jcmaster.c **** 
 218:Middlewares/Third_Party/LibJPEG/source/jcmaster.c **** 
 219:Middlewares/Third_Party/LibJPEG/source/jcmaster.c **** LOCAL(void)
 220:Middlewares/Third_Party/LibJPEG/source/jcmaster.c **** initial_setup (j_compress_ptr cinfo, boolean transcode_only)
 221:Middlewares/Third_Party/LibJPEG/source/jcmaster.c **** /* Do computations that are needed before master selection phase */
 222:Middlewares/Third_Party/LibJPEG/source/jcmaster.c **** {
 223:Middlewares/Third_Party/LibJPEG/source/jcmaster.c ****   int ci, ssize;
 224:Middlewares/Third_Party/LibJPEG/source/jcmaster.c ****   jpeg_component_info *compptr;
 225:Middlewares/Third_Party/LibJPEG/source/jcmaster.c ****   long samplesperrow;
 226:Middlewares/Third_Party/LibJPEG/source/jcmaster.c ****   JDIMENSION jd_samplesperrow;
 227:Middlewares/Third_Party/LibJPEG/source/jcmaster.c **** 
 228:Middlewares/Third_Party/LibJPEG/source/jcmaster.c ****   if (transcode_only)
 229:Middlewares/Third_Party/LibJPEG/source/jcmaster.c ****     jpeg_calc_trans_dimensions(cinfo);
 230:Middlewares/Third_Party/LibJPEG/source/jcmaster.c ****   else
 231:Middlewares/Third_Party/LibJPEG/source/jcmaster.c ****     jpeg_calc_jpeg_dimensions(cinfo);
 232:Middlewares/Third_Party/LibJPEG/source/jcmaster.c **** 
 233:Middlewares/Third_Party/LibJPEG/source/jcmaster.c ****   /* Sanity check on block_size */
 234:Middlewares/Third_Party/LibJPEG/source/jcmaster.c ****   if (cinfo->block_size < 1 || cinfo->block_size > 16)
 235:Middlewares/Third_Party/LibJPEG/source/jcmaster.c ****     ERREXIT2(cinfo, JERR_BAD_DCTSIZE, cinfo->block_size, cinfo->block_size);
 236:Middlewares/Third_Party/LibJPEG/source/jcmaster.c **** 
 237:Middlewares/Third_Party/LibJPEG/source/jcmaster.c ****   /* Derive natural_order from block_size */
 238:Middlewares/Third_Party/LibJPEG/source/jcmaster.c ****   switch (cinfo->block_size) {
 239:Middlewares/Third_Party/LibJPEG/source/jcmaster.c ****   case 2: cinfo->natural_order = jpeg_natural_order2; break;
 240:Middlewares/Third_Party/LibJPEG/source/jcmaster.c ****   case 3: cinfo->natural_order = jpeg_natural_order3; break;
 241:Middlewares/Third_Party/LibJPEG/source/jcmaster.c ****   case 4: cinfo->natural_order = jpeg_natural_order4; break;
 242:Middlewares/Third_Party/LibJPEG/source/jcmaster.c ****   case 5: cinfo->natural_order = jpeg_natural_order5; break;
 243:Middlewares/Third_Party/LibJPEG/source/jcmaster.c ****   case 6: cinfo->natural_order = jpeg_natural_order6; break;
 244:Middlewares/Third_Party/LibJPEG/source/jcmaster.c ****   case 7: cinfo->natural_order = jpeg_natural_order7; break;
 245:Middlewares/Third_Party/LibJPEG/source/jcmaster.c ****   default: cinfo->natural_order = jpeg_natural_order; break;
 246:Middlewares/Third_Party/LibJPEG/source/jcmaster.c ****   }
 247:Middlewares/Third_Party/LibJPEG/source/jcmaster.c **** 
 248:Middlewares/Third_Party/LibJPEG/source/jcmaster.c ****   /* Derive lim_Se from block_size */
 249:Middlewares/Third_Party/LibJPEG/source/jcmaster.c ****   cinfo->lim_Se = cinfo->block_size < DCTSIZE ?
 250:Middlewares/Third_Party/LibJPEG/source/jcmaster.c ****     cinfo->block_size * cinfo->block_size - 1 : DCTSIZE2-1;
 251:Middlewares/Third_Party/LibJPEG/source/jcmaster.c **** 
 252:Middlewares/Third_Party/LibJPEG/source/jcmaster.c ****   /* Sanity check on image dimensions */
 253:Middlewares/Third_Party/LibJPEG/source/jcmaster.c ****   if (cinfo->jpeg_height <= 0 || cinfo->jpeg_width <= 0 ||
 254:Middlewares/Third_Party/LibJPEG/source/jcmaster.c ****       cinfo->num_components <= 0 || cinfo->input_components <= 0)
 255:Middlewares/Third_Party/LibJPEG/source/jcmaster.c ****     ERREXIT(cinfo, JERR_EMPTY_IMAGE);
 256:Middlewares/Third_Party/LibJPEG/source/jcmaster.c **** 
 257:Middlewares/Third_Party/LibJPEG/source/jcmaster.c ****   /* Make sure image isn't bigger than I can handle */
 258:Middlewares/Third_Party/LibJPEG/source/jcmaster.c ****   if ((long) cinfo->jpeg_height > (long) JPEG_MAX_DIMENSION ||
 259:Middlewares/Third_Party/LibJPEG/source/jcmaster.c ****       (long) cinfo->jpeg_width > (long) JPEG_MAX_DIMENSION)
 260:Middlewares/Third_Party/LibJPEG/source/jcmaster.c ****     ERREXIT1(cinfo, JERR_IMAGE_TOO_BIG, (unsigned int) JPEG_MAX_DIMENSION);
 261:Middlewares/Third_Party/LibJPEG/source/jcmaster.c **** 
 262:Middlewares/Third_Party/LibJPEG/source/jcmaster.c ****   /* Width of an input scanline must be representable as JDIMENSION. */
 263:Middlewares/Third_Party/LibJPEG/source/jcmaster.c ****   samplesperrow = (long) cinfo->image_width * (long) cinfo->input_components;
 264:Middlewares/Third_Party/LibJPEG/source/jcmaster.c ****   jd_samplesperrow = (JDIMENSION) samplesperrow;
 265:Middlewares/Third_Party/LibJPEG/source/jcmaster.c ****   if ((long) jd_samplesperrow != samplesperrow)
 266:Middlewares/Third_Party/LibJPEG/source/jcmaster.c ****     ERREXIT(cinfo, JERR_WIDTH_OVERFLOW);
 267:Middlewares/Third_Party/LibJPEG/source/jcmaster.c **** 
 268:Middlewares/Third_Party/LibJPEG/source/jcmaster.c ****   /* For now, precision must match compiled-in value... */
 269:Middlewares/Third_Party/LibJPEG/source/jcmaster.c ****   if (cinfo->data_precision != BITS_IN_JSAMPLE)
 270:Middlewares/Third_Party/LibJPEG/source/jcmaster.c ****     ERREXIT1(cinfo, JERR_BAD_PRECISION, cinfo->data_precision);
 271:Middlewares/Third_Party/LibJPEG/source/jcmaster.c **** 
ARM GAS  /tmp/cckGKv0o.s 			page 7


 272:Middlewares/Third_Party/LibJPEG/source/jcmaster.c ****   /* Check that number of components won't exceed internal array sizes */
 273:Middlewares/Third_Party/LibJPEG/source/jcmaster.c ****   if (cinfo->num_components > MAX_COMPONENTS)
 274:Middlewares/Third_Party/LibJPEG/source/jcmaster.c ****     ERREXIT2(cinfo, JERR_COMPONENT_COUNT, cinfo->num_components,
 275:Middlewares/Third_Party/LibJPEG/source/jcmaster.c **** 	     MAX_COMPONENTS);
 276:Middlewares/Third_Party/LibJPEG/source/jcmaster.c **** 
 277:Middlewares/Third_Party/LibJPEG/source/jcmaster.c ****   /* Compute maximum sampling factors; check factor validity */
 278:Middlewares/Third_Party/LibJPEG/source/jcmaster.c ****   cinfo->max_h_samp_factor = 1;
 279:Middlewares/Third_Party/LibJPEG/source/jcmaster.c ****   cinfo->max_v_samp_factor = 1;
 280:Middlewares/Third_Party/LibJPEG/source/jcmaster.c ****   for (ci = 0, compptr = cinfo->comp_info; ci < cinfo->num_components;
 281:Middlewares/Third_Party/LibJPEG/source/jcmaster.c ****        ci++, compptr++) {
 282:Middlewares/Third_Party/LibJPEG/source/jcmaster.c ****     if (compptr->h_samp_factor<=0 || compptr->h_samp_factor>MAX_SAMP_FACTOR ||
 283:Middlewares/Third_Party/LibJPEG/source/jcmaster.c **** 	compptr->v_samp_factor<=0 || compptr->v_samp_factor>MAX_SAMP_FACTOR)
 284:Middlewares/Third_Party/LibJPEG/source/jcmaster.c ****       ERREXIT(cinfo, JERR_BAD_SAMPLING);
 285:Middlewares/Third_Party/LibJPEG/source/jcmaster.c ****     cinfo->max_h_samp_factor = MAX(cinfo->max_h_samp_factor,
 286:Middlewares/Third_Party/LibJPEG/source/jcmaster.c **** 				   compptr->h_samp_factor);
 287:Middlewares/Third_Party/LibJPEG/source/jcmaster.c ****     cinfo->max_v_samp_factor = MAX(cinfo->max_v_samp_factor,
 288:Middlewares/Third_Party/LibJPEG/source/jcmaster.c **** 				   compptr->v_samp_factor);
 289:Middlewares/Third_Party/LibJPEG/source/jcmaster.c ****   }
 290:Middlewares/Third_Party/LibJPEG/source/jcmaster.c **** 
 291:Middlewares/Third_Party/LibJPEG/source/jcmaster.c ****   /* Compute dimensions of components */
 292:Middlewares/Third_Party/LibJPEG/source/jcmaster.c ****   for (ci = 0, compptr = cinfo->comp_info; ci < cinfo->num_components;
 293:Middlewares/Third_Party/LibJPEG/source/jcmaster.c ****        ci++, compptr++) {
 294:Middlewares/Third_Party/LibJPEG/source/jcmaster.c ****     /* Fill in the correct component_index value; don't rely on application */
 295:Middlewares/Third_Party/LibJPEG/source/jcmaster.c ****     compptr->component_index = ci;
 296:Middlewares/Third_Party/LibJPEG/source/jcmaster.c ****     /* In selecting the actual DCT scaling for each component, we try to
 297:Middlewares/Third_Party/LibJPEG/source/jcmaster.c ****      * scale down the chroma components via DCT scaling rather than downsampling.
 298:Middlewares/Third_Party/LibJPEG/source/jcmaster.c ****      * This saves time if the downsampler gets to use 1:1 scaling.
 299:Middlewares/Third_Party/LibJPEG/source/jcmaster.c ****      * Note this code adapts subsampling ratios which are powers of 2.
 300:Middlewares/Third_Party/LibJPEG/source/jcmaster.c ****      */
 301:Middlewares/Third_Party/LibJPEG/source/jcmaster.c ****     ssize = 1;
 302:Middlewares/Third_Party/LibJPEG/source/jcmaster.c **** #ifdef DCT_SCALING_SUPPORTED
 303:Middlewares/Third_Party/LibJPEG/source/jcmaster.c ****     while (cinfo->min_DCT_h_scaled_size * ssize <=
 304:Middlewares/Third_Party/LibJPEG/source/jcmaster.c **** 	   (cinfo->do_fancy_downsampling ? DCTSIZE : DCTSIZE / 2) &&
 305:Middlewares/Third_Party/LibJPEG/source/jcmaster.c **** 	   (cinfo->max_h_samp_factor % (compptr->h_samp_factor * ssize * 2)) == 0) {
 306:Middlewares/Third_Party/LibJPEG/source/jcmaster.c ****       ssize = ssize * 2;
 307:Middlewares/Third_Party/LibJPEG/source/jcmaster.c ****     }
 308:Middlewares/Third_Party/LibJPEG/source/jcmaster.c **** #endif
 309:Middlewares/Third_Party/LibJPEG/source/jcmaster.c ****     compptr->DCT_h_scaled_size = cinfo->min_DCT_h_scaled_size * ssize;
 310:Middlewares/Third_Party/LibJPEG/source/jcmaster.c ****     ssize = 1;
 311:Middlewares/Third_Party/LibJPEG/source/jcmaster.c **** #ifdef DCT_SCALING_SUPPORTED
 312:Middlewares/Third_Party/LibJPEG/source/jcmaster.c ****     while (cinfo->min_DCT_v_scaled_size * ssize <=
 313:Middlewares/Third_Party/LibJPEG/source/jcmaster.c **** 	   (cinfo->do_fancy_downsampling ? DCTSIZE : DCTSIZE / 2) &&
 314:Middlewares/Third_Party/LibJPEG/source/jcmaster.c **** 	   (cinfo->max_v_samp_factor % (compptr->v_samp_factor * ssize * 2)) == 0) {
 315:Middlewares/Third_Party/LibJPEG/source/jcmaster.c ****       ssize = ssize * 2;
 316:Middlewares/Third_Party/LibJPEG/source/jcmaster.c ****     }
 317:Middlewares/Third_Party/LibJPEG/source/jcmaster.c **** #endif
 318:Middlewares/Third_Party/LibJPEG/source/jcmaster.c ****     compptr->DCT_v_scaled_size = cinfo->min_DCT_v_scaled_size * ssize;
 319:Middlewares/Third_Party/LibJPEG/source/jcmaster.c **** 
 320:Middlewares/Third_Party/LibJPEG/source/jcmaster.c ****     /* We don't support DCT ratios larger than 2. */
 321:Middlewares/Third_Party/LibJPEG/source/jcmaster.c ****     if (compptr->DCT_h_scaled_size > compptr->DCT_v_scaled_size * 2)
 322:Middlewares/Third_Party/LibJPEG/source/jcmaster.c **** 	compptr->DCT_h_scaled_size = compptr->DCT_v_scaled_size * 2;
 323:Middlewares/Third_Party/LibJPEG/source/jcmaster.c ****     else if (compptr->DCT_v_scaled_size > compptr->DCT_h_scaled_size * 2)
 324:Middlewares/Third_Party/LibJPEG/source/jcmaster.c **** 	compptr->DCT_v_scaled_size = compptr->DCT_h_scaled_size * 2;
 325:Middlewares/Third_Party/LibJPEG/source/jcmaster.c **** 
 326:Middlewares/Third_Party/LibJPEG/source/jcmaster.c ****     /* Size in DCT blocks */
 327:Middlewares/Third_Party/LibJPEG/source/jcmaster.c ****     compptr->width_in_blocks = (JDIMENSION)
 328:Middlewares/Third_Party/LibJPEG/source/jcmaster.c ****       jdiv_round_up((long) cinfo->jpeg_width * (long) compptr->h_samp_factor,
ARM GAS  /tmp/cckGKv0o.s 			page 8


 329:Middlewares/Third_Party/LibJPEG/source/jcmaster.c **** 		    (long) (cinfo->max_h_samp_factor * cinfo->block_size));
 330:Middlewares/Third_Party/LibJPEG/source/jcmaster.c ****     compptr->height_in_blocks = (JDIMENSION)
 331:Middlewares/Third_Party/LibJPEG/source/jcmaster.c ****       jdiv_round_up((long) cinfo->jpeg_height * (long) compptr->v_samp_factor,
 332:Middlewares/Third_Party/LibJPEG/source/jcmaster.c **** 		    (long) (cinfo->max_v_samp_factor * cinfo->block_size));
 333:Middlewares/Third_Party/LibJPEG/source/jcmaster.c ****     /* Size in samples */
 334:Middlewares/Third_Party/LibJPEG/source/jcmaster.c ****     compptr->downsampled_width = (JDIMENSION)
 335:Middlewares/Third_Party/LibJPEG/source/jcmaster.c ****       jdiv_round_up((long) cinfo->jpeg_width *
 336:Middlewares/Third_Party/LibJPEG/source/jcmaster.c **** 		    (long) (compptr->h_samp_factor * compptr->DCT_h_scaled_size),
 337:Middlewares/Third_Party/LibJPEG/source/jcmaster.c **** 		    (long) (cinfo->max_h_samp_factor * cinfo->block_size));
 338:Middlewares/Third_Party/LibJPEG/source/jcmaster.c ****     compptr->downsampled_height = (JDIMENSION)
 339:Middlewares/Third_Party/LibJPEG/source/jcmaster.c ****       jdiv_round_up((long) cinfo->jpeg_height *
 340:Middlewares/Third_Party/LibJPEG/source/jcmaster.c **** 		    (long) (compptr->v_samp_factor * compptr->DCT_v_scaled_size),
 341:Middlewares/Third_Party/LibJPEG/source/jcmaster.c **** 		    (long) (cinfo->max_v_samp_factor * cinfo->block_size));
 342:Middlewares/Third_Party/LibJPEG/source/jcmaster.c ****     /* Mark component needed (this flag isn't actually used for compression) */
 343:Middlewares/Third_Party/LibJPEG/source/jcmaster.c ****     compptr->component_needed = TRUE;
 344:Middlewares/Third_Party/LibJPEG/source/jcmaster.c ****   }
 345:Middlewares/Third_Party/LibJPEG/source/jcmaster.c **** 
 346:Middlewares/Third_Party/LibJPEG/source/jcmaster.c ****   /* Compute number of fully interleaved MCU rows (number of times that
 347:Middlewares/Third_Party/LibJPEG/source/jcmaster.c ****    * main controller will call coefficient controller).
 348:Middlewares/Third_Party/LibJPEG/source/jcmaster.c ****    */
 349:Middlewares/Third_Party/LibJPEG/source/jcmaster.c ****   cinfo->total_iMCU_rows = (JDIMENSION)
 350:Middlewares/Third_Party/LibJPEG/source/jcmaster.c ****     jdiv_round_up((long) cinfo->jpeg_height,
 351:Middlewares/Third_Party/LibJPEG/source/jcmaster.c **** 		  (long) (cinfo->max_v_samp_factor * cinfo->block_size));
 352:Middlewares/Third_Party/LibJPEG/source/jcmaster.c **** }
 353:Middlewares/Third_Party/LibJPEG/source/jcmaster.c **** 
 354:Middlewares/Third_Party/LibJPEG/source/jcmaster.c **** 
 355:Middlewares/Third_Party/LibJPEG/source/jcmaster.c **** #ifdef C_MULTISCAN_FILES_SUPPORTED
 356:Middlewares/Third_Party/LibJPEG/source/jcmaster.c **** 
 357:Middlewares/Third_Party/LibJPEG/source/jcmaster.c **** LOCAL(void)
 358:Middlewares/Third_Party/LibJPEG/source/jcmaster.c **** validate_script (j_compress_ptr cinfo)
 359:Middlewares/Third_Party/LibJPEG/source/jcmaster.c **** /* Verify that the scan script in cinfo->scan_info[] is valid; also
 360:Middlewares/Third_Party/LibJPEG/source/jcmaster.c ****  * determine whether it uses progressive JPEG, and set cinfo->progressive_mode.
 361:Middlewares/Third_Party/LibJPEG/source/jcmaster.c ****  */
 362:Middlewares/Third_Party/LibJPEG/source/jcmaster.c **** {
  75              		.loc 1 362 0
  76              		.cfi_startproc
  77              		@ args = 0, pretend = 0, frame = 2616
  78              		@ frame_needed = 0, uses_anonymous_args = 0
  79              	.LVL2:
  80 0000 2DE9F04F 		push	{r4, r5, r6, r7, r8, r9, r10, fp, lr}
  81              	.LCFI1:
  82              		.cfi_def_cfa_offset 36
  83              		.cfi_offset 4, -36
  84              		.cfi_offset 5, -32
  85              		.cfi_offset 6, -28
  86              		.cfi_offset 7, -24
  87              		.cfi_offset 8, -20
  88              		.cfi_offset 9, -16
  89              		.cfi_offset 10, -12
  90              		.cfi_offset 11, -8
  91              		.cfi_offset 14, -4
  92 0004 ADF63C2D 		subw	sp, sp, #2620
  93              	.LCFI2:
  94              		.cfi_def_cfa_offset 2656
  95 0008 0446     		mov	r4, r0
 363:Middlewares/Third_Party/LibJPEG/source/jcmaster.c ****   const jpeg_scan_info * scanptr;
 364:Middlewares/Third_Party/LibJPEG/source/jcmaster.c ****   int scanno, ncomps, ci, coefi, thisi;
ARM GAS  /tmp/cckGKv0o.s 			page 9


 365:Middlewares/Third_Party/LibJPEG/source/jcmaster.c ****   int Ss, Se, Ah, Al;
 366:Middlewares/Third_Party/LibJPEG/source/jcmaster.c ****   boolean component_sent[MAX_COMPONENTS];
 367:Middlewares/Third_Party/LibJPEG/source/jcmaster.c **** #ifdef C_PROGRESSIVE_SUPPORTED
 368:Middlewares/Third_Party/LibJPEG/source/jcmaster.c ****   int * last_bitpos_ptr;
 369:Middlewares/Third_Party/LibJPEG/source/jcmaster.c ****   int last_bitpos[MAX_COMPONENTS][DCTSIZE2];
 370:Middlewares/Third_Party/LibJPEG/source/jcmaster.c ****   /* -1 until that coefficient has been seen; then last Al for it */
 371:Middlewares/Third_Party/LibJPEG/source/jcmaster.c **** #endif
 372:Middlewares/Third_Party/LibJPEG/source/jcmaster.c **** 
 373:Middlewares/Third_Party/LibJPEG/source/jcmaster.c ****   if (cinfo->num_scans <= 0)
  96              		.loc 1 373 0
  97 000a D0F8C830 		ldr	r3, [r0, #200]
  98 000e 002B     		cmp	r3, #0
  99 0010 08DC     		bgt	.L5
 374:Middlewares/Third_Party/LibJPEG/source/jcmaster.c ****     ERREXIT1(cinfo, JERR_BAD_SCAN_SCRIPT, 0);
 100              		.loc 1 374 0
 101 0012 0368     		ldr	r3, [r0]
 102 0014 1422     		movs	r2, #20
 103 0016 5A61     		str	r2, [r3, #20]
 104 0018 0368     		ldr	r3, [r0]
 105 001a 0022     		movs	r2, #0
 106 001c 9A61     		str	r2, [r3, #24]
 107 001e 0368     		ldr	r3, [r0]
 108 0020 1B68     		ldr	r3, [r3]
 109 0022 9847     		blx	r3
 110              	.LVL3:
 111              	.L5:
 375:Middlewares/Third_Party/LibJPEG/source/jcmaster.c **** 
 376:Middlewares/Third_Party/LibJPEG/source/jcmaster.c ****   /* For sequential JPEG, all scans must have Ss=0, Se=DCTSIZE2-1;
 377:Middlewares/Third_Party/LibJPEG/source/jcmaster.c ****    * for progressive JPEG, no scan can have this.
 378:Middlewares/Third_Party/LibJPEG/source/jcmaster.c ****    */
 379:Middlewares/Third_Party/LibJPEG/source/jcmaster.c ****   scanptr = cinfo->scan_info;
 112              		.loc 1 379 0
 113 0024 D4F8CCB0 		ldr	fp, [r4, #204]
 114              	.LVL4:
 380:Middlewares/Third_Party/LibJPEG/source/jcmaster.c ****   if (scanptr->Ss != 0 || scanptr->Se != DCTSIZE2-1) {
 115              		.loc 1 380 0
 116 0028 DBF81430 		ldr	r3, [fp, #20]
 117 002c 1BB9     		cbnz	r3, .L6
 118              		.loc 1 380 0 is_stmt 0 discriminator 1
 119 002e DBF81830 		ldr	r3, [fp, #24]
 120 0032 3F2B     		cmp	r3, #63
 121 0034 12D0     		beq	.L7
 122              	.L6:
 381:Middlewares/Third_Party/LibJPEG/source/jcmaster.c **** #ifdef C_PROGRESSIVE_SUPPORTED
 382:Middlewares/Third_Party/LibJPEG/source/jcmaster.c ****     cinfo->progressive_mode = TRUE;
 123              		.loc 1 382 0 is_stmt 1
 124 0036 0123     		movs	r3, #1
 125 0038 C4F80831 		str	r3, [r4, #264]
 126              	.LVL5:
 383:Middlewares/Third_Party/LibJPEG/source/jcmaster.c ****     last_bitpos_ptr = & last_bitpos[0][0];
 127              		.loc 1 383 0
 128 003c 04AA     		add	r2, sp, #16
 129              	.LVL6:
 384:Middlewares/Third_Party/LibJPEG/source/jcmaster.c ****     for (ci = 0; ci < cinfo->num_components; ci++) 
 130              		.loc 1 384 0
 131 003e 0020     		movs	r0, #0
 132 0040 07E0     		b	.L8
ARM GAS  /tmp/cckGKv0o.s 			page 10


 133              	.LVL7:
 134              	.L9:
 385:Middlewares/Third_Party/LibJPEG/source/jcmaster.c ****       for (coefi = 0; coefi < DCTSIZE2; coefi++)
 386:Middlewares/Third_Party/LibJPEG/source/jcmaster.c **** 	*last_bitpos_ptr++ = -1;
 135              		.loc 1 386 0 discriminator 3
 136 0042 4FF0FF31 		mov	r1, #-1
 137 0046 1160     		str	r1, [r2]
 385:Middlewares/Third_Party/LibJPEG/source/jcmaster.c ****       for (coefi = 0; coefi < DCTSIZE2; coefi++)
 138              		.loc 1 385 0 discriminator 3
 139 0048 0133     		adds	r3, r3, #1
 140              	.LVL8:
 141              		.loc 1 386 0 discriminator 3
 142 004a 0432     		adds	r2, r2, #4
 143              	.LVL9:
 144              	.L10:
 385:Middlewares/Third_Party/LibJPEG/source/jcmaster.c ****       for (coefi = 0; coefi < DCTSIZE2; coefi++)
 145              		.loc 1 385 0 discriminator 1
 146 004c 3F2B     		cmp	r3, #63
 147 004e F8DD     		ble	.L9
 384:Middlewares/Third_Party/LibJPEG/source/jcmaster.c ****     for (ci = 0; ci < cinfo->num_components; ci++) 
 148              		.loc 1 384 0 discriminator 2
 149 0050 0130     		adds	r0, r0, #1
 150              	.LVL10:
 151              	.L8:
 384:Middlewares/Third_Party/LibJPEG/source/jcmaster.c ****     for (ci = 0; ci < cinfo->num_components; ci++) 
 152              		.loc 1 384 0 is_stmt 0 discriminator 1
 153 0052 E36C     		ldr	r3, [r4, #76]
 154 0054 8342     		cmp	r3, r0
 155 0056 10DD     		ble	.L11
 385:Middlewares/Third_Party/LibJPEG/source/jcmaster.c ****       for (coefi = 0; coefi < DCTSIZE2; coefi++)
 156              		.loc 1 385 0 is_stmt 1
 157 0058 0023     		movs	r3, #0
 158 005a F7E7     		b	.L10
 159              	.LVL11:
 160              	.L7:
 387:Middlewares/Third_Party/LibJPEG/source/jcmaster.c **** #else
 388:Middlewares/Third_Party/LibJPEG/source/jcmaster.c ****     ERREXIT(cinfo, JERR_NOT_COMPILED);
 389:Middlewares/Third_Party/LibJPEG/source/jcmaster.c **** #endif
 390:Middlewares/Third_Party/LibJPEG/source/jcmaster.c ****   } else {
 391:Middlewares/Third_Party/LibJPEG/source/jcmaster.c ****     cinfo->progressive_mode = FALSE;
 161              		.loc 1 391 0
 162 005c 0023     		movs	r3, #0
 163 005e C4F80831 		str	r3, [r4, #264]
 164              	.LVL12:
 392:Middlewares/Third_Party/LibJPEG/source/jcmaster.c ****     for (ci = 0; ci < cinfo->num_components; ci++) 
 165              		.loc 1 392 0
 166 0062 07E0     		b	.L12
 167              	.LVL13:
 168              	.L13:
 393:Middlewares/Third_Party/LibJPEG/source/jcmaster.c ****       component_sent[ci] = FALSE;
 169              		.loc 1 393 0 discriminator 3
 170 0064 0DF63822 		addw	r2, sp, #2616
 171 0068 02EB8302 		add	r2, r2, r3, lsl #2
 172 006c 0021     		movs	r1, #0
 173 006e 42F8281C 		str	r1, [r2, #-40]
 392:Middlewares/Third_Party/LibJPEG/source/jcmaster.c ****     for (ci = 0; ci < cinfo->num_components; ci++) 
 174              		.loc 1 392 0 discriminator 3
ARM GAS  /tmp/cckGKv0o.s 			page 11


 175 0072 0133     		adds	r3, r3, #1
 176              	.LVL14:
 177              	.L12:
 392:Middlewares/Third_Party/LibJPEG/source/jcmaster.c ****     for (ci = 0; ci < cinfo->num_components; ci++) 
 178              		.loc 1 392 0 is_stmt 0 discriminator 1
 179 0074 E26C     		ldr	r2, [r4, #76]
 180 0076 9A42     		cmp	r2, r3
 181 0078 F4DC     		bgt	.L13
 182              	.LVL15:
 183              	.L11:
 184 007a 4FF00109 		mov	r9, #1
 185 007e 4F46     		mov	r7, r9
 186 0080 CDE0     		b	.L39
 187              	.LVL16:
 188              	.L15:
 394:Middlewares/Third_Party/LibJPEG/source/jcmaster.c ****   }
 395:Middlewares/Third_Party/LibJPEG/source/jcmaster.c **** 
 396:Middlewares/Third_Party/LibJPEG/source/jcmaster.c ****   for (scanno = 1; scanno <= cinfo->num_scans; scanptr++, scanno++) {
 397:Middlewares/Third_Party/LibJPEG/source/jcmaster.c ****     /* Validate component indexes */
 398:Middlewares/Third_Party/LibJPEG/source/jcmaster.c ****     ncomps = scanptr->comps_in_scan;
 399:Middlewares/Third_Party/LibJPEG/source/jcmaster.c ****     if (ncomps <= 0 || ncomps > MAX_COMPS_IN_SCAN)
 400:Middlewares/Third_Party/LibJPEG/source/jcmaster.c ****       ERREXIT2(cinfo, JERR_COMPONENT_COUNT, ncomps, MAX_COMPS_IN_SCAN);
 401:Middlewares/Third_Party/LibJPEG/source/jcmaster.c ****     for (ci = 0; ci < ncomps; ci++) {
 402:Middlewares/Third_Party/LibJPEG/source/jcmaster.c ****       thisi = scanptr->component_index[ci];
 403:Middlewares/Third_Party/LibJPEG/source/jcmaster.c ****       if (thisi < 0 || thisi >= cinfo->num_components)
 404:Middlewares/Third_Party/LibJPEG/source/jcmaster.c **** 	ERREXIT1(cinfo, JERR_BAD_SCAN_SCRIPT, scanno);
 189              		.loc 1 404 0 is_stmt 1
 190 0082 2368     		ldr	r3, [r4]
 191 0084 1422     		movs	r2, #20
 192 0086 5A61     		str	r2, [r3, #20]
 193 0088 2368     		ldr	r3, [r4]
 194 008a 9F61     		str	r7, [r3, #24]
 195 008c 2368     		ldr	r3, [r4]
 196 008e 1B68     		ldr	r3, [r3]
 197 0090 2046     		mov	r0, r4
 198 0092 9847     		blx	r3
 199              	.LVL17:
 200              	.L16:
 405:Middlewares/Third_Party/LibJPEG/source/jcmaster.c ****       /* Components must appear in SOF order within each scan */
 406:Middlewares/Third_Party/LibJPEG/source/jcmaster.c ****       if (ci > 0 && thisi <= scanptr->component_index[ci-1])
 201              		.loc 1 406 0
 202 0094 002D     		cmp	r5, #0
 203 0096 0EDD     		ble	.L17
 204              		.loc 1 406 0 is_stmt 0 discriminator 1
 205 0098 6B1E     		subs	r3, r5, #1
 206 009a 0BEB8303 		add	r3, fp, r3, lsl #2
 207 009e 5B68     		ldr	r3, [r3, #4]
 208 00a0 B342     		cmp	r3, r6
 209 00a2 08DB     		blt	.L17
 407:Middlewares/Third_Party/LibJPEG/source/jcmaster.c **** 	ERREXIT1(cinfo, JERR_BAD_SCAN_SCRIPT, scanno);
 210              		.loc 1 407 0 is_stmt 1
 211 00a4 2368     		ldr	r3, [r4]
 212 00a6 1422     		movs	r2, #20
 213 00a8 5A61     		str	r2, [r3, #20]
 214 00aa 2368     		ldr	r3, [r4]
 215 00ac 9F61     		str	r7, [r3, #24]
 216 00ae 2368     		ldr	r3, [r4]
ARM GAS  /tmp/cckGKv0o.s 			page 12


 217 00b0 1B68     		ldr	r3, [r3]
 218 00b2 2046     		mov	r0, r4
 219 00b4 9847     		blx	r3
 220              	.LVL18:
 221              	.L17:
 401:Middlewares/Third_Party/LibJPEG/source/jcmaster.c ****       thisi = scanptr->component_index[ci];
 222              		.loc 1 401 0 discriminator 2
 223 00b6 0135     		adds	r5, r5, #1
 224              	.LVL19:
 225              	.L18:
 401:Middlewares/Third_Party/LibJPEG/source/jcmaster.c ****       thisi = scanptr->component_index[ci];
 226              		.loc 1 401 0 is_stmt 0 discriminator 1
 227 00b8 5545     		cmp	r5, r10
 228 00ba 08DA     		bge	.L51
 402:Middlewares/Third_Party/LibJPEG/source/jcmaster.c ****       if (thisi < 0 || thisi >= cinfo->num_components)
 229              		.loc 1 402 0 is_stmt 1
 230 00bc 0BEB8503 		add	r3, fp, r5, lsl #2
 231 00c0 5E68     		ldr	r6, [r3, #4]
 232              	.LVL20:
 403:Middlewares/Third_Party/LibJPEG/source/jcmaster.c **** 	ERREXIT1(cinfo, JERR_BAD_SCAN_SCRIPT, scanno);
 233              		.loc 1 403 0
 234 00c2 002E     		cmp	r6, #0
 235 00c4 DDDB     		blt	.L15
 403:Middlewares/Third_Party/LibJPEG/source/jcmaster.c **** 	ERREXIT1(cinfo, JERR_BAD_SCAN_SCRIPT, scanno);
 236              		.loc 1 403 0 is_stmt 0 discriminator 1
 237 00c6 E36C     		ldr	r3, [r4, #76]
 238 00c8 B342     		cmp	r3, r6
 239 00ca E3DC     		bgt	.L16
 240 00cc D9E7     		b	.L15
 241              	.LVL21:
 242              	.L51:
 408:Middlewares/Third_Party/LibJPEG/source/jcmaster.c ****     }
 409:Middlewares/Third_Party/LibJPEG/source/jcmaster.c ****     /* Validate progression parameters */
 410:Middlewares/Third_Party/LibJPEG/source/jcmaster.c ****     Ss = scanptr->Ss;
 243              		.loc 1 410 0 is_stmt 1
 244 00ce DBF81420 		ldr	r2, [fp, #20]
 245 00d2 0192     		str	r2, [sp, #4]
 246              	.LVL22:
 411:Middlewares/Third_Party/LibJPEG/source/jcmaster.c ****     Se = scanptr->Se;
 247              		.loc 1 411 0
 248 00d4 DBF81890 		ldr	r9, [fp, #24]
 249              	.LVL23:
 412:Middlewares/Third_Party/LibJPEG/source/jcmaster.c ****     Ah = scanptr->Ah;
 250              		.loc 1 412 0
 251 00d8 DBF81C30 		ldr	r3, [fp, #28]
 252 00dc 1D46     		mov	r5, r3
 253              	.LVL24:
 413:Middlewares/Third_Party/LibJPEG/source/jcmaster.c ****     Al = scanptr->Al;
 254              		.loc 1 413 0
 255 00de DBF82030 		ldr	r3, [fp, #32]
 256              	.LVL25:
 257 00e2 1E46     		mov	r6, r3
 258              	.LVL26:
 414:Middlewares/Third_Party/LibJPEG/source/jcmaster.c ****     if (cinfo->progressive_mode) {
 259              		.loc 1 414 0
 260 00e4 D4F80831 		ldr	r3, [r4, #264]
 261              	.LVL27:
ARM GAS  /tmp/cckGKv0o.s 			page 13


 262 00e8 002B     		cmp	r3, #0
 263 00ea 00F0B180 		beq	.L20
 415:Middlewares/Third_Party/LibJPEG/source/jcmaster.c **** #ifdef C_PROGRESSIVE_SUPPORTED
 416:Middlewares/Third_Party/LibJPEG/source/jcmaster.c ****       /* The JPEG spec simply gives the ranges 0..13 for Ah and Al, but that
 417:Middlewares/Third_Party/LibJPEG/source/jcmaster.c ****        * seems wrong: the upper bound ought to depend on data precision.
 418:Middlewares/Third_Party/LibJPEG/source/jcmaster.c ****        * Perhaps they really meant 0..N+1 for N-bit precision.
 419:Middlewares/Third_Party/LibJPEG/source/jcmaster.c ****        * Here we allow 0..10 for 8-bit data; Al larger than 10 results in
 420:Middlewares/Third_Party/LibJPEG/source/jcmaster.c ****        * out-of-range reconstructed DC values during the first DC scan,
 421:Middlewares/Third_Party/LibJPEG/source/jcmaster.c ****        * which might cause problems for some decoders.
 422:Middlewares/Third_Party/LibJPEG/source/jcmaster.c ****        */
 423:Middlewares/Third_Party/LibJPEG/source/jcmaster.c **** #if BITS_IN_JSAMPLE == 8
 424:Middlewares/Third_Party/LibJPEG/source/jcmaster.c **** #define MAX_AH_AL 10
 425:Middlewares/Third_Party/LibJPEG/source/jcmaster.c **** #else
 426:Middlewares/Third_Party/LibJPEG/source/jcmaster.c **** #define MAX_AH_AL 13
 427:Middlewares/Third_Party/LibJPEG/source/jcmaster.c **** #endif
 428:Middlewares/Third_Party/LibJPEG/source/jcmaster.c ****       if (Ss < 0 || Ss >= DCTSIZE2 || Se < Ss || Se >= DCTSIZE2 ||
 264              		.loc 1 428 0
 265 00ee 1346     		mov	r3, r2
 266 00f0 4A45     		cmp	r2, r9
 267 00f2 D4BF     		ite	le
 268 00f4 0023     		movle	r3, #0
 269 00f6 0123     		movgt	r3, #1
 270 00f8 3F2A     		cmp	r2, #63
 271 00fa 88BF     		it	hi
 272 00fc 43F00103 		orrhi	r3, r3, #1
 273 0100 BBB1     		cbz	r3, .L52
 274              	.L21:
 429:Middlewares/Third_Party/LibJPEG/source/jcmaster.c **** 	  Ah < 0 || Ah > MAX_AH_AL || Al < 0 || Al > MAX_AH_AL)
 430:Middlewares/Third_Party/LibJPEG/source/jcmaster.c **** 	ERREXIT1(cinfo, JERR_BAD_PROG_SCRIPT, scanno);
 275              		.loc 1 430 0
 276 0102 2368     		ldr	r3, [r4]
 277 0104 1222     		movs	r2, #18
 278              	.LVL28:
 279 0106 5A61     		str	r2, [r3, #20]
 280              	.LVL29:
 281 0108 2368     		ldr	r3, [r4]
 282 010a 9F61     		str	r7, [r3, #24]
 283 010c 2368     		ldr	r3, [r4]
 284 010e 1B68     		ldr	r3, [r3]
 285 0110 2046     		mov	r0, r4
 286 0112 9847     		blx	r3
 287              	.LVL30:
 288              	.L22:
 431:Middlewares/Third_Party/LibJPEG/source/jcmaster.c ****       if (Ss == 0) {
 289              		.loc 1 431 0
 290 0114 019B     		ldr	r3, [sp, #4]
 291 0116 D3B9     		cbnz	r3, .L23
 432:Middlewares/Third_Party/LibJPEG/source/jcmaster.c **** 	if (Se != 0)		/* DC and AC together not OK */
 292              		.loc 1 432 0
 293 0118 B9F1000F 		cmp	r9, #0
 294 011c 23D0     		beq	.L24
 433:Middlewares/Third_Party/LibJPEG/source/jcmaster.c **** 	  ERREXIT1(cinfo, JERR_BAD_PROG_SCRIPT, scanno);
 295              		.loc 1 433 0
 296 011e 2368     		ldr	r3, [r4]
 297 0120 1222     		movs	r2, #18
 298 0122 5A61     		str	r2, [r3, #20]
 299 0124 2368     		ldr	r3, [r4]
ARM GAS  /tmp/cckGKv0o.s 			page 14


 300 0126 9F61     		str	r7, [r3, #24]
 301 0128 2368     		ldr	r3, [r4]
 302 012a 1B68     		ldr	r3, [r3]
 303 012c 2046     		mov	r0, r4
 304 012e 9847     		blx	r3
 305              	.LVL31:
 306 0130 19E0     		b	.L24
 307              	.LVL32:
 308              	.L52:
 429:Middlewares/Third_Party/LibJPEG/source/jcmaster.c **** 	ERREXIT1(cinfo, JERR_BAD_PROG_SCRIPT, scanno);
 309              		.loc 1 429 0 discriminator 1
 310 0132 EB0F     		lsrs	r3, r5, #31
 428:Middlewares/Third_Party/LibJPEG/source/jcmaster.c **** 	  Ah < 0 || Ah > MAX_AH_AL || Al < 0 || Al > MAX_AH_AL)
 311              		.loc 1 428 0 discriminator 1
 312 0134 B9F13F0F 		cmp	r9, #63
 313 0138 E3DC     		bgt	.L21
 314 013a 002B     		cmp	r3, #0
 315 013c E1D1     		bne	.L21
 429:Middlewares/Third_Party/LibJPEG/source/jcmaster.c **** 	ERREXIT1(cinfo, JERR_BAD_PROG_SCRIPT, scanno);
 316              		.loc 1 429 0
 317 013e F30F     		lsrs	r3, r6, #31
 318 0140 0A2D     		cmp	r5, #10
 319 0142 DEDC     		bgt	.L21
 320 0144 002B     		cmp	r3, #0
 321 0146 DCD1     		bne	.L21
 429:Middlewares/Third_Party/LibJPEG/source/jcmaster.c **** 	ERREXIT1(cinfo, JERR_BAD_PROG_SCRIPT, scanno);
 322              		.loc 1 429 0 is_stmt 0 discriminator 1
 323 0148 0A2E     		cmp	r6, #10
 324 014a E3DD     		ble	.L22
 325 014c D9E7     		b	.L21
 326              	.LVL33:
 327              	.L23:
 434:Middlewares/Third_Party/LibJPEG/source/jcmaster.c ****       } else {
 435:Middlewares/Third_Party/LibJPEG/source/jcmaster.c **** 	if (ncomps != 1)	/* AC scans must be for only one component */
 328              		.loc 1 435 0 is_stmt 1
 329 014e BAF1010F 		cmp	r10, #1
 330 0152 08D0     		beq	.L24
 436:Middlewares/Third_Party/LibJPEG/source/jcmaster.c **** 	  ERREXIT1(cinfo, JERR_BAD_PROG_SCRIPT, scanno);
 331              		.loc 1 436 0
 332 0154 2368     		ldr	r3, [r4]
 333 0156 1222     		movs	r2, #18
 334 0158 5A61     		str	r2, [r3, #20]
 335 015a 2368     		ldr	r3, [r4]
 336 015c 9F61     		str	r7, [r3, #24]
 337 015e 2368     		ldr	r3, [r4]
 338 0160 1B68     		ldr	r3, [r3]
 339 0162 2046     		mov	r0, r4
 340 0164 9847     		blx	r3
 341              	.LVL34:
 342              	.L24:
 392:Middlewares/Third_Party/LibJPEG/source/jcmaster.c ****       component_sent[ci] = FALSE;
 343              		.loc 1 392 0 discriminator 1
 344 0166 0023     		movs	r3, #0
 345 0168 0093     		str	r3, [sp]
 346 016a CDF808B0 		str	fp, [sp, #8]
 347 016e BB46     		mov	fp, r7
 348              	.LVL35:
ARM GAS  /tmp/cckGKv0o.s 			page 15


 349 0170 CDF80CA0 		str	r10, [sp, #12]
 350 0174 AA46     		mov	r10, r5
 351              	.LVL36:
 352 0176 3746     		mov	r7, r6
 353              	.LVL37:
 354 0178 2CE0     		b	.L31
 355              	.LVL38:
 356              	.L54:
 437:Middlewares/Third_Party/LibJPEG/source/jcmaster.c ****       }
 438:Middlewares/Third_Party/LibJPEG/source/jcmaster.c ****       for (ci = 0; ci < ncomps; ci++) {
 439:Middlewares/Third_Party/LibJPEG/source/jcmaster.c **** 	last_bitpos_ptr = & last_bitpos[scanptr->component_index[ci]][0];
 440:Middlewares/Third_Party/LibJPEG/source/jcmaster.c **** 	if (Ss != 0 && last_bitpos_ptr[0] < 0) /* AC without prior DC scan */
 441:Middlewares/Third_Party/LibJPEG/source/jcmaster.c **** 	  ERREXIT1(cinfo, JERR_BAD_PROG_SCRIPT, scanno);
 442:Middlewares/Third_Party/LibJPEG/source/jcmaster.c **** 	for (coefi = Ss; coefi <= Se; coefi++) {
 443:Middlewares/Third_Party/LibJPEG/source/jcmaster.c **** 	  if (last_bitpos_ptr[coefi] < 0) {
 444:Middlewares/Third_Party/LibJPEG/source/jcmaster.c **** 	    /* first scan of this coefficient */
 445:Middlewares/Third_Party/LibJPEG/source/jcmaster.c **** 	    if (Ah != 0)
 357              		.loc 1 445 0
 358 017a BAF1000F 		cmp	r10, #0
 359 017e 14D0     		beq	.L27
 446:Middlewares/Third_Party/LibJPEG/source/jcmaster.c **** 	      ERREXIT1(cinfo, JERR_BAD_PROG_SCRIPT, scanno);
 360              		.loc 1 446 0
 361 0180 2368     		ldr	r3, [r4]
 362 0182 1222     		movs	r2, #18
 363 0184 5A61     		str	r2, [r3, #20]
 364 0186 2368     		ldr	r3, [r4]
 365 0188 C3F818B0 		str	fp, [r3, #24]
 366 018c 2368     		ldr	r3, [r4]
 367 018e 1B68     		ldr	r3, [r3]
 368 0190 2046     		mov	r0, r4
 369 0192 9847     		blx	r3
 370              	.LVL39:
 371 0194 09E0     		b	.L27
 372              	.L28:
 447:Middlewares/Third_Party/LibJPEG/source/jcmaster.c **** 	  } else {
 448:Middlewares/Third_Party/LibJPEG/source/jcmaster.c **** 	    /* not first scan */
 449:Middlewares/Third_Party/LibJPEG/source/jcmaster.c **** 	    if (Ah != last_bitpos_ptr[coefi] || Al != Ah-1)
 450:Middlewares/Third_Party/LibJPEG/source/jcmaster.c **** 	      ERREXIT1(cinfo, JERR_BAD_PROG_SCRIPT, scanno);
 373              		.loc 1 450 0
 374 0196 2368     		ldr	r3, [r4]
 375 0198 1222     		movs	r2, #18
 376 019a 5A61     		str	r2, [r3, #20]
 377 019c 2368     		ldr	r3, [r4]
 378 019e C3F818B0 		str	fp, [r3, #24]
 379 01a2 2368     		ldr	r3, [r4]
 380 01a4 1B68     		ldr	r3, [r3]
 381 01a6 2046     		mov	r0, r4
 382 01a8 9847     		blx	r3
 383              	.LVL40:
 384              	.L27:
 451:Middlewares/Third_Party/LibJPEG/source/jcmaster.c **** 	  }
 452:Middlewares/Third_Party/LibJPEG/source/jcmaster.c **** 	  last_bitpos_ptr[coefi] = Al;
 385              		.loc 1 452 0 discriminator 2
 386 01aa 46F80870 		str	r7, [r6, r8]
 442:Middlewares/Third_Party/LibJPEG/source/jcmaster.c **** 	  if (last_bitpos_ptr[coefi] < 0) {
 387              		.loc 1 442 0 discriminator 2
 388 01ae 0135     		adds	r5, r5, #1
ARM GAS  /tmp/cckGKv0o.s 			page 16


 389              	.LVL41:
 390              	.L29:
 442:Middlewares/Third_Party/LibJPEG/source/jcmaster.c **** 	  if (last_bitpos_ptr[coefi] < 0) {
 391              		.loc 1 442 0 is_stmt 0 discriminator 1
 392 01b0 4D45     		cmp	r5, r9
 393 01b2 0CDC     		bgt	.L53
 443:Middlewares/Third_Party/LibJPEG/source/jcmaster.c **** 	    /* first scan of this coefficient */
 394              		.loc 1 443 0 is_stmt 1
 395 01b4 4FEA8508 		lsl	r8, r5, #2
 396 01b8 56F82530 		ldr	r3, [r6, r5, lsl #2]
 397 01bc 002B     		cmp	r3, #0
 398 01be DCDB     		blt	.L54
 449:Middlewares/Third_Party/LibJPEG/source/jcmaster.c **** 	      ERREXIT1(cinfo, JERR_BAD_PROG_SCRIPT, scanno);
 399              		.loc 1 449 0
 400 01c0 5345     		cmp	r3, r10
 401 01c2 E8D1     		bne	.L28
 449:Middlewares/Third_Party/LibJPEG/source/jcmaster.c **** 	      ERREXIT1(cinfo, JERR_BAD_PROG_SCRIPT, scanno);
 402              		.loc 1 449 0 is_stmt 0 discriminator 1
 403 01c4 0AF1FF33 		add	r3, r10, #-1
 404 01c8 BB42     		cmp	r3, r7
 405 01ca E4D1     		bne	.L28
 406 01cc EDE7     		b	.L27
 407              	.L53:
 438:Middlewares/Third_Party/LibJPEG/source/jcmaster.c **** 	last_bitpos_ptr = & last_bitpos[scanptr->component_index[ci]][0];
 408              		.loc 1 438 0 is_stmt 1 discriminator 2
 409 01ce 009B     		ldr	r3, [sp]
 410 01d0 0133     		adds	r3, r3, #1
 411 01d2 0093     		str	r3, [sp]
 412              	.LVL42:
 413              	.L31:
 438:Middlewares/Third_Party/LibJPEG/source/jcmaster.c **** 	last_bitpos_ptr = & last_bitpos[scanptr->component_index[ci]][0];
 414              		.loc 1 438 0 is_stmt 0 discriminator 1
 415 01d4 009B     		ldr	r3, [sp]
 416 01d6 039A     		ldr	r2, [sp, #12]
 417 01d8 9342     		cmp	r3, r2
 418 01da 1ADA     		bge	.L55
 439:Middlewares/Third_Party/LibJPEG/source/jcmaster.c **** 	if (Ss != 0 && last_bitpos_ptr[0] < 0) /* AC without prior DC scan */
 419              		.loc 1 439 0 is_stmt 1
 420 01dc 029B     		ldr	r3, [sp, #8]
 421 01de 009A     		ldr	r2, [sp]
 422 01e0 03EB8203 		add	r3, r3, r2, lsl #2
 423 01e4 5B68     		ldr	r3, [r3, #4]
 424 01e6 04AA     		add	r2, sp, #16
 425 01e8 02EB0326 		add	r6, r2, r3, lsl #8
 426              	.LVL43:
 440:Middlewares/Third_Party/LibJPEG/source/jcmaster.c **** 	  ERREXIT1(cinfo, JERR_BAD_PROG_SCRIPT, scanno);
 427              		.loc 1 440 0
 428 01ec 019A     		ldr	r2, [sp, #4]
 429 01ee 72B1     		cbz	r2, .L25
 440:Middlewares/Third_Party/LibJPEG/source/jcmaster.c **** 	  ERREXIT1(cinfo, JERR_BAD_PROG_SCRIPT, scanno);
 430              		.loc 1 440 0 is_stmt 0 discriminator 1
 431 01f0 1B02     		lsls	r3, r3, #8
 432 01f2 04AA     		add	r2, sp, #16
 433 01f4 D358     		ldr	r3, [r2, r3]
 434 01f6 002B     		cmp	r3, #0
 435 01f8 09DA     		bge	.L25
 441:Middlewares/Third_Party/LibJPEG/source/jcmaster.c **** 	for (coefi = Ss; coefi <= Se; coefi++) {
ARM GAS  /tmp/cckGKv0o.s 			page 17


 436              		.loc 1 441 0 is_stmt 1
 437 01fa 2368     		ldr	r3, [r4]
 438 01fc 1222     		movs	r2, #18
 439 01fe 5A61     		str	r2, [r3, #20]
 440 0200 2368     		ldr	r3, [r4]
 441 0202 C3F818B0 		str	fp, [r3, #24]
 442 0206 2368     		ldr	r3, [r4]
 443 0208 1B68     		ldr	r3, [r3]
 444 020a 2046     		mov	r0, r4
 445 020c 9847     		blx	r3
 446              	.LVL44:
 447              	.L25:
 392:Middlewares/Third_Party/LibJPEG/source/jcmaster.c ****       component_sent[ci] = FALSE;
 448              		.loc 1 392 0 discriminator 1
 449 020e 019D     		ldr	r5, [sp, #4]
 450 0210 CEE7     		b	.L29
 451              	.LVL45:
 452              	.L55:
 453 0212 5F46     		mov	r7, fp
 454              	.LVL46:
 455 0214 DDF808B0 		ldr	fp, [sp, #8]
 456              	.LVL47:
 457              	.L33:
 396:Middlewares/Third_Party/LibJPEG/source/jcmaster.c ****     /* Validate component indexes */
 458              		.loc 1 396 0 discriminator 2
 459 0218 0BF1240B 		add	fp, fp, #36
 460              	.LVL48:
 461 021c 0137     		adds	r7, r7, #1
 462              	.LVL49:
 463              	.L39:
 396:Middlewares/Third_Party/LibJPEG/source/jcmaster.c ****     /* Validate component indexes */
 464              		.loc 1 396 0 is_stmt 0 discriminator 1
 465 021e D4F8C830 		ldr	r3, [r4, #200]
 466 0222 BB42     		cmp	r3, r7
 467 0224 4BDB     		blt	.L56
 398:Middlewares/Third_Party/LibJPEG/source/jcmaster.c ****     if (ncomps <= 0 || ncomps > MAX_COMPS_IN_SCAN)
 468              		.loc 1 398 0 is_stmt 1
 469 0226 DBF800A0 		ldr	r10, [fp]
 470              	.LVL50:
 399:Middlewares/Third_Party/LibJPEG/source/jcmaster.c ****       ERREXIT2(cinfo, JERR_COMPONENT_COUNT, ncomps, MAX_COMPS_IN_SCAN);
 471              		.loc 1 399 0
 472 022a 0AF1FF33 		add	r3, r10, #-1
 473 022e 032B     		cmp	r3, #3
 474 0230 0CD9     		bls	.L14
 400:Middlewares/Third_Party/LibJPEG/source/jcmaster.c ****     for (ci = 0; ci < ncomps; ci++) {
 475              		.loc 1 400 0
 476 0232 2368     		ldr	r3, [r4]
 477 0234 1B22     		movs	r2, #27
 478 0236 5A61     		str	r2, [r3, #20]
 479 0238 2368     		ldr	r3, [r4]
 480 023a C3F818A0 		str	r10, [r3, #24]
 481 023e 2368     		ldr	r3, [r4]
 482 0240 0422     		movs	r2, #4
 483 0242 DA61     		str	r2, [r3, #28]
 484 0244 2368     		ldr	r3, [r4]
 485 0246 1B68     		ldr	r3, [r3]
 486 0248 2046     		mov	r0, r4
ARM GAS  /tmp/cckGKv0o.s 			page 18


 487 024a 9847     		blx	r3
 488              	.LVL51:
 489              	.L14:
 392:Middlewares/Third_Party/LibJPEG/source/jcmaster.c ****       component_sent[ci] = FALSE;
 490              		.loc 1 392 0 discriminator 1
 491 024c 0025     		movs	r5, #0
 492 024e 33E7     		b	.L18
 493              	.LVL52:
 494              	.L20:
 453:Middlewares/Third_Party/LibJPEG/source/jcmaster.c **** 	}
 454:Middlewares/Third_Party/LibJPEG/source/jcmaster.c ****       }
 455:Middlewares/Third_Party/LibJPEG/source/jcmaster.c **** #endif
 456:Middlewares/Third_Party/LibJPEG/source/jcmaster.c ****     } else {
 457:Middlewares/Third_Party/LibJPEG/source/jcmaster.c ****       /* For sequential JPEG, all progression parameters must be these: */
 458:Middlewares/Third_Party/LibJPEG/source/jcmaster.c ****       if (Ss != 0 || Se != DCTSIZE2-1 || Ah != 0 || Al != 0)
 495              		.loc 1 458 0
 496 0250 B9F13F03 		subs	r3, r9, #63
 497 0254 18BF     		it	ne
 498 0256 0123     		movne	r3, #1
 499 0258 019A     		ldr	r2, [sp, #4]
 500              	.LVL53:
 501 025a 002A     		cmp	r2, #0
 502 025c 18BF     		it	ne
 503 025e 0123     		movne	r3, #1
 504 0260 53B1     		cbz	r3, .L57
 505              	.L34:
 459:Middlewares/Third_Party/LibJPEG/source/jcmaster.c **** 	ERREXIT1(cinfo, JERR_BAD_PROG_SCRIPT, scanno);
 506              		.loc 1 459 0
 507 0262 2368     		ldr	r3, [r4]
 508 0264 1222     		movs	r2, #18
 509 0266 5A61     		str	r2, [r3, #20]
 510              	.LVL54:
 511 0268 2368     		ldr	r3, [r4]
 512 026a 9F61     		str	r7, [r3, #24]
 513 026c 2368     		ldr	r3, [r4]
 514 026e 1B68     		ldr	r3, [r3]
 515 0270 2046     		mov	r0, r4
 516 0272 9847     		blx	r3
 517              	.LVL55:
 518              	.L35:
 392:Middlewares/Third_Party/LibJPEG/source/jcmaster.c ****       component_sent[ci] = FALSE;
 519              		.loc 1 392 0 discriminator 1
 520 0274 0026     		movs	r6, #0
 521              	.LVL56:
 522 0276 0BE0     		b	.L37
 523              	.LVL57:
 524              	.L57:
 458:Middlewares/Third_Party/LibJPEG/source/jcmaster.c **** 	ERREXIT1(cinfo, JERR_BAD_PROG_SCRIPT, scanno);
 525              		.loc 1 458 0 discriminator 1
 526 0278 2B46     		mov	r3, r5
 527 027a 3343     		orrs	r3, r3, r6
 528 027c FAD0     		beq	.L35
 529 027e F0E7     		b	.L34
 530              	.LVL58:
 531              	.L36:
 460:Middlewares/Third_Party/LibJPEG/source/jcmaster.c ****       /* Make sure components are not sent twice */
 461:Middlewares/Third_Party/LibJPEG/source/jcmaster.c ****       for (ci = 0; ci < ncomps; ci++) {
ARM GAS  /tmp/cckGKv0o.s 			page 19


 462:Middlewares/Third_Party/LibJPEG/source/jcmaster.c **** 	thisi = scanptr->component_index[ci];
 463:Middlewares/Third_Party/LibJPEG/source/jcmaster.c **** 	if (component_sent[thisi])
 464:Middlewares/Third_Party/LibJPEG/source/jcmaster.c **** 	  ERREXIT1(cinfo, JERR_BAD_SCAN_SCRIPT, scanno);
 465:Middlewares/Third_Party/LibJPEG/source/jcmaster.c **** 	component_sent[thisi] = TRUE;
 532              		.loc 1 465 0 discriminator 2
 533 0280 0DF63823 		addw	r3, sp, #2616
 534 0284 03EB8505 		add	r5, r3, r5, lsl #2
 535              	.LVL59:
 536 0288 0123     		movs	r3, #1
 537 028a 45F8283C 		str	r3, [r5, #-40]
 461:Middlewares/Third_Party/LibJPEG/source/jcmaster.c **** 	thisi = scanptr->component_index[ci];
 538              		.loc 1 461 0 discriminator 2
 539 028e 1E44     		add	r6, r6, r3
 540              	.LVL60:
 541              	.L37:
 461:Middlewares/Third_Party/LibJPEG/source/jcmaster.c **** 	thisi = scanptr->component_index[ci];
 542              		.loc 1 461 0 is_stmt 0 discriminator 1
 543 0290 5645     		cmp	r6, r10
 544 0292 C1DA     		bge	.L33
 462:Middlewares/Third_Party/LibJPEG/source/jcmaster.c **** 	if (component_sent[thisi])
 545              		.loc 1 462 0 is_stmt 1
 546 0294 0BEB8603 		add	r3, fp, r6, lsl #2
 547 0298 5D68     		ldr	r5, [r3, #4]
 548              	.LVL61:
 463:Middlewares/Third_Party/LibJPEG/source/jcmaster.c **** 	  ERREXIT1(cinfo, JERR_BAD_SCAN_SCRIPT, scanno);
 549              		.loc 1 463 0
 550 029a 0DF63823 		addw	r3, sp, #2616
 551 029e 03EB8503 		add	r3, r3, r5, lsl #2
 552 02a2 53F8283C 		ldr	r3, [r3, #-40]
 553 02a6 002B     		cmp	r3, #0
 554 02a8 EAD0     		beq	.L36
 464:Middlewares/Third_Party/LibJPEG/source/jcmaster.c **** 	component_sent[thisi] = TRUE;
 555              		.loc 1 464 0
 556 02aa 2368     		ldr	r3, [r4]
 557 02ac 1422     		movs	r2, #20
 558 02ae 5A61     		str	r2, [r3, #20]
 559 02b0 2368     		ldr	r3, [r4]
 560 02b2 9F61     		str	r7, [r3, #24]
 561 02b4 2368     		ldr	r3, [r4]
 562 02b6 1B68     		ldr	r3, [r3]
 563 02b8 2046     		mov	r0, r4
 564 02ba 9847     		blx	r3
 565              	.LVL62:
 566 02bc E0E7     		b	.L36
 567              	.LVL63:
 568              	.L56:
 466:Middlewares/Third_Party/LibJPEG/source/jcmaster.c ****       }
 467:Middlewares/Third_Party/LibJPEG/source/jcmaster.c ****     }
 468:Middlewares/Third_Party/LibJPEG/source/jcmaster.c ****   }
 469:Middlewares/Third_Party/LibJPEG/source/jcmaster.c **** 
 470:Middlewares/Third_Party/LibJPEG/source/jcmaster.c ****   /* Now verify that everything got sent. */
 471:Middlewares/Third_Party/LibJPEG/source/jcmaster.c ****   if (cinfo->progressive_mode) {
 569              		.loc 1 471 0
 570 02be D4F80831 		ldr	r3, [r4, #264]
 571 02c2 93B9     		cbnz	r3, .L49
 472:Middlewares/Third_Party/LibJPEG/source/jcmaster.c **** #ifdef C_PROGRESSIVE_SUPPORTED
 473:Middlewares/Third_Party/LibJPEG/source/jcmaster.c ****     /* For progressive mode, we only check that at least some DC data
ARM GAS  /tmp/cckGKv0o.s 			page 20


 474:Middlewares/Third_Party/LibJPEG/source/jcmaster.c ****      * got sent for each component; the spec does not require that all bits
 475:Middlewares/Third_Party/LibJPEG/source/jcmaster.c ****      * of all coefficients be transmitted.  Would it be wiser to enforce
 476:Middlewares/Third_Party/LibJPEG/source/jcmaster.c ****      * transmission of all coefficient bits??
 477:Middlewares/Third_Party/LibJPEG/source/jcmaster.c ****      */
 478:Middlewares/Third_Party/LibJPEG/source/jcmaster.c ****     for (ci = 0; ci < cinfo->num_components; ci++) {
 479:Middlewares/Third_Party/LibJPEG/source/jcmaster.c ****       if (last_bitpos[ci][0] < 0)
 480:Middlewares/Third_Party/LibJPEG/source/jcmaster.c **** 	ERREXIT(cinfo, JERR_MISSING_DATA);
 481:Middlewares/Third_Party/LibJPEG/source/jcmaster.c ****     }
 482:Middlewares/Third_Party/LibJPEG/source/jcmaster.c **** #endif
 483:Middlewares/Third_Party/LibJPEG/source/jcmaster.c ****   } else {
 484:Middlewares/Third_Party/LibJPEG/source/jcmaster.c ****     for (ci = 0; ci < cinfo->num_components; ci++) {
 572              		.loc 1 484 0
 573 02c4 0025     		movs	r5, #0
 574 02c6 13E0     		b	.L42
 575              	.LVL64:
 576              	.L43:
 478:Middlewares/Third_Party/LibJPEG/source/jcmaster.c ****       if (last_bitpos[ci][0] < 0)
 577              		.loc 1 478 0 discriminator 2
 578 02c8 0135     		adds	r5, r5, #1
 579              	.LVL65:
 580              	.L41:
 478:Middlewares/Third_Party/LibJPEG/source/jcmaster.c ****       if (last_bitpos[ci][0] < 0)
 581              		.loc 1 478 0 is_stmt 0 discriminator 1
 582 02ca E36C     		ldr	r3, [r4, #76]
 583 02cc AB42     		cmp	r3, r5
 584 02ce 22DD     		ble	.L4
 479:Middlewares/Third_Party/LibJPEG/source/jcmaster.c **** 	ERREXIT(cinfo, JERR_MISSING_DATA);
 585              		.loc 1 479 0 is_stmt 1
 586 02d0 2B02     		lsls	r3, r5, #8
 587 02d2 04AA     		add	r2, sp, #16
 588 02d4 D358     		ldr	r3, [r2, r3]
 589 02d6 002B     		cmp	r3, #0
 590 02d8 F6DA     		bge	.L43
 480:Middlewares/Third_Party/LibJPEG/source/jcmaster.c ****     }
 591              		.loc 1 480 0
 592 02da 2368     		ldr	r3, [r4]
 593 02dc 2E22     		movs	r2, #46
 594 02de 5A61     		str	r2, [r3, #20]
 595 02e0 2368     		ldr	r3, [r4]
 596 02e2 1B68     		ldr	r3, [r3]
 597 02e4 2046     		mov	r0, r4
 598 02e6 9847     		blx	r3
 599              	.LVL66:
 600 02e8 EEE7     		b	.L43
 601              	.LVL67:
 602              	.L49:
 478:Middlewares/Third_Party/LibJPEG/source/jcmaster.c ****       if (last_bitpos[ci][0] < 0)
 603              		.loc 1 478 0
 604 02ea 0025     		movs	r5, #0
 605 02ec EDE7     		b	.L41
 606              	.LVL68:
 607              	.L46:
 608              		.loc 1 484 0 discriminator 2
 609 02ee 0135     		adds	r5, r5, #1
 610              	.LVL69:
 611              	.L42:
 612              		.loc 1 484 0 is_stmt 0 discriminator 1
ARM GAS  /tmp/cckGKv0o.s 			page 21


 613 02f0 E36C     		ldr	r3, [r4, #76]
 614 02f2 AB42     		cmp	r3, r5
 615 02f4 0FDD     		ble	.L4
 485:Middlewares/Third_Party/LibJPEG/source/jcmaster.c ****       if (! component_sent[ci])
 616              		.loc 1 485 0 is_stmt 1
 617 02f6 0DF63823 		addw	r3, sp, #2616
 618 02fa 03EB8503 		add	r3, r3, r5, lsl #2
 619 02fe 53F8283C 		ldr	r3, [r3, #-40]
 620 0302 002B     		cmp	r3, #0
 621 0304 F3D1     		bne	.L46
 486:Middlewares/Third_Party/LibJPEG/source/jcmaster.c **** 	ERREXIT(cinfo, JERR_MISSING_DATA);
 622              		.loc 1 486 0
 623 0306 2368     		ldr	r3, [r4]
 624 0308 2E22     		movs	r2, #46
 625 030a 5A61     		str	r2, [r3, #20]
 626 030c 2368     		ldr	r3, [r4]
 627 030e 1B68     		ldr	r3, [r3]
 628 0310 2046     		mov	r0, r4
 629 0312 9847     		blx	r3
 630              	.LVL70:
 631 0314 EBE7     		b	.L46
 632              	.L4:
 487:Middlewares/Third_Party/LibJPEG/source/jcmaster.c ****     }
 488:Middlewares/Third_Party/LibJPEG/source/jcmaster.c ****   }
 489:Middlewares/Third_Party/LibJPEG/source/jcmaster.c **** }
 633              		.loc 1 489 0
 634 0316 0DF63C2D 		addw	sp, sp, #2620
 635              	.LCFI3:
 636              		.cfi_def_cfa_offset 36
 637              		@ sp needed
 638 031a BDE8F08F 		pop	{r4, r5, r6, r7, r8, r9, r10, fp, pc}
 639              		.cfi_endproc
 640              	.LFE6:
 642              		.section	.text.reduce_script,"ax",%progbits
 643              		.align	1
 644              		.syntax unified
 645              		.thumb
 646              		.thumb_func
 647              		.fpu fpv5-sp-d16
 649              	reduce_script:
 650              	.LFB7:
 490:Middlewares/Third_Party/LibJPEG/source/jcmaster.c **** 
 491:Middlewares/Third_Party/LibJPEG/source/jcmaster.c **** 
 492:Middlewares/Third_Party/LibJPEG/source/jcmaster.c **** LOCAL(void)
 493:Middlewares/Third_Party/LibJPEG/source/jcmaster.c **** reduce_script (j_compress_ptr cinfo)
 494:Middlewares/Third_Party/LibJPEG/source/jcmaster.c **** /* Adapt scan script for use with reduced block size;
 495:Middlewares/Third_Party/LibJPEG/source/jcmaster.c ****  * assume that script has been validated before.
 496:Middlewares/Third_Party/LibJPEG/source/jcmaster.c ****  */
 497:Middlewares/Third_Party/LibJPEG/source/jcmaster.c **** {
 651              		.loc 1 497 0
 652              		.cfi_startproc
 653              		@ args = 0, pretend = 0, frame = 0
 654              		@ frame_needed = 0, uses_anonymous_args = 0
 655              	.LVL71:
 656 0000 F0B5     		push	{r4, r5, r6, r7, lr}
 657              	.LCFI4:
 658              		.cfi_def_cfa_offset 20
ARM GAS  /tmp/cckGKv0o.s 			page 22


 659              		.cfi_offset 4, -20
 660              		.cfi_offset 5, -16
 661              		.cfi_offset 6, -12
 662              		.cfi_offset 7, -8
 663              		.cfi_offset 14, -4
 664 0002 8446     		mov	ip, r0
 498:Middlewares/Third_Party/LibJPEG/source/jcmaster.c ****   jpeg_scan_info * scanptr;
 499:Middlewares/Third_Party/LibJPEG/source/jcmaster.c ****   int idxout, idxin;
 500:Middlewares/Third_Party/LibJPEG/source/jcmaster.c **** 
 501:Middlewares/Third_Party/LibJPEG/source/jcmaster.c ****   /* Circumvent const declaration for this function */
 502:Middlewares/Third_Party/LibJPEG/source/jcmaster.c ****   scanptr = (jpeg_scan_info *) cinfo->scan_info;
 665              		.loc 1 502 0
 666 0004 D0F8CCE0 		ldr	lr, [r0, #204]
 667              	.LVL72:
 503:Middlewares/Third_Party/LibJPEG/source/jcmaster.c ****   idxout = 0;
 504:Middlewares/Third_Party/LibJPEG/source/jcmaster.c **** 
 505:Middlewares/Third_Party/LibJPEG/source/jcmaster.c ****   for (idxin = 0; idxin < cinfo->num_scans; idxin++) {
 668              		.loc 1 505 0
 669 0008 0027     		movs	r7, #0
 503:Middlewares/Third_Party/LibJPEG/source/jcmaster.c ****   idxout = 0;
 670              		.loc 1 503 0
 671 000a 3E46     		mov	r6, r7
 672              		.loc 1 505 0
 673 000c 01E0     		b	.L59
 674              	.LVL73:
 675              	.L62:
 506:Middlewares/Third_Party/LibJPEG/source/jcmaster.c ****     /* After skipping, idxout becomes smaller than idxin */
 507:Middlewares/Third_Party/LibJPEG/source/jcmaster.c ****     if (idxin != idxout)
 508:Middlewares/Third_Party/LibJPEG/source/jcmaster.c ****       /* Copy rest of data;
 509:Middlewares/Third_Party/LibJPEG/source/jcmaster.c ****        * note we stay in given chunk of allocated memory.
 510:Middlewares/Third_Party/LibJPEG/source/jcmaster.c ****        */
 511:Middlewares/Third_Party/LibJPEG/source/jcmaster.c ****       scanptr[idxout] = scanptr[idxin];
 512:Middlewares/Third_Party/LibJPEG/source/jcmaster.c ****     if (scanptr[idxout].Ss > cinfo->lim_Se)
 513:Middlewares/Third_Party/LibJPEG/source/jcmaster.c ****       /* Entire scan out of range - skip this entry */
 514:Middlewares/Third_Party/LibJPEG/source/jcmaster.c ****       continue;
 515:Middlewares/Third_Party/LibJPEG/source/jcmaster.c ****     if (scanptr[idxout].Se > cinfo->lim_Se)
 516:Middlewares/Third_Party/LibJPEG/source/jcmaster.c ****       /* Limit scan to end of block */
 517:Middlewares/Third_Party/LibJPEG/source/jcmaster.c ****       scanptr[idxout].Se = cinfo->lim_Se;
 518:Middlewares/Third_Party/LibJPEG/source/jcmaster.c ****     idxout++;
 676              		.loc 1 518 0
 677 000e 0136     		adds	r6, r6, #1
 678              	.LVL74:
 679              	.L61:
 505:Middlewares/Third_Party/LibJPEG/source/jcmaster.c ****     /* After skipping, idxout becomes smaller than idxin */
 680              		.loc 1 505 0 discriminator 2
 681 0010 0137     		adds	r7, r7, #1
 682              	.LVL75:
 683              	.L59:
 505:Middlewares/Third_Party/LibJPEG/source/jcmaster.c ****     /* After skipping, idxout becomes smaller than idxin */
 684              		.loc 1 505 0 is_stmt 0 discriminator 1
 685 0012 DCF8C830 		ldr	r3, [ip, #200]
 686 0016 BB42     		cmp	r3, r7
 687 0018 1DDD     		ble	.L65
 507:Middlewares/Third_Party/LibJPEG/source/jcmaster.c ****       /* Copy rest of data;
 688              		.loc 1 507 0 is_stmt 1
 689 001a BE42     		cmp	r6, r7
 690 001c 0DD0     		beq	.L60
ARM GAS  /tmp/cckGKv0o.s 			page 23


 511:Middlewares/Third_Party/LibJPEG/source/jcmaster.c ****     if (scanptr[idxout].Ss > cinfo->lim_Se)
 691              		.loc 1 511 0
 692 001e 07EBC703 		add	r3, r7, r7, lsl #3
 693 0022 9D00     		lsls	r5, r3, #2
 694 0024 06EBC603 		add	r3, r6, r6, lsl #3
 695 0028 9C00     		lsls	r4, r3, #2
 696 002a 7444     		add	r4, r4, lr
 697 002c 7544     		add	r5, r5, lr
 698 002e 0FCD     		ldmia	r5!, {r0, r1, r2, r3}
 699 0030 0FC4     		stmia	r4!, {r0, r1, r2, r3}
 700 0032 0FCD     		ldmia	r5!, {r0, r1, r2, r3}
 701 0034 0FC4     		stmia	r4!, {r0, r1, r2, r3}
 702 0036 2B68     		ldr	r3, [r5]
 703 0038 2360     		str	r3, [r4]
 704              	.L60:
 512:Middlewares/Third_Party/LibJPEG/source/jcmaster.c ****       /* Entire scan out of range - skip this entry */
 705              		.loc 1 512 0
 706 003a 06EBC602 		add	r2, r6, r6, lsl #3
 707 003e 9300     		lsls	r3, r2, #2
 708 0040 7344     		add	r3, r3, lr
 709 0042 5969     		ldr	r1, [r3, #20]
 710 0044 DCF88021 		ldr	r2, [ip, #384]
 711 0048 9142     		cmp	r1, r2
 712 004a E1DC     		bgt	.L61
 515:Middlewares/Third_Party/LibJPEG/source/jcmaster.c ****       /* Limit scan to end of block */
 713              		.loc 1 515 0
 714 004c 9969     		ldr	r1, [r3, #24]
 715 004e 8A42     		cmp	r2, r1
 716 0050 DDDA     		bge	.L62
 517:Middlewares/Third_Party/LibJPEG/source/jcmaster.c ****     idxout++;
 717              		.loc 1 517 0
 718 0052 9A61     		str	r2, [r3, #24]
 719 0054 DBE7     		b	.L62
 720              	.L65:
 519:Middlewares/Third_Party/LibJPEG/source/jcmaster.c ****   }
 520:Middlewares/Third_Party/LibJPEG/source/jcmaster.c **** 
 521:Middlewares/Third_Party/LibJPEG/source/jcmaster.c ****   cinfo->num_scans = idxout;
 721              		.loc 1 521 0
 722 0056 CCF8C860 		str	r6, [ip, #200]
 522:Middlewares/Third_Party/LibJPEG/source/jcmaster.c **** }
 723              		.loc 1 522 0
 724 005a F0BD     		pop	{r4, r5, r6, r7, pc}
 725              		.cfi_endproc
 726              	.LFE7:
 728              		.section	.text.select_scan_parameters,"ax",%progbits
 729              		.align	1
 730              		.syntax unified
 731              		.thumb
 732              		.thumb_func
 733              		.fpu fpv5-sp-d16
 735              	select_scan_parameters:
 736              	.LFB8:
 523:Middlewares/Third_Party/LibJPEG/source/jcmaster.c **** 
 524:Middlewares/Third_Party/LibJPEG/source/jcmaster.c **** #endif /* C_MULTISCAN_FILES_SUPPORTED */
 525:Middlewares/Third_Party/LibJPEG/source/jcmaster.c **** 
 526:Middlewares/Third_Party/LibJPEG/source/jcmaster.c **** 
 527:Middlewares/Third_Party/LibJPEG/source/jcmaster.c **** LOCAL(void)
ARM GAS  /tmp/cckGKv0o.s 			page 24


 528:Middlewares/Third_Party/LibJPEG/source/jcmaster.c **** select_scan_parameters (j_compress_ptr cinfo)
 529:Middlewares/Third_Party/LibJPEG/source/jcmaster.c **** /* Set up the scan parameters for the current scan */
 530:Middlewares/Third_Party/LibJPEG/source/jcmaster.c **** {
 737              		.loc 1 530 0
 738              		.cfi_startproc
 739              		@ args = 0, pretend = 0, frame = 0
 740              		@ frame_needed = 0, uses_anonymous_args = 0
 741              	.LVL76:
 742 0000 38B5     		push	{r3, r4, r5, lr}
 743              	.LCFI5:
 744              		.cfi_def_cfa_offset 16
 745              		.cfi_offset 3, -16
 746              		.cfi_offset 4, -12
 747              		.cfi_offset 5, -8
 748              		.cfi_offset 14, -4
 749 0002 0446     		mov	r4, r0
 531:Middlewares/Third_Party/LibJPEG/source/jcmaster.c ****   int ci;
 532:Middlewares/Third_Party/LibJPEG/source/jcmaster.c **** 
 533:Middlewares/Third_Party/LibJPEG/source/jcmaster.c **** #ifdef C_MULTISCAN_FILES_SUPPORTED
 534:Middlewares/Third_Party/LibJPEG/source/jcmaster.c ****   if (cinfo->scan_info != NULL) {
 750              		.loc 1 534 0
 751 0004 D0F8CC20 		ldr	r2, [r0, #204]
 752 0008 002A     		cmp	r2, #0
 753 000a 3AD0     		beq	.L67
 754              	.LBB2:
 535:Middlewares/Third_Party/LibJPEG/source/jcmaster.c ****     /* Prepare for current scan --- the script is already validated */
 536:Middlewares/Third_Party/LibJPEG/source/jcmaster.c ****     my_master_ptr master = (my_master_ptr) cinfo->master;
 755              		.loc 1 536 0
 756 000c D0F88431 		ldr	r3, [r0, #388]
 757              	.LVL77:
 537:Middlewares/Third_Party/LibJPEG/source/jcmaster.c ****     const jpeg_scan_info * scanptr = cinfo->scan_info + master->scan_number;
 758              		.loc 1 537 0
 759 0010 1B6A     		ldr	r3, [r3, #32]
 760              	.LVL78:
 761 0012 03EBC303 		add	r3, r3, r3, lsl #3
 762 0016 9900     		lsls	r1, r3, #2
 763 0018 5018     		adds	r0, r2, r1
 764              	.LVL79:
 538:Middlewares/Third_Party/LibJPEG/source/jcmaster.c **** 
 539:Middlewares/Third_Party/LibJPEG/source/jcmaster.c ****     cinfo->comps_in_scan = scanptr->comps_in_scan;
 765              		.loc 1 539 0
 766 001a 5358     		ldr	r3, [r2, r1]
 767 001c C4F82031 		str	r3, [r4, #288]
 768              	.LVL80:
 540:Middlewares/Third_Party/LibJPEG/source/jcmaster.c ****     for (ci = 0; ci < scanptr->comps_in_scan; ci++) {
 769              		.loc 1 540 0
 770 0020 0023     		movs	r3, #0
 771 0022 0CE0     		b	.L68
 772              	.LVL81:
 773              	.L69:
 541:Middlewares/Third_Party/LibJPEG/source/jcmaster.c ****       cinfo->cur_comp_info[ci] =
 542:Middlewares/Third_Party/LibJPEG/source/jcmaster.c **** 	&cinfo->comp_info[scanptr->component_index[ci]];
 774              		.loc 1 542 0 discriminator 3
 775 0024 626D     		ldr	r2, [r4, #84]
 776 0026 00EB8301 		add	r1, r0, r3, lsl #2
 777 002a 4968     		ldr	r1, [r1, #4]
 778 002c 5825     		movs	r5, #88
ARM GAS  /tmp/cckGKv0o.s 			page 25


 779 002e 05FB0121 		mla	r1, r5, r1, r2
 541:Middlewares/Third_Party/LibJPEG/source/jcmaster.c ****       cinfo->cur_comp_info[ci] =
 780              		.loc 1 541 0 discriminator 3
 781 0032 03F14802 		add	r2, r3, #72
 782 0036 04EB8202 		add	r2, r4, r2, lsl #2
 783 003a 5160     		str	r1, [r2, #4]
 540:Middlewares/Third_Party/LibJPEG/source/jcmaster.c ****     for (ci = 0; ci < scanptr->comps_in_scan; ci++) {
 784              		.loc 1 540 0 discriminator 3
 785 003c 0133     		adds	r3, r3, #1
 786              	.LVL82:
 787              	.L68:
 540:Middlewares/Third_Party/LibJPEG/source/jcmaster.c ****     for (ci = 0; ci < scanptr->comps_in_scan; ci++) {
 788              		.loc 1 540 0 is_stmt 0 discriminator 1
 789 003e 0268     		ldr	r2, [r0]
 790 0040 9A42     		cmp	r2, r3
 791 0042 EFDC     		bgt	.L69
 543:Middlewares/Third_Party/LibJPEG/source/jcmaster.c ****     }
 544:Middlewares/Third_Party/LibJPEG/source/jcmaster.c ****     if (cinfo->progressive_mode) {
 792              		.loc 1 544 0 is_stmt 1
 793 0044 D4F80831 		ldr	r3, [r4, #264]
 794              	.LVL83:
 795 0048 73B9     		cbnz	r3, .L76
 796              	.LVL84:
 797              	.L70:
 798              	.LBE2:
 545:Middlewares/Third_Party/LibJPEG/source/jcmaster.c ****       cinfo->Ss = scanptr->Ss;
 546:Middlewares/Third_Party/LibJPEG/source/jcmaster.c ****       cinfo->Se = scanptr->Se;
 547:Middlewares/Third_Party/LibJPEG/source/jcmaster.c ****       cinfo->Ah = scanptr->Ah;
 548:Middlewares/Third_Party/LibJPEG/source/jcmaster.c ****       cinfo->Al = scanptr->Al;
 549:Middlewares/Third_Party/LibJPEG/source/jcmaster.c ****       return;
 550:Middlewares/Third_Party/LibJPEG/source/jcmaster.c ****     }
 551:Middlewares/Third_Party/LibJPEG/source/jcmaster.c ****   }
 552:Middlewares/Third_Party/LibJPEG/source/jcmaster.c ****   else
 553:Middlewares/Third_Party/LibJPEG/source/jcmaster.c **** #endif
 554:Middlewares/Third_Party/LibJPEG/source/jcmaster.c ****   {
 555:Middlewares/Third_Party/LibJPEG/source/jcmaster.c ****     /* Prepare for single sequential-JPEG scan containing all components */
 556:Middlewares/Third_Party/LibJPEG/source/jcmaster.c ****     if (cinfo->num_components > MAX_COMPS_IN_SCAN)
 557:Middlewares/Third_Party/LibJPEG/source/jcmaster.c ****       ERREXIT2(cinfo, JERR_COMPONENT_COUNT, cinfo->num_components,
 558:Middlewares/Third_Party/LibJPEG/source/jcmaster.c **** 	       MAX_COMPS_IN_SCAN);
 559:Middlewares/Third_Party/LibJPEG/source/jcmaster.c ****     cinfo->comps_in_scan = cinfo->num_components;
 560:Middlewares/Third_Party/LibJPEG/source/jcmaster.c ****     for (ci = 0; ci < cinfo->num_components; ci++) {
 561:Middlewares/Third_Party/LibJPEG/source/jcmaster.c ****       cinfo->cur_comp_info[ci] = &cinfo->comp_info[ci];
 562:Middlewares/Third_Party/LibJPEG/source/jcmaster.c ****     }
 563:Middlewares/Third_Party/LibJPEG/source/jcmaster.c ****   }
 564:Middlewares/Third_Party/LibJPEG/source/jcmaster.c ****   cinfo->Ss = 0;
 799              		.loc 1 564 0
 800 004a 0022     		movs	r2, #0
 801 004c C4F86821 		str	r2, [r4, #360]
 565:Middlewares/Third_Party/LibJPEG/source/jcmaster.c ****   cinfo->Se = cinfo->block_size * cinfo->block_size - 1;
 802              		.loc 1 565 0
 803 0050 D4F87831 		ldr	r3, [r4, #376]
 804 0054 03FB03F3 		mul	r3, r3, r3
 805 0058 013B     		subs	r3, r3, #1
 806 005a C4F86C31 		str	r3, [r4, #364]
 566:Middlewares/Third_Party/LibJPEG/source/jcmaster.c ****   cinfo->Ah = 0;
 807              		.loc 1 566 0
 808 005e C4F87021 		str	r2, [r4, #368]
ARM GAS  /tmp/cckGKv0o.s 			page 26


 567:Middlewares/Third_Party/LibJPEG/source/jcmaster.c ****   cinfo->Al = 0;
 809              		.loc 1 567 0
 810 0062 C4F87421 		str	r2, [r4, #372]
 811              	.L66:
 568:Middlewares/Third_Party/LibJPEG/source/jcmaster.c **** }
 812              		.loc 1 568 0
 813 0066 38BD     		pop	{r3, r4, r5, pc}
 814              	.LVL85:
 815              	.L76:
 816              	.LBB3:
 545:Middlewares/Third_Party/LibJPEG/source/jcmaster.c ****       cinfo->Se = scanptr->Se;
 817              		.loc 1 545 0
 818 0068 4369     		ldr	r3, [r0, #20]
 819 006a C4F86831 		str	r3, [r4, #360]
 546:Middlewares/Third_Party/LibJPEG/source/jcmaster.c ****       cinfo->Ah = scanptr->Ah;
 820              		.loc 1 546 0
 821 006e 8369     		ldr	r3, [r0, #24]
 822 0070 C4F86C31 		str	r3, [r4, #364]
 547:Middlewares/Third_Party/LibJPEG/source/jcmaster.c ****       cinfo->Al = scanptr->Al;
 823              		.loc 1 547 0
 824 0074 C369     		ldr	r3, [r0, #28]
 825 0076 C4F87031 		str	r3, [r4, #368]
 548:Middlewares/Third_Party/LibJPEG/source/jcmaster.c ****       return;
 826              		.loc 1 548 0
 827 007a 036A     		ldr	r3, [r0, #32]
 828 007c C4F87431 		str	r3, [r4, #372]
 549:Middlewares/Third_Party/LibJPEG/source/jcmaster.c ****     }
 829              		.loc 1 549 0
 830 0080 F1E7     		b	.L66
 831              	.LVL86:
 832              	.L67:
 833              	.LBE3:
 556:Middlewares/Third_Party/LibJPEG/source/jcmaster.c ****       ERREXIT2(cinfo, JERR_COMPONENT_COUNT, cinfo->num_components,
 834              		.loc 1 556 0
 835 0082 C36C     		ldr	r3, [r0, #76]
 836 0084 042B     		cmp	r3, #4
 837 0086 0BDD     		ble	.L72
 557:Middlewares/Third_Party/LibJPEG/source/jcmaster.c **** 	       MAX_COMPS_IN_SCAN);
 838              		.loc 1 557 0
 839 0088 0368     		ldr	r3, [r0]
 840 008a 1B22     		movs	r2, #27
 841 008c 5A61     		str	r2, [r3, #20]
 842 008e 0368     		ldr	r3, [r0]
 843 0090 C26C     		ldr	r2, [r0, #76]
 844 0092 9A61     		str	r2, [r3, #24]
 845 0094 0368     		ldr	r3, [r0]
 846 0096 0422     		movs	r2, #4
 847 0098 DA61     		str	r2, [r3, #28]
 848 009a 0368     		ldr	r3, [r0]
 849 009c 1B68     		ldr	r3, [r3]
 850 009e 9847     		blx	r3
 851              	.LVL87:
 852              	.L72:
 559:Middlewares/Third_Party/LibJPEG/source/jcmaster.c ****     for (ci = 0; ci < cinfo->num_components; ci++) {
 853              		.loc 1 559 0
 854 00a0 E06C     		ldr	r0, [r4, #76]
 855 00a2 C4F82001 		str	r0, [r4, #288]
ARM GAS  /tmp/cckGKv0o.s 			page 27


 856              	.LVL88:
 560:Middlewares/Third_Party/LibJPEG/source/jcmaster.c ****       cinfo->cur_comp_info[ci] = &cinfo->comp_info[ci];
 857              		.loc 1 560 0
 858 00a6 0023     		movs	r3, #0
 859 00a8 09E0     		b	.L73
 860              	.LVL89:
 861              	.L74:
 561:Middlewares/Third_Party/LibJPEG/source/jcmaster.c ****     }
 862              		.loc 1 561 0 discriminator 3
 863 00aa 626D     		ldr	r2, [r4, #84]
 864 00ac 5821     		movs	r1, #88
 865 00ae 01FB0321 		mla	r1, r1, r3, r2
 866 00b2 03F14802 		add	r2, r3, #72
 867 00b6 04EB8202 		add	r2, r4, r2, lsl #2
 868 00ba 5160     		str	r1, [r2, #4]
 560:Middlewares/Third_Party/LibJPEG/source/jcmaster.c ****       cinfo->cur_comp_info[ci] = &cinfo->comp_info[ci];
 869              		.loc 1 560 0 discriminator 3
 870 00bc 0133     		adds	r3, r3, #1
 871              	.LVL90:
 872              	.L73:
 560:Middlewares/Third_Party/LibJPEG/source/jcmaster.c ****       cinfo->cur_comp_info[ci] = &cinfo->comp_info[ci];
 873              		.loc 1 560 0 is_stmt 0 discriminator 1
 874 00be 9842     		cmp	r0, r3
 875 00c0 F3DC     		bgt	.L74
 876 00c2 C2E7     		b	.L70
 877              		.cfi_endproc
 878              	.LFE8:
 880              		.section	.text.pass_startup,"ax",%progbits
 881              		.align	1
 882              		.syntax unified
 883              		.thumb
 884              		.thumb_func
 885              		.fpu fpv5-sp-d16
 887              	pass_startup:
 888              	.LFB11:
 569:Middlewares/Third_Party/LibJPEG/source/jcmaster.c **** 
 570:Middlewares/Third_Party/LibJPEG/source/jcmaster.c **** 
 571:Middlewares/Third_Party/LibJPEG/source/jcmaster.c **** LOCAL(void)
 572:Middlewares/Third_Party/LibJPEG/source/jcmaster.c **** per_scan_setup (j_compress_ptr cinfo)
 573:Middlewares/Third_Party/LibJPEG/source/jcmaster.c **** /* Do computations that are needed before processing a JPEG scan */
 574:Middlewares/Third_Party/LibJPEG/source/jcmaster.c **** /* cinfo->comps_in_scan and cinfo->cur_comp_info[] are already set */
 575:Middlewares/Third_Party/LibJPEG/source/jcmaster.c **** {
 576:Middlewares/Third_Party/LibJPEG/source/jcmaster.c ****   int ci, mcublks, tmp;
 577:Middlewares/Third_Party/LibJPEG/source/jcmaster.c ****   jpeg_component_info *compptr;
 578:Middlewares/Third_Party/LibJPEG/source/jcmaster.c ****   
 579:Middlewares/Third_Party/LibJPEG/source/jcmaster.c ****   if (cinfo->comps_in_scan == 1) {
 580:Middlewares/Third_Party/LibJPEG/source/jcmaster.c ****     
 581:Middlewares/Third_Party/LibJPEG/source/jcmaster.c ****     /* Noninterleaved (single-component) scan */
 582:Middlewares/Third_Party/LibJPEG/source/jcmaster.c ****     compptr = cinfo->cur_comp_info[0];
 583:Middlewares/Third_Party/LibJPEG/source/jcmaster.c ****     
 584:Middlewares/Third_Party/LibJPEG/source/jcmaster.c ****     /* Overall image size in MCUs */
 585:Middlewares/Third_Party/LibJPEG/source/jcmaster.c ****     cinfo->MCUs_per_row = compptr->width_in_blocks;
 586:Middlewares/Third_Party/LibJPEG/source/jcmaster.c ****     cinfo->MCU_rows_in_scan = compptr->height_in_blocks;
 587:Middlewares/Third_Party/LibJPEG/source/jcmaster.c ****     
 588:Middlewares/Third_Party/LibJPEG/source/jcmaster.c ****     /* For noninterleaved scan, always one block per MCU */
 589:Middlewares/Third_Party/LibJPEG/source/jcmaster.c ****     compptr->MCU_width = 1;
 590:Middlewares/Third_Party/LibJPEG/source/jcmaster.c ****     compptr->MCU_height = 1;
ARM GAS  /tmp/cckGKv0o.s 			page 28


 591:Middlewares/Third_Party/LibJPEG/source/jcmaster.c ****     compptr->MCU_blocks = 1;
 592:Middlewares/Third_Party/LibJPEG/source/jcmaster.c ****     compptr->MCU_sample_width = compptr->DCT_h_scaled_size;
 593:Middlewares/Third_Party/LibJPEG/source/jcmaster.c ****     compptr->last_col_width = 1;
 594:Middlewares/Third_Party/LibJPEG/source/jcmaster.c ****     /* For noninterleaved scans, it is convenient to define last_row_height
 595:Middlewares/Third_Party/LibJPEG/source/jcmaster.c ****      * as the number of block rows present in the last iMCU row.
 596:Middlewares/Third_Party/LibJPEG/source/jcmaster.c ****      */
 597:Middlewares/Third_Party/LibJPEG/source/jcmaster.c ****     tmp = (int) (compptr->height_in_blocks % compptr->v_samp_factor);
 598:Middlewares/Third_Party/LibJPEG/source/jcmaster.c ****     if (tmp == 0) tmp = compptr->v_samp_factor;
 599:Middlewares/Third_Party/LibJPEG/source/jcmaster.c ****     compptr->last_row_height = tmp;
 600:Middlewares/Third_Party/LibJPEG/source/jcmaster.c ****     
 601:Middlewares/Third_Party/LibJPEG/source/jcmaster.c ****     /* Prepare array describing MCU composition */
 602:Middlewares/Third_Party/LibJPEG/source/jcmaster.c ****     cinfo->blocks_in_MCU = 1;
 603:Middlewares/Third_Party/LibJPEG/source/jcmaster.c ****     cinfo->MCU_membership[0] = 0;
 604:Middlewares/Third_Party/LibJPEG/source/jcmaster.c ****     
 605:Middlewares/Third_Party/LibJPEG/source/jcmaster.c ****   } else {
 606:Middlewares/Third_Party/LibJPEG/source/jcmaster.c ****     
 607:Middlewares/Third_Party/LibJPEG/source/jcmaster.c ****     /* Interleaved (multi-component) scan */
 608:Middlewares/Third_Party/LibJPEG/source/jcmaster.c ****     if (cinfo->comps_in_scan <= 0 || cinfo->comps_in_scan > MAX_COMPS_IN_SCAN)
 609:Middlewares/Third_Party/LibJPEG/source/jcmaster.c ****       ERREXIT2(cinfo, JERR_COMPONENT_COUNT, cinfo->comps_in_scan,
 610:Middlewares/Third_Party/LibJPEG/source/jcmaster.c **** 	       MAX_COMPS_IN_SCAN);
 611:Middlewares/Third_Party/LibJPEG/source/jcmaster.c ****     
 612:Middlewares/Third_Party/LibJPEG/source/jcmaster.c ****     /* Overall image size in MCUs */
 613:Middlewares/Third_Party/LibJPEG/source/jcmaster.c ****     cinfo->MCUs_per_row = (JDIMENSION)
 614:Middlewares/Third_Party/LibJPEG/source/jcmaster.c ****       jdiv_round_up((long) cinfo->jpeg_width,
 615:Middlewares/Third_Party/LibJPEG/source/jcmaster.c **** 		    (long) (cinfo->max_h_samp_factor * cinfo->block_size));
 616:Middlewares/Third_Party/LibJPEG/source/jcmaster.c ****     cinfo->MCU_rows_in_scan = (JDIMENSION)
 617:Middlewares/Third_Party/LibJPEG/source/jcmaster.c ****       jdiv_round_up((long) cinfo->jpeg_height,
 618:Middlewares/Third_Party/LibJPEG/source/jcmaster.c **** 		    (long) (cinfo->max_v_samp_factor * cinfo->block_size));
 619:Middlewares/Third_Party/LibJPEG/source/jcmaster.c ****     
 620:Middlewares/Third_Party/LibJPEG/source/jcmaster.c ****     cinfo->blocks_in_MCU = 0;
 621:Middlewares/Third_Party/LibJPEG/source/jcmaster.c ****     
 622:Middlewares/Third_Party/LibJPEG/source/jcmaster.c ****     for (ci = 0; ci < cinfo->comps_in_scan; ci++) {
 623:Middlewares/Third_Party/LibJPEG/source/jcmaster.c ****       compptr = cinfo->cur_comp_info[ci];
 624:Middlewares/Third_Party/LibJPEG/source/jcmaster.c ****       /* Sampling factors give # of blocks of component in each MCU */
 625:Middlewares/Third_Party/LibJPEG/source/jcmaster.c ****       compptr->MCU_width = compptr->h_samp_factor;
 626:Middlewares/Third_Party/LibJPEG/source/jcmaster.c ****       compptr->MCU_height = compptr->v_samp_factor;
 627:Middlewares/Third_Party/LibJPEG/source/jcmaster.c ****       compptr->MCU_blocks = compptr->MCU_width * compptr->MCU_height;
 628:Middlewares/Third_Party/LibJPEG/source/jcmaster.c ****       compptr->MCU_sample_width = compptr->MCU_width * compptr->DCT_h_scaled_size;
 629:Middlewares/Third_Party/LibJPEG/source/jcmaster.c ****       /* Figure number of non-dummy blocks in last MCU column & row */
 630:Middlewares/Third_Party/LibJPEG/source/jcmaster.c ****       tmp = (int) (compptr->width_in_blocks % compptr->MCU_width);
 631:Middlewares/Third_Party/LibJPEG/source/jcmaster.c ****       if (tmp == 0) tmp = compptr->MCU_width;
 632:Middlewares/Third_Party/LibJPEG/source/jcmaster.c ****       compptr->last_col_width = tmp;
 633:Middlewares/Third_Party/LibJPEG/source/jcmaster.c ****       tmp = (int) (compptr->height_in_blocks % compptr->MCU_height);
 634:Middlewares/Third_Party/LibJPEG/source/jcmaster.c ****       if (tmp == 0) tmp = compptr->MCU_height;
 635:Middlewares/Third_Party/LibJPEG/source/jcmaster.c ****       compptr->last_row_height = tmp;
 636:Middlewares/Third_Party/LibJPEG/source/jcmaster.c ****       /* Prepare array describing MCU composition */
 637:Middlewares/Third_Party/LibJPEG/source/jcmaster.c ****       mcublks = compptr->MCU_blocks;
 638:Middlewares/Third_Party/LibJPEG/source/jcmaster.c ****       if (cinfo->blocks_in_MCU + mcublks > C_MAX_BLOCKS_IN_MCU)
 639:Middlewares/Third_Party/LibJPEG/source/jcmaster.c **** 	ERREXIT(cinfo, JERR_BAD_MCU_SIZE);
 640:Middlewares/Third_Party/LibJPEG/source/jcmaster.c ****       while (mcublks-- > 0) {
 641:Middlewares/Third_Party/LibJPEG/source/jcmaster.c **** 	cinfo->MCU_membership[cinfo->blocks_in_MCU++] = ci;
 642:Middlewares/Third_Party/LibJPEG/source/jcmaster.c ****       }
 643:Middlewares/Third_Party/LibJPEG/source/jcmaster.c ****     }
 644:Middlewares/Third_Party/LibJPEG/source/jcmaster.c ****     
 645:Middlewares/Third_Party/LibJPEG/source/jcmaster.c ****   }
 646:Middlewares/Third_Party/LibJPEG/source/jcmaster.c **** 
 647:Middlewares/Third_Party/LibJPEG/source/jcmaster.c ****   /* Convert restart specified in rows to actual MCU count. */
ARM GAS  /tmp/cckGKv0o.s 			page 29


 648:Middlewares/Third_Party/LibJPEG/source/jcmaster.c ****   /* Note that count must fit in 16 bits, so we provide limiting. */
 649:Middlewares/Third_Party/LibJPEG/source/jcmaster.c ****   if (cinfo->restart_in_rows > 0) {
 650:Middlewares/Third_Party/LibJPEG/source/jcmaster.c ****     long nominal = (long) cinfo->restart_in_rows * (long) cinfo->MCUs_per_row;
 651:Middlewares/Third_Party/LibJPEG/source/jcmaster.c ****     cinfo->restart_interval = (unsigned int) MIN(nominal, 65535L);
 652:Middlewares/Third_Party/LibJPEG/source/jcmaster.c ****   }
 653:Middlewares/Third_Party/LibJPEG/source/jcmaster.c **** }
 654:Middlewares/Third_Party/LibJPEG/source/jcmaster.c **** 
 655:Middlewares/Third_Party/LibJPEG/source/jcmaster.c **** 
 656:Middlewares/Third_Party/LibJPEG/source/jcmaster.c **** /*
 657:Middlewares/Third_Party/LibJPEG/source/jcmaster.c ****  * Per-pass setup.
 658:Middlewares/Third_Party/LibJPEG/source/jcmaster.c ****  * This is called at the beginning of each pass.  We determine which modules
 659:Middlewares/Third_Party/LibJPEG/source/jcmaster.c ****  * will be active during this pass and give them appropriate start_pass calls.
 660:Middlewares/Third_Party/LibJPEG/source/jcmaster.c ****  * We also set is_last_pass to indicate whether any more passes will be
 661:Middlewares/Third_Party/LibJPEG/source/jcmaster.c ****  * required.
 662:Middlewares/Third_Party/LibJPEG/source/jcmaster.c ****  */
 663:Middlewares/Third_Party/LibJPEG/source/jcmaster.c **** 
 664:Middlewares/Third_Party/LibJPEG/source/jcmaster.c **** METHODDEF(void)
 665:Middlewares/Third_Party/LibJPEG/source/jcmaster.c **** prepare_for_pass (j_compress_ptr cinfo)
 666:Middlewares/Third_Party/LibJPEG/source/jcmaster.c **** {
 667:Middlewares/Third_Party/LibJPEG/source/jcmaster.c ****   my_master_ptr master = (my_master_ptr) cinfo->master;
 668:Middlewares/Third_Party/LibJPEG/source/jcmaster.c **** 
 669:Middlewares/Third_Party/LibJPEG/source/jcmaster.c ****   switch (master->pass_type) {
 670:Middlewares/Third_Party/LibJPEG/source/jcmaster.c ****   case main_pass:
 671:Middlewares/Third_Party/LibJPEG/source/jcmaster.c ****     /* Initial pass: will collect input data, and do either Huffman
 672:Middlewares/Third_Party/LibJPEG/source/jcmaster.c ****      * optimization or data output for the first scan.
 673:Middlewares/Third_Party/LibJPEG/source/jcmaster.c ****      */
 674:Middlewares/Third_Party/LibJPEG/source/jcmaster.c ****     select_scan_parameters(cinfo);
 675:Middlewares/Third_Party/LibJPEG/source/jcmaster.c ****     per_scan_setup(cinfo);
 676:Middlewares/Third_Party/LibJPEG/source/jcmaster.c ****     if (! cinfo->raw_data_in) {
 677:Middlewares/Third_Party/LibJPEG/source/jcmaster.c ****       (*cinfo->cconvert->start_pass) (cinfo);
 678:Middlewares/Third_Party/LibJPEG/source/jcmaster.c ****       (*cinfo->downsample->start_pass) (cinfo);
 679:Middlewares/Third_Party/LibJPEG/source/jcmaster.c ****       (*cinfo->prep->start_pass) (cinfo, JBUF_PASS_THRU);
 680:Middlewares/Third_Party/LibJPEG/source/jcmaster.c ****     }
 681:Middlewares/Third_Party/LibJPEG/source/jcmaster.c ****     (*cinfo->fdct->start_pass) (cinfo);
 682:Middlewares/Third_Party/LibJPEG/source/jcmaster.c ****     (*cinfo->entropy->start_pass) (cinfo, cinfo->optimize_coding);
 683:Middlewares/Third_Party/LibJPEG/source/jcmaster.c ****     (*cinfo->coef->start_pass) (cinfo,
 684:Middlewares/Third_Party/LibJPEG/source/jcmaster.c **** 				(master->total_passes > 1 ?
 685:Middlewares/Third_Party/LibJPEG/source/jcmaster.c **** 				 JBUF_SAVE_AND_PASS : JBUF_PASS_THRU));
 686:Middlewares/Third_Party/LibJPEG/source/jcmaster.c ****     (*cinfo->main->start_pass) (cinfo, JBUF_PASS_THRU);
 687:Middlewares/Third_Party/LibJPEG/source/jcmaster.c ****     if (cinfo->optimize_coding) {
 688:Middlewares/Third_Party/LibJPEG/source/jcmaster.c ****       /* No immediate data output; postpone writing frame/scan headers */
 689:Middlewares/Third_Party/LibJPEG/source/jcmaster.c ****       master->pub.call_pass_startup = FALSE;
 690:Middlewares/Third_Party/LibJPEG/source/jcmaster.c ****     } else {
 691:Middlewares/Third_Party/LibJPEG/source/jcmaster.c ****       /* Will write frame/scan headers at first jpeg_write_scanlines call */
 692:Middlewares/Third_Party/LibJPEG/source/jcmaster.c ****       master->pub.call_pass_startup = TRUE;
 693:Middlewares/Third_Party/LibJPEG/source/jcmaster.c ****     }
 694:Middlewares/Third_Party/LibJPEG/source/jcmaster.c ****     break;
 695:Middlewares/Third_Party/LibJPEG/source/jcmaster.c **** #ifdef ENTROPY_OPT_SUPPORTED
 696:Middlewares/Third_Party/LibJPEG/source/jcmaster.c ****   case huff_opt_pass:
 697:Middlewares/Third_Party/LibJPEG/source/jcmaster.c ****     /* Do Huffman optimization for a scan after the first one. */
 698:Middlewares/Third_Party/LibJPEG/source/jcmaster.c ****     select_scan_parameters(cinfo);
 699:Middlewares/Third_Party/LibJPEG/source/jcmaster.c ****     per_scan_setup(cinfo);
 700:Middlewares/Third_Party/LibJPEG/source/jcmaster.c ****     if (cinfo->Ss != 0 || cinfo->Ah == 0) {
 701:Middlewares/Third_Party/LibJPEG/source/jcmaster.c ****       (*cinfo->entropy->start_pass) (cinfo, TRUE);
 702:Middlewares/Third_Party/LibJPEG/source/jcmaster.c ****       (*cinfo->coef->start_pass) (cinfo, JBUF_CRANK_DEST);
 703:Middlewares/Third_Party/LibJPEG/source/jcmaster.c ****       master->pub.call_pass_startup = FALSE;
 704:Middlewares/Third_Party/LibJPEG/source/jcmaster.c ****       break;
ARM GAS  /tmp/cckGKv0o.s 			page 30


 705:Middlewares/Third_Party/LibJPEG/source/jcmaster.c ****     }
 706:Middlewares/Third_Party/LibJPEG/source/jcmaster.c ****     /* Special case: Huffman DC refinement scans need no Huffman table
 707:Middlewares/Third_Party/LibJPEG/source/jcmaster.c ****      * and therefore we can skip the optimization pass for them.
 708:Middlewares/Third_Party/LibJPEG/source/jcmaster.c ****      */
 709:Middlewares/Third_Party/LibJPEG/source/jcmaster.c ****     master->pass_type = output_pass;
 710:Middlewares/Third_Party/LibJPEG/source/jcmaster.c ****     master->pass_number++;
 711:Middlewares/Third_Party/LibJPEG/source/jcmaster.c ****     /*FALLTHROUGH*/
 712:Middlewares/Third_Party/LibJPEG/source/jcmaster.c **** #endif
 713:Middlewares/Third_Party/LibJPEG/source/jcmaster.c ****   case output_pass:
 714:Middlewares/Third_Party/LibJPEG/source/jcmaster.c ****     /* Do a data-output pass. */
 715:Middlewares/Third_Party/LibJPEG/source/jcmaster.c ****     /* We need not repeat per-scan setup if prior optimization pass did it. */
 716:Middlewares/Third_Party/LibJPEG/source/jcmaster.c ****     if (! cinfo->optimize_coding) {
 717:Middlewares/Third_Party/LibJPEG/source/jcmaster.c ****       select_scan_parameters(cinfo);
 718:Middlewares/Third_Party/LibJPEG/source/jcmaster.c ****       per_scan_setup(cinfo);
 719:Middlewares/Third_Party/LibJPEG/source/jcmaster.c ****     }
 720:Middlewares/Third_Party/LibJPEG/source/jcmaster.c ****     (*cinfo->entropy->start_pass) (cinfo, FALSE);
 721:Middlewares/Third_Party/LibJPEG/source/jcmaster.c ****     (*cinfo->coef->start_pass) (cinfo, JBUF_CRANK_DEST);
 722:Middlewares/Third_Party/LibJPEG/source/jcmaster.c ****     /* We emit frame/scan headers now */
 723:Middlewares/Third_Party/LibJPEG/source/jcmaster.c ****     if (master->scan_number == 0)
 724:Middlewares/Third_Party/LibJPEG/source/jcmaster.c ****       (*cinfo->marker->write_frame_header) (cinfo);
 725:Middlewares/Third_Party/LibJPEG/source/jcmaster.c ****     (*cinfo->marker->write_scan_header) (cinfo);
 726:Middlewares/Third_Party/LibJPEG/source/jcmaster.c ****     master->pub.call_pass_startup = FALSE;
 727:Middlewares/Third_Party/LibJPEG/source/jcmaster.c ****     break;
 728:Middlewares/Third_Party/LibJPEG/source/jcmaster.c ****   default:
 729:Middlewares/Third_Party/LibJPEG/source/jcmaster.c ****     ERREXIT(cinfo, JERR_NOT_COMPILED);
 730:Middlewares/Third_Party/LibJPEG/source/jcmaster.c ****   }
 731:Middlewares/Third_Party/LibJPEG/source/jcmaster.c **** 
 732:Middlewares/Third_Party/LibJPEG/source/jcmaster.c ****   master->pub.is_last_pass = (master->pass_number == master->total_passes-1);
 733:Middlewares/Third_Party/LibJPEG/source/jcmaster.c **** 
 734:Middlewares/Third_Party/LibJPEG/source/jcmaster.c ****   /* Set up progress monitor's pass info if present */
 735:Middlewares/Third_Party/LibJPEG/source/jcmaster.c ****   if (cinfo->progress != NULL) {
 736:Middlewares/Third_Party/LibJPEG/source/jcmaster.c ****     cinfo->progress->completed_passes = master->pass_number;
 737:Middlewares/Third_Party/LibJPEG/source/jcmaster.c ****     cinfo->progress->total_passes = master->total_passes;
 738:Middlewares/Third_Party/LibJPEG/source/jcmaster.c ****   }
 739:Middlewares/Third_Party/LibJPEG/source/jcmaster.c **** }
 740:Middlewares/Third_Party/LibJPEG/source/jcmaster.c **** 
 741:Middlewares/Third_Party/LibJPEG/source/jcmaster.c **** 
 742:Middlewares/Third_Party/LibJPEG/source/jcmaster.c **** /*
 743:Middlewares/Third_Party/LibJPEG/source/jcmaster.c ****  * Special start-of-pass hook.
 744:Middlewares/Third_Party/LibJPEG/source/jcmaster.c ****  * This is called by jpeg_write_scanlines if call_pass_startup is TRUE.
 745:Middlewares/Third_Party/LibJPEG/source/jcmaster.c ****  * In single-pass processing, we need this hook because we don't want to
 746:Middlewares/Third_Party/LibJPEG/source/jcmaster.c ****  * write frame/scan headers during jpeg_start_compress; we want to let the
 747:Middlewares/Third_Party/LibJPEG/source/jcmaster.c ****  * application write COM markers etc. between jpeg_start_compress and the
 748:Middlewares/Third_Party/LibJPEG/source/jcmaster.c ****  * jpeg_write_scanlines loop.
 749:Middlewares/Third_Party/LibJPEG/source/jcmaster.c ****  * In multi-pass processing, this routine is not used.
 750:Middlewares/Third_Party/LibJPEG/source/jcmaster.c ****  */
 751:Middlewares/Third_Party/LibJPEG/source/jcmaster.c **** 
 752:Middlewares/Third_Party/LibJPEG/source/jcmaster.c **** METHODDEF(void)
 753:Middlewares/Third_Party/LibJPEG/source/jcmaster.c **** pass_startup (j_compress_ptr cinfo)
 754:Middlewares/Third_Party/LibJPEG/source/jcmaster.c **** {
 889              		.loc 1 754 0 is_stmt 1
 890              		.cfi_startproc
 891              		@ args = 0, pretend = 0, frame = 0
 892              		@ frame_needed = 0, uses_anonymous_args = 0
 893              	.LVL91:
 894 0000 10B5     		push	{r4, lr}
 895              	.LCFI6:
ARM GAS  /tmp/cckGKv0o.s 			page 31


 896              		.cfi_def_cfa_offset 8
 897              		.cfi_offset 4, -8
 898              		.cfi_offset 14, -4
 899 0002 0446     		mov	r4, r0
 755:Middlewares/Third_Party/LibJPEG/source/jcmaster.c ****   cinfo->master->call_pass_startup = FALSE; /* reset flag so call only once */
 900              		.loc 1 755 0
 901 0004 D0F88431 		ldr	r3, [r0, #388]
 902 0008 0022     		movs	r2, #0
 903 000a DA60     		str	r2, [r3, #12]
 756:Middlewares/Third_Party/LibJPEG/source/jcmaster.c **** 
 757:Middlewares/Third_Party/LibJPEG/source/jcmaster.c ****   (*cinfo->marker->write_frame_header) (cinfo);
 904              		.loc 1 757 0
 905 000c D0F89431 		ldr	r3, [r0, #404]
 906 0010 5B68     		ldr	r3, [r3, #4]
 907 0012 9847     		blx	r3
 908              	.LVL92:
 758:Middlewares/Third_Party/LibJPEG/source/jcmaster.c ****   (*cinfo->marker->write_scan_header) (cinfo);
 909              		.loc 1 758 0
 910 0014 D4F89431 		ldr	r3, [r4, #404]
 911 0018 9B68     		ldr	r3, [r3, #8]
 912 001a 2046     		mov	r0, r4
 913 001c 9847     		blx	r3
 914              	.LVL93:
 759:Middlewares/Third_Party/LibJPEG/source/jcmaster.c **** }
 915              		.loc 1 759 0
 916 001e 10BD     		pop	{r4, pc}
 917              		.cfi_endproc
 918              	.LFE11:
 920              		.section	.text.finish_pass_master,"ax",%progbits
 921              		.align	1
 922              		.syntax unified
 923              		.thumb
 924              		.thumb_func
 925              		.fpu fpv5-sp-d16
 927              	finish_pass_master:
 928              	.LFB12:
 760:Middlewares/Third_Party/LibJPEG/source/jcmaster.c **** 
 761:Middlewares/Third_Party/LibJPEG/source/jcmaster.c **** 
 762:Middlewares/Third_Party/LibJPEG/source/jcmaster.c **** /*
 763:Middlewares/Third_Party/LibJPEG/source/jcmaster.c ****  * Finish up at end of pass.
 764:Middlewares/Third_Party/LibJPEG/source/jcmaster.c ****  */
 765:Middlewares/Third_Party/LibJPEG/source/jcmaster.c **** 
 766:Middlewares/Third_Party/LibJPEG/source/jcmaster.c **** METHODDEF(void)
 767:Middlewares/Third_Party/LibJPEG/source/jcmaster.c **** finish_pass_master (j_compress_ptr cinfo)
 768:Middlewares/Third_Party/LibJPEG/source/jcmaster.c **** {
 929              		.loc 1 768 0
 930              		.cfi_startproc
 931              		@ args = 0, pretend = 0, frame = 0
 932              		@ frame_needed = 0, uses_anonymous_args = 0
 933              	.LVL94:
 934 0000 38B5     		push	{r3, r4, r5, lr}
 935              	.LCFI7:
 936              		.cfi_def_cfa_offset 16
 937              		.cfi_offset 3, -16
 938              		.cfi_offset 4, -12
 939              		.cfi_offset 5, -8
 940              		.cfi_offset 14, -4
ARM GAS  /tmp/cckGKv0o.s 			page 32


 941 0002 0546     		mov	r5, r0
 769:Middlewares/Third_Party/LibJPEG/source/jcmaster.c ****   my_master_ptr master = (my_master_ptr) cinfo->master;
 942              		.loc 1 769 0
 943 0004 D0F88441 		ldr	r4, [r0, #388]
 944              	.LVL95:
 770:Middlewares/Third_Party/LibJPEG/source/jcmaster.c **** 
 771:Middlewares/Third_Party/LibJPEG/source/jcmaster.c ****   /* The entropy coder always needs an end-of-pass call,
 772:Middlewares/Third_Party/LibJPEG/source/jcmaster.c ****    * either to analyze statistics or to flush its output buffer.
 773:Middlewares/Third_Party/LibJPEG/source/jcmaster.c ****    */
 774:Middlewares/Third_Party/LibJPEG/source/jcmaster.c ****   (*cinfo->entropy->finish_pass) (cinfo);
 945              		.loc 1 774 0
 946 0008 D0F8A431 		ldr	r3, [r0, #420]
 947 000c 9B68     		ldr	r3, [r3, #8]
 948 000e 9847     		blx	r3
 949              	.LVL96:
 775:Middlewares/Third_Party/LibJPEG/source/jcmaster.c **** 
 776:Middlewares/Third_Party/LibJPEG/source/jcmaster.c ****   /* Update state for next pass */
 777:Middlewares/Third_Party/LibJPEG/source/jcmaster.c ****   switch (master->pass_type) {
 950              		.loc 1 777 0
 951 0010 237D     		ldrb	r3, [r4, #20]	@ zero_extendqisi2
 952 0012 012B     		cmp	r3, #1
 953 0014 10D0     		beq	.L81
 954 0016 2BB1     		cbz	r3, .L82
 955 0018 022B     		cmp	r3, #2
 956 001a 10D0     		beq	.L83
 957              	.L80:
 778:Middlewares/Third_Party/LibJPEG/source/jcmaster.c ****   case main_pass:
 779:Middlewares/Third_Party/LibJPEG/source/jcmaster.c ****     /* next pass is either output of scan 0 (after optimization)
 780:Middlewares/Third_Party/LibJPEG/source/jcmaster.c ****      * or output of scan 1 (if no optimization).
 781:Middlewares/Third_Party/LibJPEG/source/jcmaster.c ****      */
 782:Middlewares/Third_Party/LibJPEG/source/jcmaster.c ****     master->pass_type = output_pass;
 783:Middlewares/Third_Party/LibJPEG/source/jcmaster.c ****     if (! cinfo->optimize_coding)
 784:Middlewares/Third_Party/LibJPEG/source/jcmaster.c ****       master->scan_number++;
 785:Middlewares/Third_Party/LibJPEG/source/jcmaster.c ****     break;
 786:Middlewares/Third_Party/LibJPEG/source/jcmaster.c ****   case huff_opt_pass:
 787:Middlewares/Third_Party/LibJPEG/source/jcmaster.c ****     /* next pass is always output of current scan */
 788:Middlewares/Third_Party/LibJPEG/source/jcmaster.c ****     master->pass_type = output_pass;
 789:Middlewares/Third_Party/LibJPEG/source/jcmaster.c ****     break;
 790:Middlewares/Third_Party/LibJPEG/source/jcmaster.c ****   case output_pass:
 791:Middlewares/Third_Party/LibJPEG/source/jcmaster.c ****     /* next pass is either optimization or output of next scan */
 792:Middlewares/Third_Party/LibJPEG/source/jcmaster.c ****     if (cinfo->optimize_coding)
 793:Middlewares/Third_Party/LibJPEG/source/jcmaster.c ****       master->pass_type = huff_opt_pass;
 794:Middlewares/Third_Party/LibJPEG/source/jcmaster.c ****     master->scan_number++;
 795:Middlewares/Third_Party/LibJPEG/source/jcmaster.c ****     break;
 796:Middlewares/Third_Party/LibJPEG/source/jcmaster.c ****   }
 797:Middlewares/Third_Party/LibJPEG/source/jcmaster.c **** 
 798:Middlewares/Third_Party/LibJPEG/source/jcmaster.c ****   master->pass_number++;
 958              		.loc 1 798 0
 959 001c A369     		ldr	r3, [r4, #24]
 960 001e 0133     		adds	r3, r3, #1
 961 0020 A361     		str	r3, [r4, #24]
 799:Middlewares/Third_Party/LibJPEG/source/jcmaster.c **** }
 962              		.loc 1 799 0
 963 0022 38BD     		pop	{r3, r4, r5, pc}
 964              	.LVL97:
 965              	.L82:
 782:Middlewares/Third_Party/LibJPEG/source/jcmaster.c ****     if (! cinfo->optimize_coding)
ARM GAS  /tmp/cckGKv0o.s 			page 33


 966              		.loc 1 782 0
 967 0024 0223     		movs	r3, #2
 968 0026 2375     		strb	r3, [r4, #20]
 783:Middlewares/Third_Party/LibJPEG/source/jcmaster.c ****       master->scan_number++;
 969              		.loc 1 783 0
 970 0028 D5F8D830 		ldr	r3, [r5, #216]
 971 002c 002B     		cmp	r3, #0
 972 002e F5D1     		bne	.L80
 784:Middlewares/Third_Party/LibJPEG/source/jcmaster.c ****     break;
 973              		.loc 1 784 0
 974 0030 236A     		ldr	r3, [r4, #32]
 975 0032 0133     		adds	r3, r3, #1
 976 0034 2362     		str	r3, [r4, #32]
 977 0036 F1E7     		b	.L80
 978              	.L81:
 788:Middlewares/Third_Party/LibJPEG/source/jcmaster.c ****     break;
 979              		.loc 1 788 0
 980 0038 0223     		movs	r3, #2
 981 003a 2375     		strb	r3, [r4, #20]
 789:Middlewares/Third_Party/LibJPEG/source/jcmaster.c ****   case output_pass:
 982              		.loc 1 789 0
 983 003c EEE7     		b	.L80
 984              	.L83:
 792:Middlewares/Third_Party/LibJPEG/source/jcmaster.c ****       master->pass_type = huff_opt_pass;
 985              		.loc 1 792 0
 986 003e D5F8D830 		ldr	r3, [r5, #216]
 987 0042 0BB1     		cbz	r3, .L84
 793:Middlewares/Third_Party/LibJPEG/source/jcmaster.c ****     master->scan_number++;
 988              		.loc 1 793 0
 989 0044 0123     		movs	r3, #1
 990 0046 2375     		strb	r3, [r4, #20]
 991              	.L84:
 794:Middlewares/Third_Party/LibJPEG/source/jcmaster.c ****     break;
 992              		.loc 1 794 0
 993 0048 236A     		ldr	r3, [r4, #32]
 994 004a 0133     		adds	r3, r3, #1
 995 004c 2362     		str	r3, [r4, #32]
 795:Middlewares/Third_Party/LibJPEG/source/jcmaster.c ****   }
 996              		.loc 1 795 0
 997 004e E5E7     		b	.L80
 998              		.cfi_endproc
 999              	.LFE12:
 1001              		.section	.text.per_scan_setup,"ax",%progbits
 1002              		.align	1
 1003              		.syntax unified
 1004              		.thumb
 1005              		.thumb_func
 1006              		.fpu fpv5-sp-d16
 1008              	per_scan_setup:
 1009              	.LFB9:
 575:Middlewares/Third_Party/LibJPEG/source/jcmaster.c ****   int ci, mcublks, tmp;
 1010              		.loc 1 575 0
 1011              		.cfi_startproc
 1012              		@ args = 0, pretend = 0, frame = 0
 1013              		@ frame_needed = 0, uses_anonymous_args = 0
 1014              	.LVL98:
 1015 0000 F8B5     		push	{r3, r4, r5, r6, r7, lr}
ARM GAS  /tmp/cckGKv0o.s 			page 34


 1016              	.LCFI8:
 1017              		.cfi_def_cfa_offset 24
 1018              		.cfi_offset 3, -24
 1019              		.cfi_offset 4, -20
 1020              		.cfi_offset 5, -16
 1021              		.cfi_offset 6, -12
 1022              		.cfi_offset 7, -8
 1023              		.cfi_offset 14, -4
 1024 0002 0446     		mov	r4, r0
 579:Middlewares/Third_Party/LibJPEG/source/jcmaster.c ****     
 1025              		.loc 1 579 0
 1026 0004 D0F82031 		ldr	r3, [r0, #288]
 1027 0008 012B     		cmp	r3, #1
 1028 000a 29D0     		beq	.L102
 608:Middlewares/Third_Party/LibJPEG/source/jcmaster.c ****       ERREXIT2(cinfo, JERR_COMPONENT_COUNT, cinfo->comps_in_scan,
 1029              		.loc 1 608 0
 1030 000c 013B     		subs	r3, r3, #1
 1031 000e 032B     		cmp	r3, #3
 1032 0010 0CD9     		bls	.L90
 609:Middlewares/Third_Party/LibJPEG/source/jcmaster.c **** 	       MAX_COMPS_IN_SCAN);
 1033              		.loc 1 609 0
 1034 0012 0368     		ldr	r3, [r0]
 1035 0014 1B22     		movs	r2, #27
 1036 0016 5A61     		str	r2, [r3, #20]
 1037 0018 0368     		ldr	r3, [r0]
 1038 001a D0F82021 		ldr	r2, [r0, #288]
 1039 001e 9A61     		str	r2, [r3, #24]
 1040 0020 0368     		ldr	r3, [r0]
 1041 0022 0422     		movs	r2, #4
 1042 0024 DA61     		str	r2, [r3, #28]
 1043 0026 0368     		ldr	r3, [r0]
 1044 0028 1B68     		ldr	r3, [r3]
 1045 002a 9847     		blx	r3
 1046              	.LVL99:
 1047              	.L90:
 615:Middlewares/Third_Party/LibJPEG/source/jcmaster.c ****     cinfo->MCU_rows_in_scan = (JDIMENSION)
 1048              		.loc 1 615 0
 1049 002c D4F80C31 		ldr	r3, [r4, #268]
 1050 0030 D4F87811 		ldr	r1, [r4, #376]
 614:Middlewares/Third_Party/LibJPEG/source/jcmaster.c **** 		    (long) (cinfo->max_h_samp_factor * cinfo->block_size));
 1051              		.loc 1 614 0
 1052 0034 01FB03F1 		mul	r1, r1, r3
 1053 0038 206C     		ldr	r0, [r4, #64]
 1054 003a FFF7FEFF 		bl	jdiv_round_up
 1055              	.LVL100:
 613:Middlewares/Third_Party/LibJPEG/source/jcmaster.c ****       jdiv_round_up((long) cinfo->jpeg_width,
 1056              		.loc 1 613 0
 1057 003e C4F83401 		str	r0, [r4, #308]
 618:Middlewares/Third_Party/LibJPEG/source/jcmaster.c ****     
 1058              		.loc 1 618 0
 1059 0042 D4F81031 		ldr	r3, [r4, #272]
 1060 0046 D4F87811 		ldr	r1, [r4, #376]
 617:Middlewares/Third_Party/LibJPEG/source/jcmaster.c **** 		    (long) (cinfo->max_v_samp_factor * cinfo->block_size));
 1061              		.loc 1 617 0
 1062 004a 01FB03F1 		mul	r1, r1, r3
 1063 004e 606C     		ldr	r0, [r4, #68]
 1064 0050 FFF7FEFF 		bl	jdiv_round_up
ARM GAS  /tmp/cckGKv0o.s 			page 35


 1065              	.LVL101:
 616:Middlewares/Third_Party/LibJPEG/source/jcmaster.c ****       jdiv_round_up((long) cinfo->jpeg_height,
 1066              		.loc 1 616 0
 1067 0054 C4F83801 		str	r0, [r4, #312]
 620:Middlewares/Third_Party/LibJPEG/source/jcmaster.c ****     
 1068              		.loc 1 620 0
 1069 0058 0026     		movs	r6, #0
 1070 005a C4F83C61 		str	r6, [r4, #316]
 1071              	.LVL102:
 622:Middlewares/Third_Party/LibJPEG/source/jcmaster.c ****       compptr = cinfo->cur_comp_info[ci];
 1072              		.loc 1 622 0
 1073 005e 3BE0     		b	.L91
 1074              	.LVL103:
 1075              	.L102:
 582:Middlewares/Third_Party/LibJPEG/source/jcmaster.c ****     
 1076              		.loc 1 582 0
 1077 0060 D0F82431 		ldr	r3, [r0, #292]
 1078              	.LVL104:
 585:Middlewares/Third_Party/LibJPEG/source/jcmaster.c ****     cinfo->MCU_rows_in_scan = compptr->height_in_blocks;
 1079              		.loc 1 585 0
 1080 0064 DA69     		ldr	r2, [r3, #28]
 1081 0066 C0F83421 		str	r2, [r0, #308]
 586:Middlewares/Third_Party/LibJPEG/source/jcmaster.c ****     
 1082              		.loc 1 586 0
 1083 006a 1A6A     		ldr	r2, [r3, #32]
 1084 006c C0F83821 		str	r2, [r0, #312]
 589:Middlewares/Third_Party/LibJPEG/source/jcmaster.c ****     compptr->MCU_height = 1;
 1085              		.loc 1 589 0
 1086 0070 0122     		movs	r2, #1
 1087 0072 9A63     		str	r2, [r3, #56]
 590:Middlewares/Third_Party/LibJPEG/source/jcmaster.c ****     compptr->MCU_blocks = 1;
 1088              		.loc 1 590 0
 1089 0074 DA63     		str	r2, [r3, #60]
 591:Middlewares/Third_Party/LibJPEG/source/jcmaster.c ****     compptr->MCU_sample_width = compptr->DCT_h_scaled_size;
 1090              		.loc 1 591 0
 1091 0076 1A64     		str	r2, [r3, #64]
 592:Middlewares/Third_Party/LibJPEG/source/jcmaster.c ****     compptr->last_col_width = 1;
 1092              		.loc 1 592 0
 1093 0078 596A     		ldr	r1, [r3, #36]
 1094 007a 5964     		str	r1, [r3, #68]
 593:Middlewares/Third_Party/LibJPEG/source/jcmaster.c ****     /* For noninterleaved scans, it is convenient to define last_row_height
 1095              		.loc 1 593 0
 1096 007c 9A64     		str	r2, [r3, #72]
 597:Middlewares/Third_Party/LibJPEG/source/jcmaster.c ****     if (tmp == 0) tmp = compptr->v_samp_factor;
 1097              		.loc 1 597 0
 1098 007e 186A     		ldr	r0, [r3, #32]
 1099              	.LVL105:
 1100 0080 DA68     		ldr	r2, [r3, #12]
 1101 0082 B0FBF2F1 		udiv	r1, r0, r2
 1102 0086 02FB1101 		mls	r1, r2, r1, r0
 1103              	.LVL106:
 598:Middlewares/Third_Party/LibJPEG/source/jcmaster.c ****     compptr->last_row_height = tmp;
 1104              		.loc 1 598 0
 1105 008a 01B1     		cbz	r1, .L88
 597:Middlewares/Third_Party/LibJPEG/source/jcmaster.c ****     if (tmp == 0) tmp = compptr->v_samp_factor;
 1106              		.loc 1 597 0
 1107 008c 0A46     		mov	r2, r1
ARM GAS  /tmp/cckGKv0o.s 			page 36


 1108              	.L88:
 1109              	.LVL107:
 599:Middlewares/Third_Party/LibJPEG/source/jcmaster.c ****     
 1110              		.loc 1 599 0
 1111 008e DA64     		str	r2, [r3, #76]
 602:Middlewares/Third_Party/LibJPEG/source/jcmaster.c ****     cinfo->MCU_membership[0] = 0;
 1112              		.loc 1 602 0
 1113 0090 0123     		movs	r3, #1
 1114              	.LVL108:
 1115 0092 C4F83C31 		str	r3, [r4, #316]
 603:Middlewares/Third_Party/LibJPEG/source/jcmaster.c ****     
 1116              		.loc 1 603 0
 1117 0096 0023     		movs	r3, #0
 1118 0098 C4F84031 		str	r3, [r4, #320]
 1119              	.LVL109:
 1120              	.L89:
 649:Middlewares/Third_Party/LibJPEG/source/jcmaster.c ****     long nominal = (long) cinfo->restart_in_rows * (long) cinfo->MCUs_per_row;
 1121              		.loc 1 649 0
 1122 009c D4F8F020 		ldr	r2, [r4, #240]
 1123 00a0 002A     		cmp	r2, #0
 1124 00a2 0BDD     		ble	.L86
 1125              	.LBB4:
 650:Middlewares/Third_Party/LibJPEG/source/jcmaster.c ****     cinfo->restart_interval = (unsigned int) MIN(nominal, 65535L);
 1126              		.loc 1 650 0
 1127 00a4 D4F83431 		ldr	r3, [r4, #308]
 1128 00a8 03FB02F3 		mul	r3, r3, r2
 1129              	.LVL110:
 651:Middlewares/Third_Party/LibJPEG/source/jcmaster.c ****   }
 1130              		.loc 1 651 0
 1131 00ac 4FF6FE72 		movw	r2, #65534
 1132 00b0 9342     		cmp	r3, r2
 1133 00b2 01DD     		ble	.L99
 1134 00b4 4FF6FF73 		movw	r3, #65535
 1135              	.LVL111:
 1136              	.L99:
 651:Middlewares/Third_Party/LibJPEG/source/jcmaster.c ****   }
 1137              		.loc 1 651 0 is_stmt 0 discriminator 4
 1138 00b8 C4F8EC30 		str	r3, [r4, #236]
 1139              	.LVL112:
 1140              	.L86:
 1141              	.LBE4:
 653:Middlewares/Third_Party/LibJPEG/source/jcmaster.c **** 
 1142              		.loc 1 653 0 is_stmt 1
 1143 00bc F8BD     		pop	{r3, r4, r5, r6, r7, pc}
 1144              	.LVL113:
 1145              	.L96:
 641:Middlewares/Third_Party/LibJPEG/source/jcmaster.c ****       }
 1146              		.loc 1 641 0
 1147 00be D4F83C31 		ldr	r3, [r4, #316]
 1148 00c2 591C     		adds	r1, r3, #1
 1149 00c4 C4F83C11 		str	r1, [r4, #316]
 1150 00c8 5033     		adds	r3, r3, #80
 1151 00ca 44F82360 		str	r6, [r4, r3, lsl #2]
 640:Middlewares/Third_Party/LibJPEG/source/jcmaster.c **** 	cinfo->MCU_membership[cinfo->blocks_in_MCU++] = ci;
 1152              		.loc 1 640 0
 1153 00ce 1546     		mov	r5, r2
 1154              	.LVL114:
ARM GAS  /tmp/cckGKv0o.s 			page 37


 1155              	.L95:
 1156 00d0 6A1E     		subs	r2, r5, #1
 1157              	.LVL115:
 1158 00d2 002D     		cmp	r5, #0
 1159 00d4 F3DC     		bgt	.L96
 622:Middlewares/Third_Party/LibJPEG/source/jcmaster.c ****       compptr = cinfo->cur_comp_info[ci];
 1160              		.loc 1 622 0 discriminator 2
 1161 00d6 0136     		adds	r6, r6, #1
 1162              	.LVL116:
 1163              	.L91:
 622:Middlewares/Third_Party/LibJPEG/source/jcmaster.c ****       compptr = cinfo->cur_comp_info[ci];
 1164              		.loc 1 622 0 is_stmt 0 discriminator 1
 1165 00d8 D4F82031 		ldr	r3, [r4, #288]
 1166 00dc B342     		cmp	r3, r6
 1167 00de DDDD     		ble	.L89
 623:Middlewares/Third_Party/LibJPEG/source/jcmaster.c ****       /* Sampling factors give # of blocks of component in each MCU */
 1168              		.loc 1 623 0 is_stmt 1
 1169 00e0 06F14803 		add	r3, r6, #72
 1170 00e4 04EB8303 		add	r3, r4, r3, lsl #2
 1171 00e8 5B68     		ldr	r3, [r3, #4]
 1172              	.LVL117:
 625:Middlewares/Third_Party/LibJPEG/source/jcmaster.c ****       compptr->MCU_height = compptr->v_samp_factor;
 1173              		.loc 1 625 0
 1174 00ea 9A68     		ldr	r2, [r3, #8]
 1175 00ec 9A63     		str	r2, [r3, #56]
 626:Middlewares/Third_Party/LibJPEG/source/jcmaster.c ****       compptr->MCU_blocks = compptr->MCU_width * compptr->MCU_height;
 1176              		.loc 1 626 0
 1177 00ee D968     		ldr	r1, [r3, #12]
 1178 00f0 D963     		str	r1, [r3, #60]
 627:Middlewares/Third_Party/LibJPEG/source/jcmaster.c ****       compptr->MCU_sample_width = compptr->MCU_width * compptr->DCT_h_scaled_size;
 1179              		.loc 1 627 0
 1180 00f2 01FB02F5 		mul	r5, r1, r2
 1181 00f6 1D64     		str	r5, [r3, #64]
 628:Middlewares/Third_Party/LibJPEG/source/jcmaster.c ****       /* Figure number of non-dummy blocks in last MCU column & row */
 1182              		.loc 1 628 0
 1183 00f8 586A     		ldr	r0, [r3, #36]
 1184 00fa 00FB02F0 		mul	r0, r0, r2
 1185 00fe 5864     		str	r0, [r3, #68]
 630:Middlewares/Third_Party/LibJPEG/source/jcmaster.c ****       if (tmp == 0) tmp = compptr->MCU_width;
 1186              		.loc 1 630 0
 1187 0100 DF69     		ldr	r7, [r3, #28]
 1188 0102 B7FBF2F0 		udiv	r0, r7, r2
 1189 0106 02FB1070 		mls	r0, r2, r0, r7
 1190              	.LVL118:
 631:Middlewares/Third_Party/LibJPEG/source/jcmaster.c ****       compptr->last_col_width = tmp;
 1191              		.loc 1 631 0
 1192 010a 00B1     		cbz	r0, .L92
 630:Middlewares/Third_Party/LibJPEG/source/jcmaster.c ****       if (tmp == 0) tmp = compptr->MCU_width;
 1193              		.loc 1 630 0
 1194 010c 0246     		mov	r2, r0
 1195              	.L92:
 1196              	.LVL119:
 632:Middlewares/Third_Party/LibJPEG/source/jcmaster.c ****       tmp = (int) (compptr->height_in_blocks % compptr->MCU_height);
 1197              		.loc 1 632 0
 1198 010e 9A64     		str	r2, [r3, #72]
 633:Middlewares/Third_Party/LibJPEG/source/jcmaster.c ****       if (tmp == 0) tmp = compptr->MCU_height;
 1199              		.loc 1 633 0
ARM GAS  /tmp/cckGKv0o.s 			page 38


 1200 0110 186A     		ldr	r0, [r3, #32]
 1201 0112 B0FBF1F2 		udiv	r2, r0, r1
 1202              	.LVL120:
 1203 0116 01FB1202 		mls	r2, r1, r2, r0
 1204              	.LVL121:
 634:Middlewares/Third_Party/LibJPEG/source/jcmaster.c ****       compptr->last_row_height = tmp;
 1205              		.loc 1 634 0
 1206 011a 02B1     		cbz	r2, .L93
 633:Middlewares/Third_Party/LibJPEG/source/jcmaster.c ****       if (tmp == 0) tmp = compptr->MCU_height;
 1207              		.loc 1 633 0
 1208 011c 1146     		mov	r1, r2
 1209              	.L93:
 1210              	.LVL122:
 635:Middlewares/Third_Party/LibJPEG/source/jcmaster.c ****       /* Prepare array describing MCU composition */
 1211              		.loc 1 635 0
 1212 011e D964     		str	r1, [r3, #76]
 1213              	.LVL123:
 638:Middlewares/Third_Party/LibJPEG/source/jcmaster.c **** 	ERREXIT(cinfo, JERR_BAD_MCU_SIZE);
 1214              		.loc 1 638 0
 1215 0120 D4F83C31 		ldr	r3, [r4, #316]
 1216              	.LVL124:
 1217 0124 2B44     		add	r3, r3, r5
 1218 0126 0A2B     		cmp	r3, #10
 1219 0128 D2DD     		ble	.L95
 639:Middlewares/Third_Party/LibJPEG/source/jcmaster.c ****       while (mcublks-- > 0) {
 1220              		.loc 1 639 0
 1221 012a 2368     		ldr	r3, [r4]
 1222 012c 0E22     		movs	r2, #14
 1223 012e 5A61     		str	r2, [r3, #20]
 1224 0130 2368     		ldr	r3, [r4]
 1225 0132 1B68     		ldr	r3, [r3]
 1226 0134 2046     		mov	r0, r4
 1227 0136 9847     		blx	r3
 1228              	.LVL125:
 1229 0138 CAE7     		b	.L95
 1230              		.cfi_endproc
 1231              	.LFE9:
 1233              		.section	.text.prepare_for_pass,"ax",%progbits
 1234              		.align	1
 1235              		.syntax unified
 1236              		.thumb
 1237              		.thumb_func
 1238              		.fpu fpv5-sp-d16
 1240              	prepare_for_pass:
 1241              	.LFB10:
 666:Middlewares/Third_Party/LibJPEG/source/jcmaster.c ****   my_master_ptr master = (my_master_ptr) cinfo->master;
 1242              		.loc 1 666 0
 1243              		.cfi_startproc
 1244              		@ args = 0, pretend = 0, frame = 0
 1245              		@ frame_needed = 0, uses_anonymous_args = 0
 1246              	.LVL126:
 1247 0000 38B5     		push	{r3, r4, r5, lr}
 1248              	.LCFI9:
 1249              		.cfi_def_cfa_offset 16
 1250              		.cfi_offset 3, -16
 1251              		.cfi_offset 4, -12
 1252              		.cfi_offset 5, -8
ARM GAS  /tmp/cckGKv0o.s 			page 39


 1253              		.cfi_offset 14, -4
 1254 0002 0446     		mov	r4, r0
 667:Middlewares/Third_Party/LibJPEG/source/jcmaster.c **** 
 1255              		.loc 1 667 0
 1256 0004 D0F88451 		ldr	r5, [r0, #388]
 1257              	.LVL127:
 669:Middlewares/Third_Party/LibJPEG/source/jcmaster.c ****   case main_pass:
 1258              		.loc 1 669 0
 1259 0008 2B7D     		ldrb	r3, [r5, #20]	@ zero_extendqisi2
 1260 000a 012B     		cmp	r3, #1
 1261 000c 47D0     		beq	.L105
 1262 000e 43B1     		cbz	r3, .L106
 1263 0010 022B     		cmp	r3, #2
 1264 0012 64D0     		beq	.L107
 729:Middlewares/Third_Party/LibJPEG/source/jcmaster.c ****   }
 1265              		.loc 1 729 0
 1266 0014 0368     		ldr	r3, [r0]
 1267 0016 3122     		movs	r2, #49
 1268 0018 5A61     		str	r2, [r3, #20]
 1269 001a 0368     		ldr	r3, [r0]
 1270 001c 1B68     		ldr	r3, [r3]
 1271 001e 9847     		blx	r3
 1272              	.LVL128:
 1273 0020 7AE0     		b	.L111
 1274              	.LVL129:
 1275              	.L106:
 674:Middlewares/Third_Party/LibJPEG/source/jcmaster.c ****     per_scan_setup(cinfo);
 1276              		.loc 1 674 0
 1277 0022 FFF7FEFF 		bl	select_scan_parameters
 1278              	.LVL130:
 675:Middlewares/Third_Party/LibJPEG/source/jcmaster.c ****     if (! cinfo->raw_data_in) {
 1279              		.loc 1 675 0
 1280 0026 2046     		mov	r0, r4
 1281 0028 FFF7FEFF 		bl	per_scan_setup
 1282              	.LVL131:
 676:Middlewares/Third_Party/LibJPEG/source/jcmaster.c ****       (*cinfo->cconvert->start_pass) (cinfo);
 1283              		.loc 1 676 0
 1284 002c D4F8D030 		ldr	r3, [r4, #208]
 1285 0030 7BB9     		cbnz	r3, .L108
 677:Middlewares/Third_Party/LibJPEG/source/jcmaster.c ****       (*cinfo->downsample->start_pass) (cinfo);
 1286              		.loc 1 677 0
 1287 0032 D4F89831 		ldr	r3, [r4, #408]
 1288 0036 1B68     		ldr	r3, [r3]
 1289 0038 2046     		mov	r0, r4
 1290 003a 9847     		blx	r3
 1291              	.LVL132:
 678:Middlewares/Third_Party/LibJPEG/source/jcmaster.c ****       (*cinfo->prep->start_pass) (cinfo, JBUF_PASS_THRU);
 1292              		.loc 1 678 0
 1293 003c D4F89C31 		ldr	r3, [r4, #412]
 1294 0040 1B68     		ldr	r3, [r3]
 1295 0042 2046     		mov	r0, r4
 1296 0044 9847     		blx	r3
 1297              	.LVL133:
 679:Middlewares/Third_Party/LibJPEG/source/jcmaster.c ****     }
 1298              		.loc 1 679 0
 1299 0046 D4F88C31 		ldr	r3, [r4, #396]
 1300 004a 1B68     		ldr	r3, [r3]
ARM GAS  /tmp/cckGKv0o.s 			page 40


 1301 004c 0021     		movs	r1, #0
 1302 004e 2046     		mov	r0, r4
 1303 0050 9847     		blx	r3
 1304              	.LVL134:
 1305              	.L108:
 681:Middlewares/Third_Party/LibJPEG/source/jcmaster.c ****     (*cinfo->entropy->start_pass) (cinfo, cinfo->optimize_coding);
 1306              		.loc 1 681 0
 1307 0052 D4F8A031 		ldr	r3, [r4, #416]
 1308 0056 1B68     		ldr	r3, [r3]
 1309 0058 2046     		mov	r0, r4
 1310 005a 9847     		blx	r3
 1311              	.LVL135:
 682:Middlewares/Third_Party/LibJPEG/source/jcmaster.c ****     (*cinfo->coef->start_pass) (cinfo,
 1312              		.loc 1 682 0
 1313 005c D4F8A431 		ldr	r3, [r4, #420]
 1314 0060 1B68     		ldr	r3, [r3]
 1315 0062 D4F8D810 		ldr	r1, [r4, #216]
 1316 0066 2046     		mov	r0, r4
 1317 0068 9847     		blx	r3
 1318              	.LVL136:
 683:Middlewares/Third_Party/LibJPEG/source/jcmaster.c **** 				(master->total_passes > 1 ?
 1319              		.loc 1 683 0
 1320 006a D4F89031 		ldr	r3, [r4, #400]
 1321 006e 1B68     		ldr	r3, [r3]
 684:Middlewares/Third_Party/LibJPEG/source/jcmaster.c **** 				 JBUF_SAVE_AND_PASS : JBUF_PASS_THRU));
 1322              		.loc 1 684 0
 1323 0070 EA69     		ldr	r2, [r5, #28]
 683:Middlewares/Third_Party/LibJPEG/source/jcmaster.c **** 				(master->total_passes > 1 ?
 1324              		.loc 1 683 0
 1325 0072 012A     		cmp	r2, #1
 1326 0074 0EDD     		ble	.L117
 1327 0076 0321     		movs	r1, #3
 1328              	.L109:
 683:Middlewares/Third_Party/LibJPEG/source/jcmaster.c **** 				(master->total_passes > 1 ?
 1329              		.loc 1 683 0 is_stmt 0 discriminator 4
 1330 0078 2046     		mov	r0, r4
 1331 007a 9847     		blx	r3
 1332              	.LVL137:
 686:Middlewares/Third_Party/LibJPEG/source/jcmaster.c ****     if (cinfo->optimize_coding) {
 1333              		.loc 1 686 0 is_stmt 1 discriminator 4
 1334 007c D4F88831 		ldr	r3, [r4, #392]
 1335 0080 1B68     		ldr	r3, [r3]
 1336 0082 0021     		movs	r1, #0
 1337 0084 2046     		mov	r0, r4
 1338 0086 9847     		blx	r3
 1339              	.LVL138:
 687:Middlewares/Third_Party/LibJPEG/source/jcmaster.c ****       /* No immediate data output; postpone writing frame/scan headers */
 1340              		.loc 1 687 0 discriminator 4
 1341 0088 D4F8D830 		ldr	r3, [r4, #216]
 1342 008c 23B1     		cbz	r3, .L110
 689:Middlewares/Third_Party/LibJPEG/source/jcmaster.c ****     } else {
 1343              		.loc 1 689 0
 1344 008e 0023     		movs	r3, #0
 1345 0090 EB60     		str	r3, [r5, #12]
 1346 0092 41E0     		b	.L111
 1347              	.L117:
 683:Middlewares/Third_Party/LibJPEG/source/jcmaster.c **** 				(master->total_passes > 1 ?
ARM GAS  /tmp/cckGKv0o.s 			page 41


 1348              		.loc 1 683 0
 1349 0094 0021     		movs	r1, #0
 1350 0096 EFE7     		b	.L109
 1351              	.L110:
 692:Middlewares/Third_Party/LibJPEG/source/jcmaster.c ****     }
 1352              		.loc 1 692 0
 1353 0098 0123     		movs	r3, #1
 1354 009a EB60     		str	r3, [r5, #12]
 1355 009c 3CE0     		b	.L111
 1356              	.LVL139:
 1357              	.L105:
 698:Middlewares/Third_Party/LibJPEG/source/jcmaster.c ****     per_scan_setup(cinfo);
 1358              		.loc 1 698 0
 1359 009e FFF7FEFF 		bl	select_scan_parameters
 1360              	.LVL140:
 699:Middlewares/Third_Party/LibJPEG/source/jcmaster.c ****     if (cinfo->Ss != 0 || cinfo->Ah == 0) {
 1361              		.loc 1 699 0
 1362 00a2 2046     		mov	r0, r4
 1363 00a4 FFF7FEFF 		bl	per_scan_setup
 1364              	.LVL141:
 700:Middlewares/Third_Party/LibJPEG/source/jcmaster.c ****       (*cinfo->entropy->start_pass) (cinfo, TRUE);
 1365              		.loc 1 700 0
 1366 00a8 D4F86831 		ldr	r3, [r4, #360]
 1367 00ac 73B1     		cbz	r3, .L120
 1368              	.L112:
 701:Middlewares/Third_Party/LibJPEG/source/jcmaster.c ****       (*cinfo->coef->start_pass) (cinfo, JBUF_CRANK_DEST);
 1369              		.loc 1 701 0
 1370 00ae D4F8A431 		ldr	r3, [r4, #420]
 1371 00b2 1B68     		ldr	r3, [r3]
 1372 00b4 0121     		movs	r1, #1
 1373 00b6 2046     		mov	r0, r4
 1374 00b8 9847     		blx	r3
 1375              	.LVL142:
 702:Middlewares/Third_Party/LibJPEG/source/jcmaster.c ****       master->pub.call_pass_startup = FALSE;
 1376              		.loc 1 702 0
 1377 00ba D4F89031 		ldr	r3, [r4, #400]
 1378 00be 1B68     		ldr	r3, [r3]
 1379 00c0 0221     		movs	r1, #2
 1380 00c2 2046     		mov	r0, r4
 1381 00c4 9847     		blx	r3
 1382              	.LVL143:
 703:Middlewares/Third_Party/LibJPEG/source/jcmaster.c ****       break;
 1383              		.loc 1 703 0
 1384 00c6 0023     		movs	r3, #0
 1385 00c8 EB60     		str	r3, [r5, #12]
 704:Middlewares/Third_Party/LibJPEG/source/jcmaster.c ****     }
 1386              		.loc 1 704 0
 1387 00ca 25E0     		b	.L111
 1388              	.L120:
 700:Middlewares/Third_Party/LibJPEG/source/jcmaster.c ****       (*cinfo->entropy->start_pass) (cinfo, TRUE);
 1389              		.loc 1 700 0 discriminator 1
 1390 00cc D4F87031 		ldr	r3, [r4, #368]
 1391 00d0 002B     		cmp	r3, #0
 1392 00d2 ECD0     		beq	.L112
 709:Middlewares/Third_Party/LibJPEG/source/jcmaster.c ****     master->pass_number++;
 1393              		.loc 1 709 0
 1394 00d4 0223     		movs	r3, #2
ARM GAS  /tmp/cckGKv0o.s 			page 42


 1395 00d6 2B75     		strb	r3, [r5, #20]
 710:Middlewares/Third_Party/LibJPEG/source/jcmaster.c ****     /*FALLTHROUGH*/
 1396              		.loc 1 710 0
 1397 00d8 AB69     		ldr	r3, [r5, #24]
 1398 00da 0133     		adds	r3, r3, #1
 1399 00dc AB61     		str	r3, [r5, #24]
 1400              	.L107:
 716:Middlewares/Third_Party/LibJPEG/source/jcmaster.c ****       select_scan_parameters(cinfo);
 1401              		.loc 1 716 0
 1402 00de D4F8D830 		ldr	r3, [r4, #216]
 1403 00e2 43B3     		cbz	r3, .L121
 1404              	.L114:
 720:Middlewares/Third_Party/LibJPEG/source/jcmaster.c ****     (*cinfo->coef->start_pass) (cinfo, JBUF_CRANK_DEST);
 1405              		.loc 1 720 0
 1406 00e4 D4F8A431 		ldr	r3, [r4, #420]
 1407 00e8 1B68     		ldr	r3, [r3]
 1408 00ea 0021     		movs	r1, #0
 1409 00ec 2046     		mov	r0, r4
 1410 00ee 9847     		blx	r3
 1411              	.LVL144:
 721:Middlewares/Third_Party/LibJPEG/source/jcmaster.c ****     /* We emit frame/scan headers now */
 1412              		.loc 1 721 0
 1413 00f0 D4F89031 		ldr	r3, [r4, #400]
 1414 00f4 1B68     		ldr	r3, [r3]
 1415 00f6 0221     		movs	r1, #2
 1416 00f8 2046     		mov	r0, r4
 1417 00fa 9847     		blx	r3
 1418              	.LVL145:
 723:Middlewares/Third_Party/LibJPEG/source/jcmaster.c ****       (*cinfo->marker->write_frame_header) (cinfo);
 1419              		.loc 1 723 0
 1420 00fc 2B6A     		ldr	r3, [r5, #32]
 1421 00fe 23B9     		cbnz	r3, .L115
 724:Middlewares/Third_Party/LibJPEG/source/jcmaster.c ****     (*cinfo->marker->write_scan_header) (cinfo);
 1422              		.loc 1 724 0
 1423 0100 D4F89431 		ldr	r3, [r4, #404]
 1424 0104 5B68     		ldr	r3, [r3, #4]
 1425 0106 2046     		mov	r0, r4
 1426 0108 9847     		blx	r3
 1427              	.LVL146:
 1428              	.L115:
 725:Middlewares/Third_Party/LibJPEG/source/jcmaster.c ****     master->pub.call_pass_startup = FALSE;
 1429              		.loc 1 725 0
 1430 010a D4F89431 		ldr	r3, [r4, #404]
 1431 010e 9B68     		ldr	r3, [r3, #8]
 1432 0110 2046     		mov	r0, r4
 1433 0112 9847     		blx	r3
 1434              	.LVL147:
 726:Middlewares/Third_Party/LibJPEG/source/jcmaster.c ****     break;
 1435              		.loc 1 726 0
 1436 0114 0023     		movs	r3, #0
 1437 0116 EB60     		str	r3, [r5, #12]
 1438              	.L111:
 732:Middlewares/Third_Party/LibJPEG/source/jcmaster.c **** 
 1439              		.loc 1 732 0
 1440 0118 AA69     		ldr	r2, [r5, #24]
 1441 011a EB69     		ldr	r3, [r5, #28]
 1442 011c 013B     		subs	r3, r3, #1
ARM GAS  /tmp/cckGKv0o.s 			page 43


 1443 011e 9A42     		cmp	r2, r3
 1444 0120 14BF     		ite	ne
 1445 0122 0023     		movne	r3, #0
 1446 0124 0123     		moveq	r3, #1
 1447 0126 2B61     		str	r3, [r5, #16]
 735:Middlewares/Third_Party/LibJPEG/source/jcmaster.c ****     cinfo->progress->completed_passes = master->pass_number;
 1448              		.loc 1 735 0
 1449 0128 A368     		ldr	r3, [r4, #8]
 1450 012a 1BB1     		cbz	r3, .L103
 736:Middlewares/Third_Party/LibJPEG/source/jcmaster.c ****     cinfo->progress->total_passes = master->total_passes;
 1451              		.loc 1 736 0
 1452 012c DA60     		str	r2, [r3, #12]
 737:Middlewares/Third_Party/LibJPEG/source/jcmaster.c ****   }
 1453              		.loc 1 737 0
 1454 012e A368     		ldr	r3, [r4, #8]
 1455 0130 EA69     		ldr	r2, [r5, #28]
 1456 0132 1A61     		str	r2, [r3, #16]
 1457              	.L103:
 739:Middlewares/Third_Party/LibJPEG/source/jcmaster.c **** 
 1458              		.loc 1 739 0
 1459 0134 38BD     		pop	{r3, r4, r5, pc}
 1460              	.LVL148:
 1461              	.L121:
 717:Middlewares/Third_Party/LibJPEG/source/jcmaster.c ****       per_scan_setup(cinfo);
 1462              		.loc 1 717 0
 1463 0136 2046     		mov	r0, r4
 1464 0138 FFF7FEFF 		bl	select_scan_parameters
 1465              	.LVL149:
 718:Middlewares/Third_Party/LibJPEG/source/jcmaster.c ****     }
 1466              		.loc 1 718 0
 1467 013c 2046     		mov	r0, r4
 1468 013e FFF7FEFF 		bl	per_scan_setup
 1469              	.LVL150:
 1470 0142 CFE7     		b	.L114
 1471              		.cfi_endproc
 1472              	.LFE10:
 1474              		.section	.text.jpeg_calc_jpeg_dimensions,"ax",%progbits
 1475              		.align	1
 1476              		.global	jpeg_calc_jpeg_dimensions
 1477              		.syntax unified
 1478              		.thumb
 1479              		.thumb_func
 1480              		.fpu fpv5-sp-d16
 1482              	jpeg_calc_jpeg_dimensions:
 1483              	.LFB3:
  55:Middlewares/Third_Party/LibJPEG/source/jcmaster.c **** #ifdef DCT_SCALING_SUPPORTED
 1484              		.loc 1 55 0
 1485              		.cfi_startproc
 1486              		@ args = 0, pretend = 0, frame = 0
 1487              		@ frame_needed = 0, uses_anonymous_args = 0
 1488              	.LVL151:
 1489 0000 38B5     		push	{r3, r4, r5, lr}
 1490              	.LCFI10:
 1491              		.cfi_def_cfa_offset 16
 1492              		.cfi_offset 3, -16
 1493              		.cfi_offset 4, -12
 1494              		.cfi_offset 5, -8
ARM GAS  /tmp/cckGKv0o.s 			page 44


 1495              		.cfi_offset 14, -4
 1496 0002 0446     		mov	r4, r0
  64:Middlewares/Third_Party/LibJPEG/source/jcmaster.c ****     ERREXIT1(cinfo, JERR_IMAGE_TOO_BIG, (unsigned int) JPEG_MAX_DIMENSION);
 1497              		.loc 1 64 0
 1498 0004 90F91F30 		ldrsb	r3, [r0, #31]
 1499 0008 002B     		cmp	r3, #0
 1500 000a 72D0     		beq	.L142
 1501              	.L123:
  65:Middlewares/Third_Party/LibJPEG/source/jcmaster.c **** 
 1502              		.loc 1 65 0
 1503 000c 2368     		ldr	r3, [r4]
 1504 000e 2A22     		movs	r2, #42
 1505 0010 5A61     		str	r2, [r3, #20]
 1506 0012 2368     		ldr	r3, [r4]
 1507 0014 4FF6DC72 		movw	r2, #65500
 1508 0018 9A61     		str	r2, [r3, #24]
 1509 001a 2368     		ldr	r3, [r4]
 1510 001c 1B68     		ldr	r3, [r3]
 1511 001e 2046     		mov	r0, r4
 1512              	.LVL152:
 1513 0020 9847     		blx	r3
 1514              	.LVL153:
 1515              	.L124:
  68:Middlewares/Third_Party/LibJPEG/source/jcmaster.c ****     /* Provide block_size/1 scaling */
 1516              		.loc 1 68 0
 1517 0022 A26B     		ldr	r2, [r4, #56]
 1518 0024 E36B     		ldr	r3, [r4, #60]
 1519 0026 D4F87851 		ldr	r5, [r4, #376]
 1520 002a 05FB03F3 		mul	r3, r5, r3
 1521 002e 9A42     		cmp	r2, r3
 1522 0030 64D2     		bcs	.L143
  74:Middlewares/Third_Party/LibJPEG/source/jcmaster.c ****     /* Provide block_size/2 scaling */
 1523              		.loc 1 74 0
 1524 0032 B3EB420F 		cmp	r3, r2, lsl #1
 1525 0036 6FD9     		bls	.L144
  82:Middlewares/Third_Party/LibJPEG/source/jcmaster.c ****     /* Provide block_size/3 scaling */
 1526              		.loc 1 82 0
 1527 0038 02EB4201 		add	r1, r2, r2, lsl #1
 1528 003c 8B42     		cmp	r3, r1
 1529 003e 40F28180 		bls	.L145
  90:Middlewares/Third_Party/LibJPEG/source/jcmaster.c ****     /* Provide block_size/4 scaling */
 1530              		.loc 1 90 0
 1531 0042 B3EB820F 		cmp	r3, r2, lsl #2
 1532 0046 40F29380 		bls	.L146
  98:Middlewares/Third_Party/LibJPEG/source/jcmaster.c ****     /* Provide block_size/5 scaling */
 1533              		.loc 1 98 0
 1534 004a 02EB8201 		add	r1, r2, r2, lsl #2
 1535 004e 8B42     		cmp	r3, r1
 1536 0050 40F2A480 		bls	.L147
 106:Middlewares/Third_Party/LibJPEG/source/jcmaster.c ****     /* Provide block_size/6 scaling */
 1537              		.loc 1 106 0
 1538 0054 02EB4200 		add	r0, r2, r2, lsl #1
 1539 0058 4100     		lsls	r1, r0, #1
 1540 005a 8B42     		cmp	r3, r1
 1541 005c 40F2B480 		bls	.L148
 114:Middlewares/Third_Party/LibJPEG/source/jcmaster.c ****     /* Provide block_size/7 scaling */
 1542              		.loc 1 114 0
ARM GAS  /tmp/cckGKv0o.s 			page 45


 1543 0060 C2EBC201 		rsb	r1, r2, r2, lsl #3
 1544 0064 8B42     		cmp	r3, r1
 1545 0066 40F2C580 		bls	.L149
 122:Middlewares/Third_Party/LibJPEG/source/jcmaster.c ****     /* Provide block_size/8 scaling */
 1546              		.loc 1 122 0
 1547 006a B3EBC20F 		cmp	r3, r2, lsl #3
 1548 006e 40F2D780 		bls	.L150
 130:Middlewares/Third_Party/LibJPEG/source/jcmaster.c ****     /* Provide block_size/9 scaling */
 1549              		.loc 1 130 0
 1550 0072 02EBC201 		add	r1, r2, r2, lsl #3
 1551 0076 8B42     		cmp	r3, r1
 1552 0078 40F2E880 		bls	.L151
 138:Middlewares/Third_Party/LibJPEG/source/jcmaster.c ****     /* Provide block_size/10 scaling */
 1553              		.loc 1 138 0
 1554 007c 02EB8200 		add	r0, r2, r2, lsl #2
 1555 0080 4100     		lsls	r1, r0, #1
 1556 0082 8B42     		cmp	r3, r1
 1557 0084 40F2F880 		bls	.L152
 146:Middlewares/Third_Party/LibJPEG/source/jcmaster.c ****     /* Provide block_size/11 scaling */
 1558              		.loc 1 146 0
 1559 0088 02EB8201 		add	r1, r2, r2, lsl #2
 1560 008c 02EB4101 		add	r1, r2, r1, lsl #1
 1561 0090 8B42     		cmp	r3, r1
 1562 0092 40F20781 		bls	.L153
 154:Middlewares/Third_Party/LibJPEG/source/jcmaster.c ****     /* Provide block_size/12 scaling */
 1563              		.loc 1 154 0
 1564 0096 02EB4200 		add	r0, r2, r2, lsl #1
 1565 009a 8100     		lsls	r1, r0, #2
 1566 009c 8B42     		cmp	r3, r1
 1567 009e 40F21781 		bls	.L154
 162:Middlewares/Third_Party/LibJPEG/source/jcmaster.c ****     /* Provide block_size/13 scaling */
 1568              		.loc 1 162 0
 1569 00a2 02EB4201 		add	r1, r2, r2, lsl #1
 1570 00a6 02EB8101 		add	r1, r2, r1, lsl #2
 1571 00aa 8B42     		cmp	r3, r1
 1572 00ac 40F22681 		bls	.L155
 170:Middlewares/Third_Party/LibJPEG/source/jcmaster.c ****     /* Provide block_size/14 scaling */
 1573              		.loc 1 170 0
 1574 00b0 C2EBC200 		rsb	r0, r2, r2, lsl #3
 1575 00b4 4100     		lsls	r1, r0, #1
 1576 00b6 8B42     		cmp	r3, r1
 1577 00b8 40F23681 		bls	.L156
 178:Middlewares/Third_Party/LibJPEG/source/jcmaster.c ****     /* Provide block_size/15 scaling */
 1578              		.loc 1 178 0
 1579 00bc C2EB0212 		rsb	r2, r2, r2, lsl #4
 1580 00c0 9342     		cmp	r3, r2
 1581 00c2 40F24781 		bls	.L157
 189:Middlewares/Third_Party/LibJPEG/source/jcmaster.c ****     cinfo->jpeg_height = (JDIMENSION)
 1582              		.loc 1 189 0
 1583 00c6 E069     		ldr	r0, [r4, #28]
 1584 00c8 1021     		movs	r1, #16
 1585 00ca 00FB05F0 		mul	r0, r0, r5
 1586 00ce FFF7FEFF 		bl	jdiv_round_up
 1587              	.LVL154:
 188:Middlewares/Third_Party/LibJPEG/source/jcmaster.c ****       jdiv_round_up((long) cinfo->image_width * cinfo->block_size, 16L);
 1588              		.loc 1 188 0
 1589 00d2 2064     		str	r0, [r4, #64]
ARM GAS  /tmp/cckGKv0o.s 			page 46


 191:Middlewares/Third_Party/LibJPEG/source/jcmaster.c ****     cinfo->min_DCT_h_scaled_size = 16;
 1590              		.loc 1 191 0
 1591 00d4 236A     		ldr	r3, [r4, #32]
 1592 00d6 D4F87801 		ldr	r0, [r4, #376]
 1593 00da 1021     		movs	r1, #16
 1594 00dc 00FB03F0 		mul	r0, r0, r3
 1595 00e0 FFF7FEFF 		bl	jdiv_round_up
 1596              	.LVL155:
 190:Middlewares/Third_Party/LibJPEG/source/jcmaster.c ****       jdiv_round_up((long) cinfo->image_height * cinfo->block_size, 16L);
 1597              		.loc 1 190 0
 1598 00e4 6064     		str	r0, [r4, #68]
 192:Middlewares/Third_Party/LibJPEG/source/jcmaster.c ****     cinfo->min_DCT_v_scaled_size = 16;
 1599              		.loc 1 192 0
 1600 00e6 1023     		movs	r3, #16
 1601 00e8 C4F81431 		str	r3, [r4, #276]
 193:Middlewares/Third_Party/LibJPEG/source/jcmaster.c ****   }
 1602              		.loc 1 193 0
 1603 00ec C4F81831 		str	r3, [r4, #280]
 205:Middlewares/Third_Party/LibJPEG/source/jcmaster.c **** 
 1604              		.loc 1 205 0
 1605 00f0 11E0     		b	.L122
 1606              	.LVL156:
 1607              	.L142:
  64:Middlewares/Third_Party/LibJPEG/source/jcmaster.c ****     ERREXIT1(cinfo, JERR_IMAGE_TOO_BIG, (unsigned int) JPEG_MAX_DIMENSION);
 1608              		.loc 1 64 0 discriminator 1
 1609 00f2 90F92330 		ldrsb	r3, [r0, #35]
 1610 00f6 002B     		cmp	r3, #0
 1611 00f8 93D0     		beq	.L124
 1612 00fa 87E7     		b	.L123
 1613              	.LVL157:
 1614              	.L143:
  70:Middlewares/Third_Party/LibJPEG/source/jcmaster.c ****     cinfo->jpeg_height = cinfo->image_height * cinfo->block_size;
 1615              		.loc 1 70 0
 1616 00fc E369     		ldr	r3, [r4, #28]
 1617 00fe 03FB05F3 		mul	r3, r3, r5
 1618 0102 2364     		str	r3, [r4, #64]
  71:Middlewares/Third_Party/LibJPEG/source/jcmaster.c ****     cinfo->min_DCT_h_scaled_size = 1;
 1619              		.loc 1 71 0
 1620 0104 206A     		ldr	r0, [r4, #32]
 1621 0106 00FB05F0 		mul	r0, r0, r5
 1622 010a 6064     		str	r0, [r4, #68]
  72:Middlewares/Third_Party/LibJPEG/source/jcmaster.c ****     cinfo->min_DCT_v_scaled_size = 1;
 1623              		.loc 1 72 0
 1624 010c 0123     		movs	r3, #1
 1625 010e C4F81431 		str	r3, [r4, #276]
  73:Middlewares/Third_Party/LibJPEG/source/jcmaster.c ****   } else if (cinfo->scale_num * 2 >= cinfo->scale_denom * cinfo->block_size) {
 1626              		.loc 1 73 0
 1627 0112 C4F81831 		str	r3, [r4, #280]
 1628              	.L122:
 205:Middlewares/Third_Party/LibJPEG/source/jcmaster.c **** 
 1629              		.loc 1 205 0
 1630 0116 38BD     		pop	{r3, r4, r5, pc}
 1631              	.LVL158:
 1632              	.L144:
  77:Middlewares/Third_Party/LibJPEG/source/jcmaster.c ****     cinfo->jpeg_height = (JDIMENSION)
 1633              		.loc 1 77 0
 1634 0118 E069     		ldr	r0, [r4, #28]
ARM GAS  /tmp/cckGKv0o.s 			page 47


 1635 011a 0221     		movs	r1, #2
 1636 011c 00FB05F0 		mul	r0, r0, r5
 1637 0120 FFF7FEFF 		bl	jdiv_round_up
 1638              	.LVL159:
  76:Middlewares/Third_Party/LibJPEG/source/jcmaster.c ****       jdiv_round_up((long) cinfo->image_width * cinfo->block_size, 2L);
 1639              		.loc 1 76 0
 1640 0124 2064     		str	r0, [r4, #64]
  79:Middlewares/Third_Party/LibJPEG/source/jcmaster.c ****     cinfo->min_DCT_h_scaled_size = 2;
 1641              		.loc 1 79 0
 1642 0126 236A     		ldr	r3, [r4, #32]
 1643 0128 D4F87801 		ldr	r0, [r4, #376]
 1644 012c 0221     		movs	r1, #2
 1645 012e 00FB03F0 		mul	r0, r0, r3
 1646 0132 FFF7FEFF 		bl	jdiv_round_up
 1647              	.LVL160:
  78:Middlewares/Third_Party/LibJPEG/source/jcmaster.c ****       jdiv_round_up((long) cinfo->image_height * cinfo->block_size, 2L);
 1648              		.loc 1 78 0
 1649 0136 6064     		str	r0, [r4, #68]
  80:Middlewares/Third_Party/LibJPEG/source/jcmaster.c ****     cinfo->min_DCT_v_scaled_size = 2;
 1650              		.loc 1 80 0
 1651 0138 0223     		movs	r3, #2
 1652 013a C4F81431 		str	r3, [r4, #276]
  81:Middlewares/Third_Party/LibJPEG/source/jcmaster.c ****   } else if (cinfo->scale_num * 3 >= cinfo->scale_denom * cinfo->block_size) {
 1653              		.loc 1 81 0
 1654 013e C4F81831 		str	r3, [r4, #280]
 1655 0142 E8E7     		b	.L122
 1656              	.L145:
  85:Middlewares/Third_Party/LibJPEG/source/jcmaster.c ****     cinfo->jpeg_height = (JDIMENSION)
 1657              		.loc 1 85 0
 1658 0144 E069     		ldr	r0, [r4, #28]
 1659 0146 0321     		movs	r1, #3
 1660 0148 00FB05F0 		mul	r0, r0, r5
 1661 014c FFF7FEFF 		bl	jdiv_round_up
 1662              	.LVL161:
  84:Middlewares/Third_Party/LibJPEG/source/jcmaster.c ****       jdiv_round_up((long) cinfo->image_width * cinfo->block_size, 3L);
 1663              		.loc 1 84 0
 1664 0150 2064     		str	r0, [r4, #64]
  87:Middlewares/Third_Party/LibJPEG/source/jcmaster.c ****     cinfo->min_DCT_h_scaled_size = 3;
 1665              		.loc 1 87 0
 1666 0152 236A     		ldr	r3, [r4, #32]
 1667 0154 D4F87801 		ldr	r0, [r4, #376]
 1668 0158 0321     		movs	r1, #3
 1669 015a 00FB03F0 		mul	r0, r0, r3
 1670 015e FFF7FEFF 		bl	jdiv_round_up
 1671              	.LVL162:
  86:Middlewares/Third_Party/LibJPEG/source/jcmaster.c ****       jdiv_round_up((long) cinfo->image_height * cinfo->block_size, 3L);
 1672              		.loc 1 86 0
 1673 0162 6064     		str	r0, [r4, #68]
  88:Middlewares/Third_Party/LibJPEG/source/jcmaster.c ****     cinfo->min_DCT_v_scaled_size = 3;
 1674              		.loc 1 88 0
 1675 0164 0323     		movs	r3, #3
 1676 0166 C4F81431 		str	r3, [r4, #276]
  89:Middlewares/Third_Party/LibJPEG/source/jcmaster.c ****   } else if (cinfo->scale_num * 4 >= cinfo->scale_denom * cinfo->block_size) {
 1677              		.loc 1 89 0
 1678 016a C4F81831 		str	r3, [r4, #280]
 1679 016e D2E7     		b	.L122
 1680              	.L146:
ARM GAS  /tmp/cckGKv0o.s 			page 48


  93:Middlewares/Third_Party/LibJPEG/source/jcmaster.c ****     cinfo->jpeg_height = (JDIMENSION)
 1681              		.loc 1 93 0
 1682 0170 E069     		ldr	r0, [r4, #28]
 1683 0172 0421     		movs	r1, #4
 1684 0174 00FB05F0 		mul	r0, r0, r5
 1685 0178 FFF7FEFF 		bl	jdiv_round_up
 1686              	.LVL163:
  92:Middlewares/Third_Party/LibJPEG/source/jcmaster.c ****       jdiv_round_up((long) cinfo->image_width * cinfo->block_size, 4L);
 1687              		.loc 1 92 0
 1688 017c 2064     		str	r0, [r4, #64]
  95:Middlewares/Third_Party/LibJPEG/source/jcmaster.c ****     cinfo->min_DCT_h_scaled_size = 4;
 1689              		.loc 1 95 0
 1690 017e 236A     		ldr	r3, [r4, #32]
 1691 0180 D4F87801 		ldr	r0, [r4, #376]
 1692 0184 0421     		movs	r1, #4
 1693 0186 00FB03F0 		mul	r0, r0, r3
 1694 018a FFF7FEFF 		bl	jdiv_round_up
 1695              	.LVL164:
  94:Middlewares/Third_Party/LibJPEG/source/jcmaster.c ****       jdiv_round_up((long) cinfo->image_height * cinfo->block_size, 4L);
 1696              		.loc 1 94 0
 1697 018e 6064     		str	r0, [r4, #68]
  96:Middlewares/Third_Party/LibJPEG/source/jcmaster.c ****     cinfo->min_DCT_v_scaled_size = 4;
 1698              		.loc 1 96 0
 1699 0190 0423     		movs	r3, #4
 1700 0192 C4F81431 		str	r3, [r4, #276]
  97:Middlewares/Third_Party/LibJPEG/source/jcmaster.c ****   } else if (cinfo->scale_num * 5 >= cinfo->scale_denom * cinfo->block_size) {
 1701              		.loc 1 97 0
 1702 0196 C4F81831 		str	r3, [r4, #280]
 1703 019a BCE7     		b	.L122
 1704              	.L147:
 101:Middlewares/Third_Party/LibJPEG/source/jcmaster.c ****     cinfo->jpeg_height = (JDIMENSION)
 1705              		.loc 1 101 0
 1706 019c E069     		ldr	r0, [r4, #28]
 1707 019e 0521     		movs	r1, #5
 1708 01a0 00FB05F0 		mul	r0, r0, r5
 1709 01a4 FFF7FEFF 		bl	jdiv_round_up
 1710              	.LVL165:
 100:Middlewares/Third_Party/LibJPEG/source/jcmaster.c ****       jdiv_round_up((long) cinfo->image_width * cinfo->block_size, 5L);
 1711              		.loc 1 100 0
 1712 01a8 2064     		str	r0, [r4, #64]
 103:Middlewares/Third_Party/LibJPEG/source/jcmaster.c ****     cinfo->min_DCT_h_scaled_size = 5;
 1713              		.loc 1 103 0
 1714 01aa 236A     		ldr	r3, [r4, #32]
 1715 01ac D4F87801 		ldr	r0, [r4, #376]
 1716 01b0 0521     		movs	r1, #5
 1717 01b2 00FB03F0 		mul	r0, r0, r3
 1718 01b6 FFF7FEFF 		bl	jdiv_round_up
 1719              	.LVL166:
 102:Middlewares/Third_Party/LibJPEG/source/jcmaster.c ****       jdiv_round_up((long) cinfo->image_height * cinfo->block_size, 5L);
 1720              		.loc 1 102 0
 1721 01ba 6064     		str	r0, [r4, #68]
 104:Middlewares/Third_Party/LibJPEG/source/jcmaster.c ****     cinfo->min_DCT_v_scaled_size = 5;
 1722              		.loc 1 104 0
 1723 01bc 0523     		movs	r3, #5
 1724 01be C4F81431 		str	r3, [r4, #276]
 105:Middlewares/Third_Party/LibJPEG/source/jcmaster.c ****   } else if (cinfo->scale_num * 6 >= cinfo->scale_denom * cinfo->block_size) {
 1725              		.loc 1 105 0
ARM GAS  /tmp/cckGKv0o.s 			page 49


 1726 01c2 C4F81831 		str	r3, [r4, #280]
 1727 01c6 A6E7     		b	.L122
 1728              	.L148:
 109:Middlewares/Third_Party/LibJPEG/source/jcmaster.c ****     cinfo->jpeg_height = (JDIMENSION)
 1729              		.loc 1 109 0
 1730 01c8 E069     		ldr	r0, [r4, #28]
 1731 01ca 0621     		movs	r1, #6
 1732 01cc 00FB05F0 		mul	r0, r0, r5
 1733 01d0 FFF7FEFF 		bl	jdiv_round_up
 1734              	.LVL167:
 108:Middlewares/Third_Party/LibJPEG/source/jcmaster.c ****       jdiv_round_up((long) cinfo->image_width * cinfo->block_size, 6L);
 1735              		.loc 1 108 0
 1736 01d4 2064     		str	r0, [r4, #64]
 111:Middlewares/Third_Party/LibJPEG/source/jcmaster.c ****     cinfo->min_DCT_h_scaled_size = 6;
 1737              		.loc 1 111 0
 1738 01d6 236A     		ldr	r3, [r4, #32]
 1739 01d8 D4F87801 		ldr	r0, [r4, #376]
 1740 01dc 0621     		movs	r1, #6
 1741 01de 00FB03F0 		mul	r0, r0, r3
 1742 01e2 FFF7FEFF 		bl	jdiv_round_up
 1743              	.LVL168:
 110:Middlewares/Third_Party/LibJPEG/source/jcmaster.c ****       jdiv_round_up((long) cinfo->image_height * cinfo->block_size, 6L);
 1744              		.loc 1 110 0
 1745 01e6 6064     		str	r0, [r4, #68]
 112:Middlewares/Third_Party/LibJPEG/source/jcmaster.c ****     cinfo->min_DCT_v_scaled_size = 6;
 1746              		.loc 1 112 0
 1747 01e8 0623     		movs	r3, #6
 1748 01ea C4F81431 		str	r3, [r4, #276]
 113:Middlewares/Third_Party/LibJPEG/source/jcmaster.c ****   } else if (cinfo->scale_num * 7 >= cinfo->scale_denom * cinfo->block_size) {
 1749              		.loc 1 113 0
 1750 01ee C4F81831 		str	r3, [r4, #280]
 1751 01f2 90E7     		b	.L122
 1752              	.L149:
 117:Middlewares/Third_Party/LibJPEG/source/jcmaster.c ****     cinfo->jpeg_height = (JDIMENSION)
 1753              		.loc 1 117 0
 1754 01f4 E069     		ldr	r0, [r4, #28]
 1755 01f6 0721     		movs	r1, #7
 1756 01f8 00FB05F0 		mul	r0, r0, r5
 1757 01fc FFF7FEFF 		bl	jdiv_round_up
 1758              	.LVL169:
 116:Middlewares/Third_Party/LibJPEG/source/jcmaster.c ****       jdiv_round_up((long) cinfo->image_width * cinfo->block_size, 7L);
 1759              		.loc 1 116 0
 1760 0200 2064     		str	r0, [r4, #64]
 119:Middlewares/Third_Party/LibJPEG/source/jcmaster.c ****     cinfo->min_DCT_h_scaled_size = 7;
 1761              		.loc 1 119 0
 1762 0202 236A     		ldr	r3, [r4, #32]
 1763 0204 D4F87801 		ldr	r0, [r4, #376]
 1764 0208 0721     		movs	r1, #7
 1765 020a 00FB03F0 		mul	r0, r0, r3
 1766 020e FFF7FEFF 		bl	jdiv_round_up
 1767              	.LVL170:
 118:Middlewares/Third_Party/LibJPEG/source/jcmaster.c ****       jdiv_round_up((long) cinfo->image_height * cinfo->block_size, 7L);
 1768              		.loc 1 118 0
 1769 0212 6064     		str	r0, [r4, #68]
 120:Middlewares/Third_Party/LibJPEG/source/jcmaster.c ****     cinfo->min_DCT_v_scaled_size = 7;
 1770              		.loc 1 120 0
 1771 0214 0723     		movs	r3, #7
ARM GAS  /tmp/cckGKv0o.s 			page 50


 1772 0216 C4F81431 		str	r3, [r4, #276]
 121:Middlewares/Third_Party/LibJPEG/source/jcmaster.c ****   } else if (cinfo->scale_num * 8 >= cinfo->scale_denom * cinfo->block_size) {
 1773              		.loc 1 121 0
 1774 021a C4F81831 		str	r3, [r4, #280]
 1775 021e 7AE7     		b	.L122
 1776              	.L150:
 125:Middlewares/Third_Party/LibJPEG/source/jcmaster.c ****     cinfo->jpeg_height = (JDIMENSION)
 1777              		.loc 1 125 0
 1778 0220 E069     		ldr	r0, [r4, #28]
 1779 0222 0821     		movs	r1, #8
 1780 0224 00FB05F0 		mul	r0, r0, r5
 1781 0228 FFF7FEFF 		bl	jdiv_round_up
 1782              	.LVL171:
 124:Middlewares/Third_Party/LibJPEG/source/jcmaster.c ****       jdiv_round_up((long) cinfo->image_width * cinfo->block_size, 8L);
 1783              		.loc 1 124 0
 1784 022c 2064     		str	r0, [r4, #64]
 127:Middlewares/Third_Party/LibJPEG/source/jcmaster.c ****     cinfo->min_DCT_h_scaled_size = 8;
 1785              		.loc 1 127 0
 1786 022e 236A     		ldr	r3, [r4, #32]
 1787 0230 D4F87801 		ldr	r0, [r4, #376]
 1788 0234 0821     		movs	r1, #8
 1789 0236 00FB03F0 		mul	r0, r0, r3
 1790 023a FFF7FEFF 		bl	jdiv_round_up
 1791              	.LVL172:
 126:Middlewares/Third_Party/LibJPEG/source/jcmaster.c ****       jdiv_round_up((long) cinfo->image_height * cinfo->block_size, 8L);
 1792              		.loc 1 126 0
 1793 023e 6064     		str	r0, [r4, #68]
 128:Middlewares/Third_Party/LibJPEG/source/jcmaster.c ****     cinfo->min_DCT_v_scaled_size = 8;
 1794              		.loc 1 128 0
 1795 0240 0823     		movs	r3, #8
 1796 0242 C4F81431 		str	r3, [r4, #276]
 129:Middlewares/Third_Party/LibJPEG/source/jcmaster.c ****   } else if (cinfo->scale_num * 9 >= cinfo->scale_denom * cinfo->block_size) {
 1797              		.loc 1 129 0
 1798 0246 C4F81831 		str	r3, [r4, #280]
 1799 024a 64E7     		b	.L122
 1800              	.L151:
 133:Middlewares/Third_Party/LibJPEG/source/jcmaster.c ****     cinfo->jpeg_height = (JDIMENSION)
 1801              		.loc 1 133 0
 1802 024c E069     		ldr	r0, [r4, #28]
 1803 024e 0921     		movs	r1, #9
 1804 0250 00FB05F0 		mul	r0, r0, r5
 1805 0254 FFF7FEFF 		bl	jdiv_round_up
 1806              	.LVL173:
 132:Middlewares/Third_Party/LibJPEG/source/jcmaster.c ****       jdiv_round_up((long) cinfo->image_width * cinfo->block_size, 9L);
 1807              		.loc 1 132 0
 1808 0258 2064     		str	r0, [r4, #64]
 135:Middlewares/Third_Party/LibJPEG/source/jcmaster.c ****     cinfo->min_DCT_h_scaled_size = 9;
 1809              		.loc 1 135 0
 1810 025a 236A     		ldr	r3, [r4, #32]
 1811 025c D4F87801 		ldr	r0, [r4, #376]
 1812 0260 0921     		movs	r1, #9
 1813 0262 00FB03F0 		mul	r0, r0, r3
 1814 0266 FFF7FEFF 		bl	jdiv_round_up
 1815              	.LVL174:
 134:Middlewares/Third_Party/LibJPEG/source/jcmaster.c ****       jdiv_round_up((long) cinfo->image_height * cinfo->block_size, 9L);
 1816              		.loc 1 134 0
 1817 026a 6064     		str	r0, [r4, #68]
ARM GAS  /tmp/cckGKv0o.s 			page 51


 136:Middlewares/Third_Party/LibJPEG/source/jcmaster.c ****     cinfo->min_DCT_v_scaled_size = 9;
 1818              		.loc 1 136 0
 1819 026c 0923     		movs	r3, #9
 1820 026e C4F81431 		str	r3, [r4, #276]
 137:Middlewares/Third_Party/LibJPEG/source/jcmaster.c ****   } else if (cinfo->scale_num * 10 >= cinfo->scale_denom * cinfo->block_size) {
 1821              		.loc 1 137 0
 1822 0272 C4F81831 		str	r3, [r4, #280]
 1823 0276 4EE7     		b	.L122
 1824              	.L152:
 141:Middlewares/Third_Party/LibJPEG/source/jcmaster.c ****     cinfo->jpeg_height = (JDIMENSION)
 1825              		.loc 1 141 0
 1826 0278 E069     		ldr	r0, [r4, #28]
 1827 027a 0A21     		movs	r1, #10
 1828 027c 00FB05F0 		mul	r0, r0, r5
 1829 0280 FFF7FEFF 		bl	jdiv_round_up
 1830              	.LVL175:
 140:Middlewares/Third_Party/LibJPEG/source/jcmaster.c ****       jdiv_round_up((long) cinfo->image_width * cinfo->block_size, 10L);
 1831              		.loc 1 140 0
 1832 0284 2064     		str	r0, [r4, #64]
 143:Middlewares/Third_Party/LibJPEG/source/jcmaster.c ****     cinfo->min_DCT_h_scaled_size = 10;
 1833              		.loc 1 143 0
 1834 0286 236A     		ldr	r3, [r4, #32]
 1835 0288 D4F87801 		ldr	r0, [r4, #376]
 1836 028c 0A21     		movs	r1, #10
 1837 028e 00FB03F0 		mul	r0, r0, r3
 1838 0292 FFF7FEFF 		bl	jdiv_round_up
 1839              	.LVL176:
 142:Middlewares/Third_Party/LibJPEG/source/jcmaster.c ****       jdiv_round_up((long) cinfo->image_height * cinfo->block_size, 10L);
 1840              		.loc 1 142 0
 1841 0296 6064     		str	r0, [r4, #68]
 144:Middlewares/Third_Party/LibJPEG/source/jcmaster.c ****     cinfo->min_DCT_v_scaled_size = 10;
 1842              		.loc 1 144 0
 1843 0298 0A23     		movs	r3, #10
 1844 029a C4F81431 		str	r3, [r4, #276]
 145:Middlewares/Third_Party/LibJPEG/source/jcmaster.c ****   } else if (cinfo->scale_num * 11 >= cinfo->scale_denom * cinfo->block_size) {
 1845              		.loc 1 145 0
 1846 029e C4F81831 		str	r3, [r4, #280]
 1847 02a2 38E7     		b	.L122
 1848              	.L153:
 149:Middlewares/Third_Party/LibJPEG/source/jcmaster.c ****     cinfo->jpeg_height = (JDIMENSION)
 1849              		.loc 1 149 0
 1850 02a4 E069     		ldr	r0, [r4, #28]
 1851 02a6 0B21     		movs	r1, #11
 1852 02a8 00FB05F0 		mul	r0, r0, r5
 1853 02ac FFF7FEFF 		bl	jdiv_round_up
 1854              	.LVL177:
 148:Middlewares/Third_Party/LibJPEG/source/jcmaster.c ****       jdiv_round_up((long) cinfo->image_width * cinfo->block_size, 11L);
 1855              		.loc 1 148 0
 1856 02b0 2064     		str	r0, [r4, #64]
 151:Middlewares/Third_Party/LibJPEG/source/jcmaster.c ****     cinfo->min_DCT_h_scaled_size = 11;
 1857              		.loc 1 151 0
 1858 02b2 236A     		ldr	r3, [r4, #32]
 1859 02b4 D4F87801 		ldr	r0, [r4, #376]
 1860 02b8 0B21     		movs	r1, #11
 1861 02ba 00FB03F0 		mul	r0, r0, r3
 1862 02be FFF7FEFF 		bl	jdiv_round_up
 1863              	.LVL178:
ARM GAS  /tmp/cckGKv0o.s 			page 52


 150:Middlewares/Third_Party/LibJPEG/source/jcmaster.c ****       jdiv_round_up((long) cinfo->image_height * cinfo->block_size, 11L);
 1864              		.loc 1 150 0
 1865 02c2 6064     		str	r0, [r4, #68]
 152:Middlewares/Third_Party/LibJPEG/source/jcmaster.c ****     cinfo->min_DCT_v_scaled_size = 11;
 1866              		.loc 1 152 0
 1867 02c4 0B23     		movs	r3, #11
 1868 02c6 C4F81431 		str	r3, [r4, #276]
 153:Middlewares/Third_Party/LibJPEG/source/jcmaster.c ****   } else if (cinfo->scale_num * 12 >= cinfo->scale_denom * cinfo->block_size) {
 1869              		.loc 1 153 0
 1870 02ca C4F81831 		str	r3, [r4, #280]
 1871 02ce 22E7     		b	.L122
 1872              	.L154:
 157:Middlewares/Third_Party/LibJPEG/source/jcmaster.c ****     cinfo->jpeg_height = (JDIMENSION)
 1873              		.loc 1 157 0
 1874 02d0 E069     		ldr	r0, [r4, #28]
 1875 02d2 0C21     		movs	r1, #12
 1876 02d4 00FB05F0 		mul	r0, r0, r5
 1877 02d8 FFF7FEFF 		bl	jdiv_round_up
 1878              	.LVL179:
 156:Middlewares/Third_Party/LibJPEG/source/jcmaster.c ****       jdiv_round_up((long) cinfo->image_width * cinfo->block_size, 12L);
 1879              		.loc 1 156 0
 1880 02dc 2064     		str	r0, [r4, #64]
 159:Middlewares/Third_Party/LibJPEG/source/jcmaster.c ****     cinfo->min_DCT_h_scaled_size = 12;
 1881              		.loc 1 159 0
 1882 02de 236A     		ldr	r3, [r4, #32]
 1883 02e0 D4F87801 		ldr	r0, [r4, #376]
 1884 02e4 0C21     		movs	r1, #12
 1885 02e6 00FB03F0 		mul	r0, r0, r3
 1886 02ea FFF7FEFF 		bl	jdiv_round_up
 1887              	.LVL180:
 158:Middlewares/Third_Party/LibJPEG/source/jcmaster.c ****       jdiv_round_up((long) cinfo->image_height * cinfo->block_size, 12L);
 1888              		.loc 1 158 0
 1889 02ee 6064     		str	r0, [r4, #68]
 160:Middlewares/Third_Party/LibJPEG/source/jcmaster.c ****     cinfo->min_DCT_v_scaled_size = 12;
 1890              		.loc 1 160 0
 1891 02f0 0C23     		movs	r3, #12
 1892 02f2 C4F81431 		str	r3, [r4, #276]
 161:Middlewares/Third_Party/LibJPEG/source/jcmaster.c ****   } else if (cinfo->scale_num * 13 >= cinfo->scale_denom * cinfo->block_size) {
 1893              		.loc 1 161 0
 1894 02f6 C4F81831 		str	r3, [r4, #280]
 1895 02fa 0CE7     		b	.L122
 1896              	.L155:
 165:Middlewares/Third_Party/LibJPEG/source/jcmaster.c ****     cinfo->jpeg_height = (JDIMENSION)
 1897              		.loc 1 165 0
 1898 02fc E069     		ldr	r0, [r4, #28]
 1899 02fe 0D21     		movs	r1, #13
 1900 0300 00FB05F0 		mul	r0, r0, r5
 1901 0304 FFF7FEFF 		bl	jdiv_round_up
 1902              	.LVL181:
 164:Middlewares/Third_Party/LibJPEG/source/jcmaster.c ****       jdiv_round_up((long) cinfo->image_width * cinfo->block_size, 13L);
 1903              		.loc 1 164 0
 1904 0308 2064     		str	r0, [r4, #64]
 167:Middlewares/Third_Party/LibJPEG/source/jcmaster.c ****     cinfo->min_DCT_h_scaled_size = 13;
 1905              		.loc 1 167 0
 1906 030a 236A     		ldr	r3, [r4, #32]
 1907 030c D4F87801 		ldr	r0, [r4, #376]
 1908 0310 0D21     		movs	r1, #13
ARM GAS  /tmp/cckGKv0o.s 			page 53


 1909 0312 00FB03F0 		mul	r0, r0, r3
 1910 0316 FFF7FEFF 		bl	jdiv_round_up
 1911              	.LVL182:
 166:Middlewares/Third_Party/LibJPEG/source/jcmaster.c ****       jdiv_round_up((long) cinfo->image_height * cinfo->block_size, 13L);
 1912              		.loc 1 166 0
 1913 031a 6064     		str	r0, [r4, #68]
 168:Middlewares/Third_Party/LibJPEG/source/jcmaster.c ****     cinfo->min_DCT_v_scaled_size = 13;
 1914              		.loc 1 168 0
 1915 031c 0D23     		movs	r3, #13
 1916 031e C4F81431 		str	r3, [r4, #276]
 169:Middlewares/Third_Party/LibJPEG/source/jcmaster.c ****   } else if (cinfo->scale_num * 14 >= cinfo->scale_denom * cinfo->block_size) {
 1917              		.loc 1 169 0
 1918 0322 C4F81831 		str	r3, [r4, #280]
 1919 0326 F6E6     		b	.L122
 1920              	.L156:
 173:Middlewares/Third_Party/LibJPEG/source/jcmaster.c ****     cinfo->jpeg_height = (JDIMENSION)
 1921              		.loc 1 173 0
 1922 0328 E069     		ldr	r0, [r4, #28]
 1923 032a 0E21     		movs	r1, #14
 1924 032c 00FB05F0 		mul	r0, r0, r5
 1925 0330 FFF7FEFF 		bl	jdiv_round_up
 1926              	.LVL183:
 172:Middlewares/Third_Party/LibJPEG/source/jcmaster.c ****       jdiv_round_up((long) cinfo->image_width * cinfo->block_size, 14L);
 1927              		.loc 1 172 0
 1928 0334 2064     		str	r0, [r4, #64]
 175:Middlewares/Third_Party/LibJPEG/source/jcmaster.c ****     cinfo->min_DCT_h_scaled_size = 14;
 1929              		.loc 1 175 0
 1930 0336 236A     		ldr	r3, [r4, #32]
 1931 0338 D4F87801 		ldr	r0, [r4, #376]
 1932 033c 0E21     		movs	r1, #14
 1933 033e 00FB03F0 		mul	r0, r0, r3
 1934 0342 FFF7FEFF 		bl	jdiv_round_up
 1935              	.LVL184:
 174:Middlewares/Third_Party/LibJPEG/source/jcmaster.c ****       jdiv_round_up((long) cinfo->image_height * cinfo->block_size, 14L);
 1936              		.loc 1 174 0
 1937 0346 6064     		str	r0, [r4, #68]
 176:Middlewares/Third_Party/LibJPEG/source/jcmaster.c ****     cinfo->min_DCT_v_scaled_size = 14;
 1938              		.loc 1 176 0
 1939 0348 0E23     		movs	r3, #14
 1940 034a C4F81431 		str	r3, [r4, #276]
 177:Middlewares/Third_Party/LibJPEG/source/jcmaster.c ****   } else if (cinfo->scale_num * 15 >= cinfo->scale_denom * cinfo->block_size) {
 1941              		.loc 1 177 0
 1942 034e C4F81831 		str	r3, [r4, #280]
 1943 0352 E0E6     		b	.L122
 1944              	.L157:
 181:Middlewares/Third_Party/LibJPEG/source/jcmaster.c ****     cinfo->jpeg_height = (JDIMENSION)
 1945              		.loc 1 181 0
 1946 0354 E069     		ldr	r0, [r4, #28]
 1947 0356 0F21     		movs	r1, #15
 1948 0358 00FB05F0 		mul	r0, r0, r5
 1949 035c FFF7FEFF 		bl	jdiv_round_up
 1950              	.LVL185:
 180:Middlewares/Third_Party/LibJPEG/source/jcmaster.c ****       jdiv_round_up((long) cinfo->image_width * cinfo->block_size, 15L);
 1951              		.loc 1 180 0
 1952 0360 2064     		str	r0, [r4, #64]
 183:Middlewares/Third_Party/LibJPEG/source/jcmaster.c ****     cinfo->min_DCT_h_scaled_size = 15;
 1953              		.loc 1 183 0
ARM GAS  /tmp/cckGKv0o.s 			page 54


 1954 0362 236A     		ldr	r3, [r4, #32]
 1955 0364 D4F87801 		ldr	r0, [r4, #376]
 1956 0368 0F21     		movs	r1, #15
 1957 036a 00FB03F0 		mul	r0, r0, r3
 1958 036e FFF7FEFF 		bl	jdiv_round_up
 1959              	.LVL186:
 182:Middlewares/Third_Party/LibJPEG/source/jcmaster.c ****       jdiv_round_up((long) cinfo->image_height * cinfo->block_size, 15L);
 1960              		.loc 1 182 0
 1961 0372 6064     		str	r0, [r4, #68]
 184:Middlewares/Third_Party/LibJPEG/source/jcmaster.c ****     cinfo->min_DCT_v_scaled_size = 15;
 1962              		.loc 1 184 0
 1963 0374 0F23     		movs	r3, #15
 1964 0376 C4F81431 		str	r3, [r4, #276]
 185:Middlewares/Third_Party/LibJPEG/source/jcmaster.c ****   } else {
 1965              		.loc 1 185 0
 1966 037a C4F81831 		str	r3, [r4, #280]
 1967 037e CAE6     		b	.L122
 1968              		.cfi_endproc
 1969              	.LFE3:
 1971              		.section	.text.initial_setup,"ax",%progbits
 1972              		.align	1
 1973              		.syntax unified
 1974              		.thumb
 1975              		.thumb_func
 1976              		.fpu fpv5-sp-d16
 1978              	initial_setup:
 1979              	.LFB5:
 222:Middlewares/Third_Party/LibJPEG/source/jcmaster.c ****   int ci, ssize;
 1980              		.loc 1 222 0
 1981              		.cfi_startproc
 1982              		@ args = 0, pretend = 0, frame = 0
 1983              		@ frame_needed = 0, uses_anonymous_args = 0
 1984              	.LVL187:
 1985 0000 F8B5     		push	{r3, r4, r5, r6, r7, lr}
 1986              	.LCFI11:
 1987              		.cfi_def_cfa_offset 24
 1988              		.cfi_offset 3, -24
 1989              		.cfi_offset 4, -20
 1990              		.cfi_offset 5, -16
 1991              		.cfi_offset 6, -12
 1992              		.cfi_offset 7, -8
 1993              		.cfi_offset 14, -4
 1994 0002 0446     		mov	r4, r0
 228:Middlewares/Third_Party/LibJPEG/source/jcmaster.c ****     jpeg_calc_trans_dimensions(cinfo);
 1995              		.loc 1 228 0
 1996 0004 F9B1     		cbz	r1, .L159
 229:Middlewares/Third_Party/LibJPEG/source/jcmaster.c ****   else
 1997              		.loc 1 229 0
 1998 0006 FFF7FEFF 		bl	jpeg_calc_trans_dimensions
 1999              	.LVL188:
 2000              	.L160:
 234:Middlewares/Third_Party/LibJPEG/source/jcmaster.c ****     ERREXIT2(cinfo, JERR_BAD_DCTSIZE, cinfo->block_size, cinfo->block_size);
 2001              		.loc 1 234 0
 2002 000a D4F87831 		ldr	r3, [r4, #376]
 2003 000e 013B     		subs	r3, r3, #1
 2004 0010 0F2B     		cmp	r3, #15
 2005 0012 0ED9     		bls	.L161
ARM GAS  /tmp/cckGKv0o.s 			page 55


 235:Middlewares/Third_Party/LibJPEG/source/jcmaster.c **** 
 2006              		.loc 1 235 0
 2007 0014 2368     		ldr	r3, [r4]
 2008 0016 0722     		movs	r2, #7
 2009 0018 5A61     		str	r2, [r3, #20]
 2010 001a 2368     		ldr	r3, [r4]
 2011 001c D4F87821 		ldr	r2, [r4, #376]
 2012 0020 9A61     		str	r2, [r3, #24]
 2013 0022 2368     		ldr	r3, [r4]
 2014 0024 D4F87821 		ldr	r2, [r4, #376]
 2015 0028 DA61     		str	r2, [r3, #28]
 2016 002a 2368     		ldr	r3, [r4]
 2017 002c 1B68     		ldr	r3, [r3]
 2018 002e 2046     		mov	r0, r4
 2019 0030 9847     		blx	r3
 2020              	.LVL189:
 2021              	.L161:
 238:Middlewares/Third_Party/LibJPEG/source/jcmaster.c ****   case 2: cinfo->natural_order = jpeg_natural_order2; break;
 2022              		.loc 1 238 0
 2023 0032 D4F87831 		ldr	r3, [r4, #376]
 2024 0036 9A1E     		subs	r2, r3, #2
 2025 0038 052A     		cmp	r2, #5
 2026 003a 24D8     		bhi	.L162
 2027 003c DFE802F0 		tbb	[pc, r2]
 2028              	.L164:
 2029 0040 06       		.byte	(.L163-.L164)/2
 2030 0041 0F       		.byte	(.L165-.L164)/2
 2031 0042 13       		.byte	(.L166-.L164)/2
 2032 0043 17       		.byte	(.L167-.L164)/2
 2033 0044 1B       		.byte	(.L168-.L164)/2
 2034 0045 1F       		.byte	(.L169-.L164)/2
 2035              	.LVL190:
 2036              		.p2align 1
 2037              	.L159:
 231:Middlewares/Third_Party/LibJPEG/source/jcmaster.c **** 
 2038              		.loc 1 231 0
 2039 0046 FFF7FEFF 		bl	jpeg_calc_jpeg_dimensions
 2040              	.LVL191:
 2041 004a DEE7     		b	.L160
 2042              	.L163:
 239:Middlewares/Third_Party/LibJPEG/source/jcmaster.c ****   case 3: cinfo->natural_order = jpeg_natural_order3; break;
 2043              		.loc 1 239 0
 2044 004c 944A     		ldr	r2, .L202
 2045 004e C4F87C21 		str	r2, [r4, #380]
 2046              	.L170:
 250:Middlewares/Third_Party/LibJPEG/source/jcmaster.c **** 
 2047              		.loc 1 250 0
 2048 0052 072B     		cmp	r3, #7
 2049 0054 1BDC     		bgt	.L194
 250:Middlewares/Third_Party/LibJPEG/source/jcmaster.c **** 
 2050              		.loc 1 250 0 is_stmt 0 discriminator 1
 2051 0056 03FB03F3 		mul	r3, r3, r3
 2052 005a 013B     		subs	r3, r3, #1
 2053 005c 18E0     		b	.L171
 2054              	.L165:
 240:Middlewares/Third_Party/LibJPEG/source/jcmaster.c ****   case 4: cinfo->natural_order = jpeg_natural_order4; break;
 2055              		.loc 1 240 0 is_stmt 1
ARM GAS  /tmp/cckGKv0o.s 			page 56


 2056 005e 914A     		ldr	r2, .L202+4
 2057 0060 C4F87C21 		str	r2, [r4, #380]
 2058 0064 F5E7     		b	.L170
 2059              	.L166:
 241:Middlewares/Third_Party/LibJPEG/source/jcmaster.c ****   case 5: cinfo->natural_order = jpeg_natural_order5; break;
 2060              		.loc 1 241 0
 2061 0066 904A     		ldr	r2, .L202+8
 2062 0068 C4F87C21 		str	r2, [r4, #380]
 2063 006c F1E7     		b	.L170
 2064              	.L167:
 242:Middlewares/Third_Party/LibJPEG/source/jcmaster.c ****   case 6: cinfo->natural_order = jpeg_natural_order6; break;
 2065              		.loc 1 242 0
 2066 006e 8F4A     		ldr	r2, .L202+12
 2067 0070 C4F87C21 		str	r2, [r4, #380]
 2068 0074 EDE7     		b	.L170
 2069              	.L168:
 243:Middlewares/Third_Party/LibJPEG/source/jcmaster.c ****   case 7: cinfo->natural_order = jpeg_natural_order7; break;
 2070              		.loc 1 243 0
 2071 0076 8E4A     		ldr	r2, .L202+16
 2072 0078 C4F87C21 		str	r2, [r4, #380]
 2073 007c E9E7     		b	.L170
 2074              	.L169:
 244:Middlewares/Third_Party/LibJPEG/source/jcmaster.c ****   default: cinfo->natural_order = jpeg_natural_order; break;
 2075              		.loc 1 244 0
 2076 007e 8D4A     		ldr	r2, .L202+20
 2077 0080 C4F87C21 		str	r2, [r4, #380]
 2078 0084 E5E7     		b	.L170
 2079              	.L162:
 245:Middlewares/Third_Party/LibJPEG/source/jcmaster.c ****   }
 2080              		.loc 1 245 0
 2081 0086 8C4A     		ldr	r2, .L202+24
 2082 0088 C4F87C21 		str	r2, [r4, #380]
 2083 008c E1E7     		b	.L170
 2084              	.L194:
 250:Middlewares/Third_Party/LibJPEG/source/jcmaster.c **** 
 2085              		.loc 1 250 0
 2086 008e 3F23     		movs	r3, #63
 2087              	.L171:
 249:Middlewares/Third_Party/LibJPEG/source/jcmaster.c ****     cinfo->block_size * cinfo->block_size - 1 : DCTSIZE2-1;
 2088              		.loc 1 249 0
 2089 0090 C4F88031 		str	r3, [r4, #384]
 253:Middlewares/Third_Party/LibJPEG/source/jcmaster.c ****       cinfo->num_components <= 0 || cinfo->input_components <= 0)
 2090              		.loc 1 253 0
 2091 0094 636C     		ldr	r3, [r4, #68]
 2092 0096 002B     		cmp	r3, #0
 2093 0098 3BD1     		bne	.L198
 2094              	.L172:
 255:Middlewares/Third_Party/LibJPEG/source/jcmaster.c **** 
 2095              		.loc 1 255 0
 2096 009a 2368     		ldr	r3, [r4]
 2097 009c 2122     		movs	r2, #33
 2098 009e 5A61     		str	r2, [r3, #20]
 2099 00a0 2368     		ldr	r3, [r4]
 2100 00a2 1B68     		ldr	r3, [r3]
 2101 00a4 2046     		mov	r0, r4
 2102 00a6 9847     		blx	r3
 2103              	.LVL192:
ARM GAS  /tmp/cckGKv0o.s 			page 57


 2104              	.L173:
 258:Middlewares/Third_Party/LibJPEG/source/jcmaster.c ****       (long) cinfo->jpeg_width > (long) JPEG_MAX_DIMENSION)
 2105              		.loc 1 258 0
 2106 00a8 626C     		ldr	r2, [r4, #68]
 2107 00aa 4FF6DC73 		movw	r3, #65500
 2108 00ae 9A42     		cmp	r2, r3
 2109 00b0 39DD     		ble	.L199
 2110              	.L174:
 260:Middlewares/Third_Party/LibJPEG/source/jcmaster.c **** 
 2111              		.loc 1 260 0
 2112 00b2 2368     		ldr	r3, [r4]
 2113 00b4 2A22     		movs	r2, #42
 2114 00b6 5A61     		str	r2, [r3, #20]
 2115 00b8 2368     		ldr	r3, [r4]
 2116 00ba 4FF6DC72 		movw	r2, #65500
 2117 00be 9A61     		str	r2, [r3, #24]
 2118 00c0 2368     		ldr	r3, [r4]
 2119 00c2 1B68     		ldr	r3, [r3]
 2120 00c4 2046     		mov	r0, r4
 2121 00c6 9847     		blx	r3
 2122              	.LVL193:
 2123              	.L175:
 269:Middlewares/Third_Party/LibJPEG/source/jcmaster.c ****     ERREXIT1(cinfo, JERR_BAD_PRECISION, cinfo->data_precision);
 2124              		.loc 1 269 0
 2125 00c8 A36C     		ldr	r3, [r4, #72]
 2126 00ca 082B     		cmp	r3, #8
 2127 00cc 09D0     		beq	.L176
 270:Middlewares/Third_Party/LibJPEG/source/jcmaster.c **** 
 2128              		.loc 1 270 0
 2129 00ce 2368     		ldr	r3, [r4]
 2130 00d0 1022     		movs	r2, #16
 2131 00d2 5A61     		str	r2, [r3, #20]
 2132              	.LVL194:
 2133 00d4 2368     		ldr	r3, [r4]
 2134 00d6 A26C     		ldr	r2, [r4, #72]
 2135 00d8 9A61     		str	r2, [r3, #24]
 2136 00da 2368     		ldr	r3, [r4]
 2137 00dc 1B68     		ldr	r3, [r3]
 2138 00de 2046     		mov	r0, r4
 2139 00e0 9847     		blx	r3
 2140              	.LVL195:
 2141              	.L176:
 273:Middlewares/Third_Party/LibJPEG/source/jcmaster.c ****     ERREXIT2(cinfo, JERR_COMPONENT_COUNT, cinfo->num_components,
 2142              		.loc 1 273 0
 2143 00e2 E36C     		ldr	r3, [r4, #76]
 2144 00e4 0A2B     		cmp	r3, #10
 2145 00e6 0CDD     		ble	.L177
 274:Middlewares/Third_Party/LibJPEG/source/jcmaster.c **** 	     MAX_COMPONENTS);
 2146              		.loc 1 274 0
 2147 00e8 2368     		ldr	r3, [r4]
 2148 00ea 1B22     		movs	r2, #27
 2149 00ec 5A61     		str	r2, [r3, #20]
 2150 00ee 2368     		ldr	r3, [r4]
 2151 00f0 E26C     		ldr	r2, [r4, #76]
 2152 00f2 9A61     		str	r2, [r3, #24]
 2153 00f4 2368     		ldr	r3, [r4]
 2154 00f6 0A22     		movs	r2, #10
ARM GAS  /tmp/cckGKv0o.s 			page 58


 2155 00f8 DA61     		str	r2, [r3, #28]
 2156 00fa 2368     		ldr	r3, [r4]
 2157 00fc 1B68     		ldr	r3, [r3]
 2158 00fe 2046     		mov	r0, r4
 2159 0100 9847     		blx	r3
 2160              	.LVL196:
 2161              	.L177:
 278:Middlewares/Third_Party/LibJPEG/source/jcmaster.c ****   cinfo->max_v_samp_factor = 1;
 2162              		.loc 1 278 0
 2163 0102 0123     		movs	r3, #1
 2164 0104 C4F80C31 		str	r3, [r4, #268]
 279:Middlewares/Third_Party/LibJPEG/source/jcmaster.c ****   for (ci = 0, compptr = cinfo->comp_info; ci < cinfo->num_components;
 2165              		.loc 1 279 0
 2166 0108 C4F81031 		str	r3, [r4, #272]
 2167              	.LVL197:
 280:Middlewares/Third_Party/LibJPEG/source/jcmaster.c ****        ci++, compptr++) {
 2168              		.loc 1 280 0
 2169 010c 656D     		ldr	r5, [r4, #84]
 2170              	.LVL198:
 2171 010e 0026     		movs	r6, #0
 2172 0110 26E0     		b	.L178
 2173              	.LVL199:
 2174              	.L198:
 253:Middlewares/Third_Party/LibJPEG/source/jcmaster.c ****       cinfo->num_components <= 0 || cinfo->input_components <= 0)
 2175              		.loc 1 253 0 discriminator 1
 2176 0112 236C     		ldr	r3, [r4, #64]
 2177 0114 002B     		cmp	r3, #0
 2178 0116 C0D0     		beq	.L172
 254:Middlewares/Third_Party/LibJPEG/source/jcmaster.c ****     ERREXIT(cinfo, JERR_EMPTY_IMAGE);
 2179              		.loc 1 254 0 discriminator 2
 2180 0118 E36C     		ldr	r3, [r4, #76]
 253:Middlewares/Third_Party/LibJPEG/source/jcmaster.c ****       cinfo->num_components <= 0 || cinfo->input_components <= 0)
 2181              		.loc 1 253 0 discriminator 2
 2182 011a 002B     		cmp	r3, #0
 2183 011c BDDD     		ble	.L172
 254:Middlewares/Third_Party/LibJPEG/source/jcmaster.c ****     ERREXIT(cinfo, JERR_EMPTY_IMAGE);
 2184              		.loc 1 254 0
 2185 011e 636A     		ldr	r3, [r4, #36]
 2186 0120 002B     		cmp	r3, #0
 2187 0122 C1DC     		bgt	.L173
 2188 0124 B9E7     		b	.L172
 2189              	.L199:
 259:Middlewares/Third_Party/LibJPEG/source/jcmaster.c ****     ERREXIT1(cinfo, JERR_IMAGE_TOO_BIG, (unsigned int) JPEG_MAX_DIMENSION);
 2190              		.loc 1 259 0 discriminator 1
 2191 0126 226C     		ldr	r2, [r4, #64]
 258:Middlewares/Third_Party/LibJPEG/source/jcmaster.c ****       (long) cinfo->jpeg_width > (long) JPEG_MAX_DIMENSION)
 2192              		.loc 1 258 0 discriminator 1
 2193 0128 9A42     		cmp	r2, r3
 2194 012a CDDD     		ble	.L175
 2195 012c C1E7     		b	.L174
 2196              	.LVL200:
 2197              	.L179:
 284:Middlewares/Third_Party/LibJPEG/source/jcmaster.c ****     cinfo->max_h_samp_factor = MAX(cinfo->max_h_samp_factor,
 2198              		.loc 1 284 0
 2199 012e 2368     		ldr	r3, [r4]
 2200 0130 1322     		movs	r2, #19
 2201 0132 5A61     		str	r2, [r3, #20]
ARM GAS  /tmp/cckGKv0o.s 			page 59


 2202 0134 2368     		ldr	r3, [r4]
 2203 0136 1B68     		ldr	r3, [r3]
 2204 0138 2046     		mov	r0, r4
 2205 013a 9847     		blx	r3
 2206              	.LVL201:
 2207              	.L180:
 285:Middlewares/Third_Party/LibJPEG/source/jcmaster.c **** 				   compptr->h_samp_factor);
 2208              		.loc 1 285 0
 2209 013c AB68     		ldr	r3, [r5, #8]
 2210 013e D4F80C21 		ldr	r2, [r4, #268]
 2211 0142 9342     		cmp	r3, r2
 2212 0144 B8BF     		it	lt
 2213 0146 1346     		movlt	r3, r2
 2214 0148 C4F80C31 		str	r3, [r4, #268]
 287:Middlewares/Third_Party/LibJPEG/source/jcmaster.c **** 				   compptr->v_samp_factor);
 2215              		.loc 1 287 0
 2216 014c EB68     		ldr	r3, [r5, #12]
 2217 014e D4F81021 		ldr	r2, [r4, #272]
 2218 0152 9342     		cmp	r3, r2
 2219 0154 B8BF     		it	lt
 2220 0156 1346     		movlt	r3, r2
 2221 0158 C4F81031 		str	r3, [r4, #272]
 281:Middlewares/Third_Party/LibJPEG/source/jcmaster.c ****     if (compptr->h_samp_factor<=0 || compptr->h_samp_factor>MAX_SAMP_FACTOR ||
 2222              		.loc 1 281 0
 2223 015c 0136     		adds	r6, r6, #1
 2224              	.LVL202:
 2225 015e 5835     		adds	r5, r5, #88
 2226              	.LVL203:
 2227              	.L178:
 280:Middlewares/Third_Party/LibJPEG/source/jcmaster.c ****        ci++, compptr++) {
 2228              		.loc 1 280 0 discriminator 1
 2229 0160 E36C     		ldr	r3, [r4, #76]
 2230 0162 B342     		cmp	r3, r6
 2231 0164 09DD     		ble	.L200
 282:Middlewares/Third_Party/LibJPEG/source/jcmaster.c **** 	compptr->v_samp_factor<=0 || compptr->v_samp_factor>MAX_SAMP_FACTOR)
 2232              		.loc 1 282 0
 2233 0166 AB68     		ldr	r3, [r5, #8]
 2234 0168 013B     		subs	r3, r3, #1
 2235 016a 032B     		cmp	r3, #3
 2236 016c DFD8     		bhi	.L179
 283:Middlewares/Third_Party/LibJPEG/source/jcmaster.c ****       ERREXIT(cinfo, JERR_BAD_SAMPLING);
 2237              		.loc 1 283 0 discriminator 1
 2238 016e EB68     		ldr	r3, [r5, #12]
 282:Middlewares/Third_Party/LibJPEG/source/jcmaster.c **** 	compptr->v_samp_factor<=0 || compptr->v_samp_factor>MAX_SAMP_FACTOR)
 2239              		.loc 1 282 0 discriminator 1
 2240 0170 002B     		cmp	r3, #0
 2241 0172 DCDD     		ble	.L179
 283:Middlewares/Third_Party/LibJPEG/source/jcmaster.c ****       ERREXIT(cinfo, JERR_BAD_SAMPLING);
 2242              		.loc 1 283 0
 2243 0174 042B     		cmp	r3, #4
 2244 0176 E1DD     		ble	.L180
 2245 0178 D9E7     		b	.L179
 2246              	.L200:
 2247              	.LVL204:
 292:Middlewares/Third_Party/LibJPEG/source/jcmaster.c ****        ci++, compptr++) {
 2248              		.loc 1 292 0
 2249 017a 656D     		ldr	r5, [r4, #84]
ARM GAS  /tmp/cckGKv0o.s 			page 60


 2250              	.LVL205:
 2251 017c 0026     		movs	r6, #0
 2252 017e 77E0     		b	.L182
 2253              	.LVL206:
 2254              	.L195:
 304:Middlewares/Third_Party/LibJPEG/source/jcmaster.c **** 	   (cinfo->max_h_samp_factor % (compptr->h_samp_factor * ssize * 2)) == 0) {
 2255              		.loc 1 304 0
 2256 0180 0423     		movs	r3, #4
 2257              	.L184:
 303:Middlewares/Third_Party/LibJPEG/source/jcmaster.c **** 	   (cinfo->do_fancy_downsampling ? DCTSIZE : DCTSIZE / 2) &&
 2258              		.loc 1 303 0
 2259 0182 9A42     		cmp	r2, r3
 2260 0184 15DC     		bgt	.L185
 305:Middlewares/Third_Party/LibJPEG/source/jcmaster.c ****       ssize = ssize * 2;
 2261              		.loc 1 305 0
 2262 0186 D4F80C71 		ldr	r7, [r4, #268]
 2263 018a AB68     		ldr	r3, [r5, #8]
 2264 018c 01FB03F3 		mul	r3, r1, r3
 2265 0190 5B00     		lsls	r3, r3, #1
 2266 0192 97FBF3F0 		sdiv	r0, r7, r3
 2267 0196 03FB1073 		mls	r3, r3, r0, r7
 304:Middlewares/Third_Party/LibJPEG/source/jcmaster.c **** 	   (cinfo->max_h_samp_factor % (compptr->h_samp_factor * ssize * 2)) == 0) {
 2268              		.loc 1 304 0
 2269 019a 53B9     		cbnz	r3, .L185
 306:Middlewares/Third_Party/LibJPEG/source/jcmaster.c ****     }
 2270              		.loc 1 306 0
 2271 019c 4900     		lsls	r1, r1, #1
 2272              	.LVL207:
 2273              	.L183:
 303:Middlewares/Third_Party/LibJPEG/source/jcmaster.c **** 	   (cinfo->do_fancy_downsampling ? DCTSIZE : DCTSIZE / 2) &&
 2274              		.loc 1 303 0
 2275 019e D4F81421 		ldr	r2, [r4, #276]
 2276 01a2 01FB02F2 		mul	r2, r1, r2
 304:Middlewares/Third_Party/LibJPEG/source/jcmaster.c **** 	   (cinfo->max_h_samp_factor % (compptr->h_samp_factor * ssize * 2)) == 0) {
 2277              		.loc 1 304 0
 2278 01a6 D4F8E030 		ldr	r3, [r4, #224]
 2279 01aa 002B     		cmp	r3, #0
 2280 01ac E8D0     		beq	.L195
 2281 01ae 0823     		movs	r3, #8
 2282 01b0 E7E7     		b	.L184
 2283              	.L185:
 309:Middlewares/Third_Party/LibJPEG/source/jcmaster.c ****     ssize = 1;
 2284              		.loc 1 309 0
 2285 01b2 6A62     		str	r2, [r5, #36]
 2286              	.LVL208:
 310:Middlewares/Third_Party/LibJPEG/source/jcmaster.c **** #ifdef DCT_SCALING_SUPPORTED
 2287              		.loc 1 310 0
 2288 01b4 0120     		movs	r0, #1
 312:Middlewares/Third_Party/LibJPEG/source/jcmaster.c **** 	   (cinfo->do_fancy_downsampling ? DCTSIZE : DCTSIZE / 2) &&
 2289              		.loc 1 312 0
 2290 01b6 0EE0     		b	.L187
 2291              	.LVL209:
 2292              	.L196:
 313:Middlewares/Third_Party/LibJPEG/source/jcmaster.c **** 	   (cinfo->max_v_samp_factor % (compptr->v_samp_factor * ssize * 2)) == 0) {
 2293              		.loc 1 313 0
 2294 01b8 0423     		movs	r3, #4
 2295              	.L188:
ARM GAS  /tmp/cckGKv0o.s 			page 61


 312:Middlewares/Third_Party/LibJPEG/source/jcmaster.c **** 	   (cinfo->do_fancy_downsampling ? DCTSIZE : DCTSIZE / 2) &&
 2296              		.loc 1 312 0
 2297 01ba 9942     		cmp	r1, r3
 2298 01bc 15DC     		bgt	.L189
 314:Middlewares/Third_Party/LibJPEG/source/jcmaster.c ****       ssize = ssize * 2;
 2299              		.loc 1 314 0
 2300 01be D4F810C1 		ldr	ip, [r4, #272]
 2301 01c2 EB68     		ldr	r3, [r5, #12]
 2302 01c4 00FB03F3 		mul	r3, r0, r3
 2303 01c8 5B00     		lsls	r3, r3, #1
 2304 01ca 9CFBF3F7 		sdiv	r7, ip, r3
 2305 01ce 03FB17C3 		mls	r3, r3, r7, ip
 313:Middlewares/Third_Party/LibJPEG/source/jcmaster.c **** 	   (cinfo->max_v_samp_factor % (compptr->v_samp_factor * ssize * 2)) == 0) {
 2306              		.loc 1 313 0
 2307 01d2 53B9     		cbnz	r3, .L189
 315:Middlewares/Third_Party/LibJPEG/source/jcmaster.c ****     }
 2308              		.loc 1 315 0
 2309 01d4 4000     		lsls	r0, r0, #1
 2310              	.LVL210:
 2311              	.L187:
 312:Middlewares/Third_Party/LibJPEG/source/jcmaster.c **** 	   (cinfo->do_fancy_downsampling ? DCTSIZE : DCTSIZE / 2) &&
 2312              		.loc 1 312 0
 2313 01d6 D4F81811 		ldr	r1, [r4, #280]
 2314 01da 00FB01F1 		mul	r1, r0, r1
 313:Middlewares/Third_Party/LibJPEG/source/jcmaster.c **** 	   (cinfo->max_v_samp_factor % (compptr->v_samp_factor * ssize * 2)) == 0) {
 2315              		.loc 1 313 0
 2316 01de D4F8E030 		ldr	r3, [r4, #224]
 2317 01e2 002B     		cmp	r3, #0
 2318 01e4 E8D0     		beq	.L196
 2319 01e6 0823     		movs	r3, #8
 2320 01e8 E7E7     		b	.L188
 2321              	.L189:
 318:Middlewares/Third_Party/LibJPEG/source/jcmaster.c **** 
 2322              		.loc 1 318 0
 2323 01ea A962     		str	r1, [r5, #40]
 321:Middlewares/Third_Party/LibJPEG/source/jcmaster.c **** 	compptr->DCT_h_scaled_size = compptr->DCT_v_scaled_size * 2;
 2324              		.loc 1 321 0
 2325 01ec 4B00     		lsls	r3, r1, #1
 2326 01ee 9A42     		cmp	r2, r3
 2327 01f0 44DD     		ble	.L191
 322:Middlewares/Third_Party/LibJPEG/source/jcmaster.c ****     else if (compptr->DCT_v_scaled_size > compptr->DCT_h_scaled_size * 2)
 2328              		.loc 1 322 0
 2329 01f2 6B62     		str	r3, [r5, #36]
 2330              	.L192:
 328:Middlewares/Third_Party/LibJPEG/source/jcmaster.c **** 		    (long) (cinfo->max_h_samp_factor * cinfo->block_size));
 2331              		.loc 1 328 0
 2332 01f4 236C     		ldr	r3, [r4, #64]
 2333 01f6 A868     		ldr	r0, [r5, #8]
 2334              	.LVL211:
 329:Middlewares/Third_Party/LibJPEG/source/jcmaster.c ****     compptr->height_in_blocks = (JDIMENSION)
 2335              		.loc 1 329 0
 2336 01f8 D4F80C21 		ldr	r2, [r4, #268]
 2337 01fc D4F87811 		ldr	r1, [r4, #376]
 328:Middlewares/Third_Party/LibJPEG/source/jcmaster.c **** 		    (long) (cinfo->max_h_samp_factor * cinfo->block_size));
 2338              		.loc 1 328 0
 2339 0200 01FB02F1 		mul	r1, r1, r2
 2340 0204 00FB03F0 		mul	r0, r0, r3
ARM GAS  /tmp/cckGKv0o.s 			page 62


 2341 0208 FFF7FEFF 		bl	jdiv_round_up
 2342              	.LVL212:
 327:Middlewares/Third_Party/LibJPEG/source/jcmaster.c ****       jdiv_round_up((long) cinfo->jpeg_width * (long) compptr->h_samp_factor,
 2343              		.loc 1 327 0
 2344 020c E861     		str	r0, [r5, #28]
 331:Middlewares/Third_Party/LibJPEG/source/jcmaster.c **** 		    (long) (cinfo->max_v_samp_factor * cinfo->block_size));
 2345              		.loc 1 331 0
 2346 020e 636C     		ldr	r3, [r4, #68]
 2347 0210 E868     		ldr	r0, [r5, #12]
 332:Middlewares/Third_Party/LibJPEG/source/jcmaster.c ****     /* Size in samples */
 2348              		.loc 1 332 0
 2349 0212 D4F81021 		ldr	r2, [r4, #272]
 2350 0216 D4F87811 		ldr	r1, [r4, #376]
 331:Middlewares/Third_Party/LibJPEG/source/jcmaster.c **** 		    (long) (cinfo->max_v_samp_factor * cinfo->block_size));
 2351              		.loc 1 331 0
 2352 021a 01FB02F1 		mul	r1, r1, r2
 2353 021e 00FB03F0 		mul	r0, r0, r3
 2354 0222 FFF7FEFF 		bl	jdiv_round_up
 2355              	.LVL213:
 330:Middlewares/Third_Party/LibJPEG/source/jcmaster.c ****       jdiv_round_up((long) cinfo->jpeg_height * (long) compptr->v_samp_factor,
 2356              		.loc 1 330 0
 2357 0226 2862     		str	r0, [r5, #32]
 335:Middlewares/Third_Party/LibJPEG/source/jcmaster.c **** 		    (long) (compptr->h_samp_factor * compptr->DCT_h_scaled_size),
 2358              		.loc 1 335 0
 2359 0228 206C     		ldr	r0, [r4, #64]
 336:Middlewares/Third_Party/LibJPEG/source/jcmaster.c **** 		    (long) (cinfo->max_h_samp_factor * cinfo->block_size));
 2360              		.loc 1 336 0
 2361 022a AA68     		ldr	r2, [r5, #8]
 2362 022c 6B6A     		ldr	r3, [r5, #36]
 2363 022e 03FB02F3 		mul	r3, r3, r2
 337:Middlewares/Third_Party/LibJPEG/source/jcmaster.c ****     compptr->downsampled_height = (JDIMENSION)
 2364              		.loc 1 337 0
 2365 0232 D4F80C21 		ldr	r2, [r4, #268]
 2366 0236 D4F87811 		ldr	r1, [r4, #376]
 335:Middlewares/Third_Party/LibJPEG/source/jcmaster.c **** 		    (long) (compptr->h_samp_factor * compptr->DCT_h_scaled_size),
 2367              		.loc 1 335 0
 2368 023a 01FB02F1 		mul	r1, r1, r2
 2369 023e 03FB00F0 		mul	r0, r3, r0
 2370 0242 FFF7FEFF 		bl	jdiv_round_up
 2371              	.LVL214:
 334:Middlewares/Third_Party/LibJPEG/source/jcmaster.c ****       jdiv_round_up((long) cinfo->jpeg_width *
 2372              		.loc 1 334 0
 2373 0246 E862     		str	r0, [r5, #44]
 339:Middlewares/Third_Party/LibJPEG/source/jcmaster.c **** 		    (long) (compptr->v_samp_factor * compptr->DCT_v_scaled_size),
 2374              		.loc 1 339 0
 2375 0248 606C     		ldr	r0, [r4, #68]
 340:Middlewares/Third_Party/LibJPEG/source/jcmaster.c **** 		    (long) (cinfo->max_v_samp_factor * cinfo->block_size));
 2376              		.loc 1 340 0
 2377 024a EA68     		ldr	r2, [r5, #12]
 2378 024c AB6A     		ldr	r3, [r5, #40]
 2379 024e 03FB02F3 		mul	r3, r3, r2
 341:Middlewares/Third_Party/LibJPEG/source/jcmaster.c ****     /* Mark component needed (this flag isn't actually used for compression) */
 2380              		.loc 1 341 0
 2381 0252 D4F81021 		ldr	r2, [r4, #272]
 2382 0256 D4F87811 		ldr	r1, [r4, #376]
 339:Middlewares/Third_Party/LibJPEG/source/jcmaster.c **** 		    (long) (compptr->v_samp_factor * compptr->DCT_v_scaled_size),
 2383              		.loc 1 339 0
ARM GAS  /tmp/cckGKv0o.s 			page 63


 2384 025a 01FB02F1 		mul	r1, r1, r2
 2385 025e 03FB00F0 		mul	r0, r3, r0
 2386 0262 FFF7FEFF 		bl	jdiv_round_up
 2387              	.LVL215:
 338:Middlewares/Third_Party/LibJPEG/source/jcmaster.c ****       jdiv_round_up((long) cinfo->jpeg_height *
 2388              		.loc 1 338 0
 2389 0266 2863     		str	r0, [r5, #48]
 343:Middlewares/Third_Party/LibJPEG/source/jcmaster.c ****   }
 2390              		.loc 1 343 0
 2391 0268 0123     		movs	r3, #1
 2392 026a 6B63     		str	r3, [r5, #52]
 293:Middlewares/Third_Party/LibJPEG/source/jcmaster.c ****     /* Fill in the correct component_index value; don't rely on application */
 2393              		.loc 1 293 0
 2394 026c 1E44     		add	r6, r6, r3
 2395              	.LVL216:
 2396 026e 5835     		adds	r5, r5, #88
 2397              	.LVL217:
 2398              	.L182:
 292:Middlewares/Third_Party/LibJPEG/source/jcmaster.c ****        ci++, compptr++) {
 2399              		.loc 1 292 0 discriminator 1
 2400 0270 E36C     		ldr	r3, [r4, #76]
 2401 0272 B342     		cmp	r3, r6
 2402 0274 07DD     		ble	.L201
 295:Middlewares/Third_Party/LibJPEG/source/jcmaster.c ****     /* In selecting the actual DCT scaling for each component, we try to
 2403              		.loc 1 295 0
 2404 0276 6E60     		str	r6, [r5, #4]
 2405              	.LVL218:
 301:Middlewares/Third_Party/LibJPEG/source/jcmaster.c **** #ifdef DCT_SCALING_SUPPORTED
 2406              		.loc 1 301 0
 2407 0278 0121     		movs	r1, #1
 303:Middlewares/Third_Party/LibJPEG/source/jcmaster.c **** 	   (cinfo->do_fancy_downsampling ? DCTSIZE : DCTSIZE / 2) &&
 2408              		.loc 1 303 0
 2409 027a 90E7     		b	.L183
 2410              	.LVL219:
 2411              	.L191:
 323:Middlewares/Third_Party/LibJPEG/source/jcmaster.c **** 	compptr->DCT_v_scaled_size = compptr->DCT_h_scaled_size * 2;
 2412              		.loc 1 323 0
 2413 027c 5200     		lsls	r2, r2, #1
 2414 027e 9142     		cmp	r1, r2
 2415 0280 B8DD     		ble	.L192
 324:Middlewares/Third_Party/LibJPEG/source/jcmaster.c **** 
 2416              		.loc 1 324 0
 2417 0282 AA62     		str	r2, [r5, #40]
 2418 0284 B6E7     		b	.L192
 2419              	.LVL220:
 2420              	.L201:
 351:Middlewares/Third_Party/LibJPEG/source/jcmaster.c **** }
 2421              		.loc 1 351 0
 2422 0286 D4F81031 		ldr	r3, [r4, #272]
 2423 028a D4F87811 		ldr	r1, [r4, #376]
 350:Middlewares/Third_Party/LibJPEG/source/jcmaster.c **** 		  (long) (cinfo->max_v_samp_factor * cinfo->block_size));
 2424              		.loc 1 350 0
 2425 028e 01FB03F1 		mul	r1, r1, r3
 2426 0292 606C     		ldr	r0, [r4, #68]
 2427 0294 FFF7FEFF 		bl	jdiv_round_up
 2428              	.LVL221:
 349:Middlewares/Third_Party/LibJPEG/source/jcmaster.c ****     jdiv_round_up((long) cinfo->jpeg_height,
ARM GAS  /tmp/cckGKv0o.s 			page 64


 2429              		.loc 1 349 0
 2430 0298 C4F81C01 		str	r0, [r4, #284]
 352:Middlewares/Third_Party/LibJPEG/source/jcmaster.c **** 
 2431              		.loc 1 352 0
 2432 029c F8BD     		pop	{r3, r4, r5, r6, r7, pc}
 2433              	.LVL222:
 2434              	.L203:
 2435 029e 00BF     		.align	2
 2436              	.L202:
 2437 02a0 00000000 		.word	jpeg_natural_order2
 2438 02a4 00000000 		.word	jpeg_natural_order3
 2439 02a8 00000000 		.word	jpeg_natural_order4
 2440 02ac 00000000 		.word	jpeg_natural_order5
 2441 02b0 00000000 		.word	jpeg_natural_order6
 2442 02b4 00000000 		.word	jpeg_natural_order7
 2443 02b8 00000000 		.word	jpeg_natural_order
 2444              		.cfi_endproc
 2445              	.LFE5:
 2447              		.section	.text.jinit_c_master_control,"ax",%progbits
 2448              		.align	1
 2449              		.global	jinit_c_master_control
 2450              		.syntax unified
 2451              		.thumb
 2452              		.thumb_func
 2453              		.fpu fpv5-sp-d16
 2455              	jinit_c_master_control:
 2456              	.LFB13:
 800:Middlewares/Third_Party/LibJPEG/source/jcmaster.c **** 
 801:Middlewares/Third_Party/LibJPEG/source/jcmaster.c **** 
 802:Middlewares/Third_Party/LibJPEG/source/jcmaster.c **** /*
 803:Middlewares/Third_Party/LibJPEG/source/jcmaster.c ****  * Initialize master compression control.
 804:Middlewares/Third_Party/LibJPEG/source/jcmaster.c ****  */
 805:Middlewares/Third_Party/LibJPEG/source/jcmaster.c **** 
 806:Middlewares/Third_Party/LibJPEG/source/jcmaster.c **** GLOBAL(void)
 807:Middlewares/Third_Party/LibJPEG/source/jcmaster.c **** jinit_c_master_control (j_compress_ptr cinfo, boolean transcode_only)
 808:Middlewares/Third_Party/LibJPEG/source/jcmaster.c **** {
 2457              		.loc 1 808 0
 2458              		.cfi_startproc
 2459              		@ args = 0, pretend = 0, frame = 0
 2460              		@ frame_needed = 0, uses_anonymous_args = 0
 2461              	.LVL223:
 2462 0000 70B5     		push	{r4, r5, r6, lr}
 2463              	.LCFI12:
 2464              		.cfi_def_cfa_offset 16
 2465              		.cfi_offset 4, -16
 2466              		.cfi_offset 5, -12
 2467              		.cfi_offset 6, -8
 2468              		.cfi_offset 14, -4
 2469 0002 0446     		mov	r4, r0
 2470 0004 0E46     		mov	r6, r1
 809:Middlewares/Third_Party/LibJPEG/source/jcmaster.c ****   my_master_ptr master;
 810:Middlewares/Third_Party/LibJPEG/source/jcmaster.c **** 
 811:Middlewares/Third_Party/LibJPEG/source/jcmaster.c ****   master = (my_master_ptr)
 812:Middlewares/Third_Party/LibJPEG/source/jcmaster.c ****       (*cinfo->mem->alloc_small) ((j_common_ptr) cinfo, JPOOL_IMAGE,
 2471              		.loc 1 812 0
 2472 0006 4368     		ldr	r3, [r0, #4]
 2473 0008 1B68     		ldr	r3, [r3]
ARM GAS  /tmp/cckGKv0o.s 			page 65


 811:Middlewares/Third_Party/LibJPEG/source/jcmaster.c ****       (*cinfo->mem->alloc_small) ((j_common_ptr) cinfo, JPOOL_IMAGE,
 2474              		.loc 1 811 0
 2475 000a 2422     		movs	r2, #36
 2476 000c 0121     		movs	r1, #1
 2477              	.LVL224:
 2478 000e 9847     		blx	r3
 2479              	.LVL225:
 2480 0010 0546     		mov	r5, r0
 2481              	.LVL226:
 813:Middlewares/Third_Party/LibJPEG/source/jcmaster.c **** 				  SIZEOF(my_comp_master));
 814:Middlewares/Third_Party/LibJPEG/source/jcmaster.c ****   cinfo->master = (struct jpeg_comp_master *) master;
 2482              		.loc 1 814 0
 2483 0012 C4F88401 		str	r0, [r4, #388]
 815:Middlewares/Third_Party/LibJPEG/source/jcmaster.c ****   master->pub.prepare_for_pass = prepare_for_pass;
 2484              		.loc 1 815 0
 2485 0016 244B     		ldr	r3, .L216
 2486 0018 0360     		str	r3, [r0]
 816:Middlewares/Third_Party/LibJPEG/source/jcmaster.c ****   master->pub.pass_startup = pass_startup;
 2487              		.loc 1 816 0
 2488 001a 244B     		ldr	r3, .L216+4
 2489 001c 4360     		str	r3, [r0, #4]
 817:Middlewares/Third_Party/LibJPEG/source/jcmaster.c ****   master->pub.finish_pass = finish_pass_master;
 2490              		.loc 1 817 0
 2491 001e 244B     		ldr	r3, .L216+8
 2492 0020 8360     		str	r3, [r0, #8]
 818:Middlewares/Third_Party/LibJPEG/source/jcmaster.c ****   master->pub.is_last_pass = FALSE;
 2493              		.loc 1 818 0
 2494 0022 0023     		movs	r3, #0
 2495 0024 0361     		str	r3, [r0, #16]
 819:Middlewares/Third_Party/LibJPEG/source/jcmaster.c **** 
 820:Middlewares/Third_Party/LibJPEG/source/jcmaster.c ****   /* Validate parameters, determine derived values */
 821:Middlewares/Third_Party/LibJPEG/source/jcmaster.c ****   initial_setup(cinfo, transcode_only);
 2496              		.loc 1 821 0
 2497 0026 3146     		mov	r1, r6
 2498 0028 2046     		mov	r0, r4
 2499              	.LVL227:
 2500 002a FFF7FEFF 		bl	initial_setup
 2501              	.LVL228:
 822:Middlewares/Third_Party/LibJPEG/source/jcmaster.c **** 
 823:Middlewares/Third_Party/LibJPEG/source/jcmaster.c ****   if (cinfo->scan_info != NULL) {
 2502              		.loc 1 823 0
 2503 002e D4F8CC30 		ldr	r3, [r4, #204]
 2504 0032 53B1     		cbz	r3, .L205
 824:Middlewares/Third_Party/LibJPEG/source/jcmaster.c **** #ifdef C_MULTISCAN_FILES_SUPPORTED
 825:Middlewares/Third_Party/LibJPEG/source/jcmaster.c ****     validate_script(cinfo);
 2505              		.loc 1 825 0
 2506 0034 2046     		mov	r0, r4
 2507 0036 FFF7FEFF 		bl	validate_script
 2508              	.LVL229:
 826:Middlewares/Third_Party/LibJPEG/source/jcmaster.c ****     if (cinfo->block_size < DCTSIZE)
 2509              		.loc 1 826 0
 2510 003a D4F87831 		ldr	r3, [r4, #376]
 2511 003e 072B     		cmp	r3, #7
 2512 0040 09DC     		bgt	.L206
 827:Middlewares/Third_Party/LibJPEG/source/jcmaster.c ****       reduce_script(cinfo);
 2513              		.loc 1 827 0
 2514 0042 2046     		mov	r0, r4
ARM GAS  /tmp/cckGKv0o.s 			page 66


 2515 0044 FFF7FEFF 		bl	reduce_script
 2516              	.LVL230:
 2517 0048 05E0     		b	.L206
 2518              	.L205:
 828:Middlewares/Third_Party/LibJPEG/source/jcmaster.c **** #else
 829:Middlewares/Third_Party/LibJPEG/source/jcmaster.c ****     ERREXIT(cinfo, JERR_NOT_COMPILED);
 830:Middlewares/Third_Party/LibJPEG/source/jcmaster.c **** #endif
 831:Middlewares/Third_Party/LibJPEG/source/jcmaster.c ****   } else {
 832:Middlewares/Third_Party/LibJPEG/source/jcmaster.c ****     cinfo->progressive_mode = FALSE;
 2519              		.loc 1 832 0
 2520 004a 0023     		movs	r3, #0
 2521 004c C4F80831 		str	r3, [r4, #264]
 833:Middlewares/Third_Party/LibJPEG/source/jcmaster.c ****     cinfo->num_scans = 1;
 2522              		.loc 1 833 0
 2523 0050 0123     		movs	r3, #1
 2524 0052 C4F8C830 		str	r3, [r4, #200]
 2525              	.L206:
 834:Middlewares/Third_Party/LibJPEG/source/jcmaster.c ****   }
 835:Middlewares/Third_Party/LibJPEG/source/jcmaster.c **** 
 836:Middlewares/Third_Party/LibJPEG/source/jcmaster.c ****   if ((cinfo->progressive_mode || cinfo->block_size < DCTSIZE) &&
 2526              		.loc 1 836 0
 2527 0056 D4F80831 		ldr	r3, [r4, #264]
 2528 005a 1BB9     		cbnz	r3, .L207
 2529              		.loc 1 836 0 is_stmt 0 discriminator 2
 2530 005c D4F87831 		ldr	r3, [r4, #376]
 2531 0060 072B     		cmp	r3, #7
 2532 0062 05DC     		bgt	.L208
 2533              	.L207:
 837:Middlewares/Third_Party/LibJPEG/source/jcmaster.c ****       !cinfo->arith_code)			/*  TEMPORARY HACK ??? */
 2534              		.loc 1 837 0 is_stmt 1 discriminator 3
 2535 0064 D4F8D430 		ldr	r3, [r4, #212]
 836:Middlewares/Third_Party/LibJPEG/source/jcmaster.c ****       !cinfo->arith_code)			/*  TEMPORARY HACK ??? */
 2536              		.loc 1 836 0 discriminator 3
 2537 0068 13B9     		cbnz	r3, .L208
 838:Middlewares/Third_Party/LibJPEG/source/jcmaster.c ****     /* assume default tables no good for progressive or downscale mode */
 839:Middlewares/Third_Party/LibJPEG/source/jcmaster.c ****     cinfo->optimize_coding = TRUE;
 2538              		.loc 1 839 0
 2539 006a 0123     		movs	r3, #1
 2540 006c C4F8D830 		str	r3, [r4, #216]
 2541              	.L208:
 840:Middlewares/Third_Party/LibJPEG/source/jcmaster.c **** 
 841:Middlewares/Third_Party/LibJPEG/source/jcmaster.c ****   /* Initialize my private state */
 842:Middlewares/Third_Party/LibJPEG/source/jcmaster.c ****   if (transcode_only) {
 2542              		.loc 1 842 0
 2543 0070 46B1     		cbz	r6, .L209
 843:Middlewares/Third_Party/LibJPEG/source/jcmaster.c ****     /* no main pass in transcoding */
 844:Middlewares/Third_Party/LibJPEG/source/jcmaster.c ****     if (cinfo->optimize_coding)
 2544              		.loc 1 844 0
 2545 0072 D4F8D830 		ldr	r3, [r4, #216]
 2546 0076 13B1     		cbz	r3, .L210
 845:Middlewares/Third_Party/LibJPEG/source/jcmaster.c ****       master->pass_type = huff_opt_pass;
 2547              		.loc 1 845 0
 2548 0078 0123     		movs	r3, #1
 2549 007a 2B75     		strb	r3, [r5, #20]
 2550 007c 04E0     		b	.L211
 2551              	.L210:
 846:Middlewares/Third_Party/LibJPEG/source/jcmaster.c ****     else
ARM GAS  /tmp/cckGKv0o.s 			page 67


 847:Middlewares/Third_Party/LibJPEG/source/jcmaster.c ****       master->pass_type = output_pass;
 2552              		.loc 1 847 0
 2553 007e 0223     		movs	r3, #2
 2554 0080 2B75     		strb	r3, [r5, #20]
 2555 0082 01E0     		b	.L211
 2556              	.L209:
 848:Middlewares/Third_Party/LibJPEG/source/jcmaster.c ****   } else {
 849:Middlewares/Third_Party/LibJPEG/source/jcmaster.c ****     /* for normal compression, first pass is always this type: */
 850:Middlewares/Third_Party/LibJPEG/source/jcmaster.c ****     master->pass_type = main_pass;
 2557              		.loc 1 850 0
 2558 0084 0023     		movs	r3, #0
 2559 0086 2B75     		strb	r3, [r5, #20]
 2560              	.L211:
 851:Middlewares/Third_Party/LibJPEG/source/jcmaster.c ****   }
 852:Middlewares/Third_Party/LibJPEG/source/jcmaster.c ****   master->scan_number = 0;
 2561              		.loc 1 852 0
 2562 0088 0023     		movs	r3, #0
 2563 008a 2B62     		str	r3, [r5, #32]
 853:Middlewares/Third_Party/LibJPEG/source/jcmaster.c ****   master->pass_number = 0;
 2564              		.loc 1 853 0
 2565 008c AB61     		str	r3, [r5, #24]
 854:Middlewares/Third_Party/LibJPEG/source/jcmaster.c ****   if (cinfo->optimize_coding)
 2566              		.loc 1 854 0
 2567 008e D4F8D830 		ldr	r3, [r4, #216]
 2568 0092 1BB9     		cbnz	r3, .L215
 855:Middlewares/Third_Party/LibJPEG/source/jcmaster.c ****     master->total_passes = cinfo->num_scans * 2;
 856:Middlewares/Third_Party/LibJPEG/source/jcmaster.c ****   else
 857:Middlewares/Third_Party/LibJPEG/source/jcmaster.c ****     master->total_passes = cinfo->num_scans;
 2569              		.loc 1 857 0
 2570 0094 D4F8C830 		ldr	r3, [r4, #200]
 2571 0098 EB61     		str	r3, [r5, #28]
 2572              	.L204:
 858:Middlewares/Third_Party/LibJPEG/source/jcmaster.c **** }
 2573              		.loc 1 858 0
 2574 009a 70BD     		pop	{r4, r5, r6, pc}
 2575              	.LVL231:
 2576              	.L215:
 855:Middlewares/Third_Party/LibJPEG/source/jcmaster.c ****     master->total_passes = cinfo->num_scans * 2;
 2577              		.loc 1 855 0
 2578 009c D4F8C830 		ldr	r3, [r4, #200]
 2579 00a0 5B00     		lsls	r3, r3, #1
 2580 00a2 EB61     		str	r3, [r5, #28]
 2581 00a4 F9E7     		b	.L204
 2582              	.L217:
 2583 00a6 00BF     		.align	2
 2584              	.L216:
 2585 00a8 00000000 		.word	prepare_for_pass
 2586 00ac 00000000 		.word	pass_startup
 2587 00b0 00000000 		.word	finish_pass_master
 2588              		.cfi_endproc
 2589              	.LFE13:
 2591              		.text
 2592              	.Letext0:
 2593              		.file 2 "/home/jaxc/opt/gcc-arm-none-eabi-7-2018-q2-update/lib/gcc/arm-none-eabi/7.3.1/include/std
 2594              		.file 3 "/home/jaxc/opt/gcc-arm-none-eabi-7-2018-q2-update/arm-none-eabi/include/sys/lock.h"
 2595              		.file 4 "/home/jaxc/opt/gcc-arm-none-eabi-7-2018-q2-update/arm-none-eabi/include/sys/_types.h"
 2596              		.file 5 "/home/jaxc/opt/gcc-arm-none-eabi-7-2018-q2-update/arm-none-eabi/include/sys/reent.h"
ARM GAS  /tmp/cckGKv0o.s 			page 68


 2597              		.file 6 "/home/jaxc/opt/gcc-arm-none-eabi-7-2018-q2-update/arm-none-eabi/include/stdlib.h"
 2598              		.file 7 "Inc/jmorecfg.h"
 2599              		.file 8 "Middlewares/Third_Party/LibJPEG/include/jpeglib.h"
 2600              		.file 9 "Middlewares/Third_Party/LibJPEG/include/jpegint.h"
 2601              		.file 10 "Middlewares/Third_Party/LibJPEG/include/jerror.h"
ARM GAS  /tmp/cckGKv0o.s 			page 69

