ARM GAS  /tmp/ccCB0eLe.s 			page 1


   1              		.cpu cortex-m7
   2              		.eabi_attribute 27, 1
   3              		.eabi_attribute 28, 1
   4              		.eabi_attribute 20, 1
   5              		.eabi_attribute 21, 1
   6              		.eabi_attribute 23, 3
   7              		.eabi_attribute 24, 1
   8              		.eabi_attribute 25, 1
   9              		.eabi_attribute 26, 1
  10              		.eabi_attribute 30, 1
  11              		.eabi_attribute 34, 1
  12              		.eabi_attribute 18, 4
  13              		.file	"jcparam.c"
  14              		.text
  15              	.Ltext0:
  16              		.cfi_sections	.debug_frame
  17              		.section	.text.fill_a_scan,"ax",%progbits
  18              		.align	1
  19              		.syntax unified
  20              		.thumb
  21              		.thumb_func
  22              		.fpu fpv5-sp-d16
  24              	fill_a_scan:
  25              	.LFB13:
  26              		.file 1 "Middlewares/Third_Party/LibJPEG/source/jcparam.c"
   1:Middlewares/Third_Party/LibJPEG/source/jcparam.c **** /*
   2:Middlewares/Third_Party/LibJPEG/source/jcparam.c ****  * jcparam.c
   3:Middlewares/Third_Party/LibJPEG/source/jcparam.c ****  *
   4:Middlewares/Third_Party/LibJPEG/source/jcparam.c ****  * Copyright (C) 1991-1998, Thomas G. Lane.
   5:Middlewares/Third_Party/LibJPEG/source/jcparam.c ****  * Modified 2003-2008 by Guido Vollbeding.
   6:Middlewares/Third_Party/LibJPEG/source/jcparam.c ****  * This file is part of the Independent JPEG Group's software.
   7:Middlewares/Third_Party/LibJPEG/source/jcparam.c ****  * For conditions of distribution and use, see the accompanying README file.
   8:Middlewares/Third_Party/LibJPEG/source/jcparam.c ****  *
   9:Middlewares/Third_Party/LibJPEG/source/jcparam.c ****  * This file contains optional default-setting code for the JPEG compressor.
  10:Middlewares/Third_Party/LibJPEG/source/jcparam.c ****  * Applications do not have to use this file, but those that don't use it
  11:Middlewares/Third_Party/LibJPEG/source/jcparam.c ****  * must know a lot more about the innards of the JPEG code.
  12:Middlewares/Third_Party/LibJPEG/source/jcparam.c ****  */
  13:Middlewares/Third_Party/LibJPEG/source/jcparam.c **** 
  14:Middlewares/Third_Party/LibJPEG/source/jcparam.c **** #define JPEG_INTERNALS
  15:Middlewares/Third_Party/LibJPEG/source/jcparam.c **** #include "jinclude.h"
  16:Middlewares/Third_Party/LibJPEG/source/jcparam.c **** #include "jpeglib.h"
  17:Middlewares/Third_Party/LibJPEG/source/jcparam.c **** 
  18:Middlewares/Third_Party/LibJPEG/source/jcparam.c **** 
  19:Middlewares/Third_Party/LibJPEG/source/jcparam.c **** /*
  20:Middlewares/Third_Party/LibJPEG/source/jcparam.c ****  * Quantization table setup routines
  21:Middlewares/Third_Party/LibJPEG/source/jcparam.c ****  */
  22:Middlewares/Third_Party/LibJPEG/source/jcparam.c **** 
  23:Middlewares/Third_Party/LibJPEG/source/jcparam.c **** GLOBAL(void)
  24:Middlewares/Third_Party/LibJPEG/source/jcparam.c **** jpeg_add_quant_table (j_compress_ptr cinfo, int which_tbl,
  25:Middlewares/Third_Party/LibJPEG/source/jcparam.c **** 		      const unsigned int *basic_table,
  26:Middlewares/Third_Party/LibJPEG/source/jcparam.c **** 		      int scale_factor, boolean force_baseline)
  27:Middlewares/Third_Party/LibJPEG/source/jcparam.c **** /* Define a quantization table equal to the basic_table times
  28:Middlewares/Third_Party/LibJPEG/source/jcparam.c ****  * a scale factor (given as a percentage).
  29:Middlewares/Third_Party/LibJPEG/source/jcparam.c ****  * If force_baseline is TRUE, the computed quantization table entries
  30:Middlewares/Third_Party/LibJPEG/source/jcparam.c ****  * are limited to 1..255 for JPEG baseline compatibility.
  31:Middlewares/Third_Party/LibJPEG/source/jcparam.c ****  */
  32:Middlewares/Third_Party/LibJPEG/source/jcparam.c **** {
ARM GAS  /tmp/ccCB0eLe.s 			page 2


  33:Middlewares/Third_Party/LibJPEG/source/jcparam.c ****   JQUANT_TBL ** qtblptr;
  34:Middlewares/Third_Party/LibJPEG/source/jcparam.c ****   int i;
  35:Middlewares/Third_Party/LibJPEG/source/jcparam.c ****   long temp;
  36:Middlewares/Third_Party/LibJPEG/source/jcparam.c **** 
  37:Middlewares/Third_Party/LibJPEG/source/jcparam.c ****   /* Safety check to ensure start_compress not called yet. */
  38:Middlewares/Third_Party/LibJPEG/source/jcparam.c ****   if (cinfo->global_state != CSTATE_START)
  39:Middlewares/Third_Party/LibJPEG/source/jcparam.c ****     ERREXIT1(cinfo, JERR_BAD_STATE, cinfo->global_state);
  40:Middlewares/Third_Party/LibJPEG/source/jcparam.c **** 
  41:Middlewares/Third_Party/LibJPEG/source/jcparam.c ****   if (which_tbl < 0 || which_tbl >= NUM_QUANT_TBLS)
  42:Middlewares/Third_Party/LibJPEG/source/jcparam.c ****     ERREXIT1(cinfo, JERR_DQT_INDEX, which_tbl);
  43:Middlewares/Third_Party/LibJPEG/source/jcparam.c **** 
  44:Middlewares/Third_Party/LibJPEG/source/jcparam.c ****   qtblptr = & cinfo->quant_tbl_ptrs[which_tbl];
  45:Middlewares/Third_Party/LibJPEG/source/jcparam.c **** 
  46:Middlewares/Third_Party/LibJPEG/source/jcparam.c ****   if (*qtblptr == NULL)
  47:Middlewares/Third_Party/LibJPEG/source/jcparam.c ****     *qtblptr = jpeg_alloc_quant_table((j_common_ptr) cinfo);
  48:Middlewares/Third_Party/LibJPEG/source/jcparam.c **** 
  49:Middlewares/Third_Party/LibJPEG/source/jcparam.c ****   for (i = 0; i < DCTSIZE2; i++) {
  50:Middlewares/Third_Party/LibJPEG/source/jcparam.c ****     temp = ((long) basic_table[i] * scale_factor + 50L) / 100L;
  51:Middlewares/Third_Party/LibJPEG/source/jcparam.c ****     /* limit the values to the valid range */
  52:Middlewares/Third_Party/LibJPEG/source/jcparam.c ****     if (temp <= 0L) temp = 1L;
  53:Middlewares/Third_Party/LibJPEG/source/jcparam.c ****     if (temp > 32767L) temp = 32767L; /* max quantizer needed for 12 bits */
  54:Middlewares/Third_Party/LibJPEG/source/jcparam.c ****     if (force_baseline && temp > 255L)
  55:Middlewares/Third_Party/LibJPEG/source/jcparam.c ****       temp = 255L;		/* limit to baseline range if requested */
  56:Middlewares/Third_Party/LibJPEG/source/jcparam.c ****     (*qtblptr)->quantval[i] = (UINT16) temp;
  57:Middlewares/Third_Party/LibJPEG/source/jcparam.c ****   }
  58:Middlewares/Third_Party/LibJPEG/source/jcparam.c **** 
  59:Middlewares/Third_Party/LibJPEG/source/jcparam.c ****   /* Initialize sent_table FALSE so table will be written to JPEG file. */
  60:Middlewares/Third_Party/LibJPEG/source/jcparam.c ****   (*qtblptr)->sent_table = FALSE;
  61:Middlewares/Third_Party/LibJPEG/source/jcparam.c **** }
  62:Middlewares/Third_Party/LibJPEG/source/jcparam.c **** 
  63:Middlewares/Third_Party/LibJPEG/source/jcparam.c **** 
  64:Middlewares/Third_Party/LibJPEG/source/jcparam.c **** /* These are the sample quantization tables given in JPEG spec section K.1.
  65:Middlewares/Third_Party/LibJPEG/source/jcparam.c ****  * The spec says that the values given produce "good" quality, and
  66:Middlewares/Third_Party/LibJPEG/source/jcparam.c ****  * when divided by 2, "very good" quality.
  67:Middlewares/Third_Party/LibJPEG/source/jcparam.c ****  */
  68:Middlewares/Third_Party/LibJPEG/source/jcparam.c **** static const unsigned int std_luminance_quant_tbl[DCTSIZE2] = {
  69:Middlewares/Third_Party/LibJPEG/source/jcparam.c ****   16,  11,  10,  16,  24,  40,  51,  61,
  70:Middlewares/Third_Party/LibJPEG/source/jcparam.c ****   12,  12,  14,  19,  26,  58,  60,  55,
  71:Middlewares/Third_Party/LibJPEG/source/jcparam.c ****   14,  13,  16,  24,  40,  57,  69,  56,
  72:Middlewares/Third_Party/LibJPEG/source/jcparam.c ****   14,  17,  22,  29,  51,  87,  80,  62,
  73:Middlewares/Third_Party/LibJPEG/source/jcparam.c ****   18,  22,  37,  56,  68, 109, 103,  77,
  74:Middlewares/Third_Party/LibJPEG/source/jcparam.c ****   24,  35,  55,  64,  81, 104, 113,  92,
  75:Middlewares/Third_Party/LibJPEG/source/jcparam.c ****   49,  64,  78,  87, 103, 121, 120, 101,
  76:Middlewares/Third_Party/LibJPEG/source/jcparam.c ****   72,  92,  95,  98, 112, 100, 103,  99
  77:Middlewares/Third_Party/LibJPEG/source/jcparam.c **** };
  78:Middlewares/Third_Party/LibJPEG/source/jcparam.c **** static const unsigned int std_chrominance_quant_tbl[DCTSIZE2] = {
  79:Middlewares/Third_Party/LibJPEG/source/jcparam.c ****   17,  18,  24,  47,  99,  99,  99,  99,
  80:Middlewares/Third_Party/LibJPEG/source/jcparam.c ****   18,  21,  26,  66,  99,  99,  99,  99,
  81:Middlewares/Third_Party/LibJPEG/source/jcparam.c ****   24,  26,  56,  99,  99,  99,  99,  99,
  82:Middlewares/Third_Party/LibJPEG/source/jcparam.c ****   47,  66,  99,  99,  99,  99,  99,  99,
  83:Middlewares/Third_Party/LibJPEG/source/jcparam.c ****   99,  99,  99,  99,  99,  99,  99,  99,
  84:Middlewares/Third_Party/LibJPEG/source/jcparam.c ****   99,  99,  99,  99,  99,  99,  99,  99,
  85:Middlewares/Third_Party/LibJPEG/source/jcparam.c ****   99,  99,  99,  99,  99,  99,  99,  99,
  86:Middlewares/Third_Party/LibJPEG/source/jcparam.c ****   99,  99,  99,  99,  99,  99,  99,  99
  87:Middlewares/Third_Party/LibJPEG/source/jcparam.c **** };
  88:Middlewares/Third_Party/LibJPEG/source/jcparam.c **** 
  89:Middlewares/Third_Party/LibJPEG/source/jcparam.c **** 
ARM GAS  /tmp/ccCB0eLe.s 			page 3


  90:Middlewares/Third_Party/LibJPEG/source/jcparam.c **** GLOBAL(void)
  91:Middlewares/Third_Party/LibJPEG/source/jcparam.c **** jpeg_default_qtables (j_compress_ptr cinfo, boolean force_baseline)
  92:Middlewares/Third_Party/LibJPEG/source/jcparam.c **** /* Set or change the 'quality' (quantization) setting, using default tables
  93:Middlewares/Third_Party/LibJPEG/source/jcparam.c ****  * and straight percentage-scaling quality scales.
  94:Middlewares/Third_Party/LibJPEG/source/jcparam.c ****  * This entry point allows different scalings for luminance and chrominance.
  95:Middlewares/Third_Party/LibJPEG/source/jcparam.c ****  */
  96:Middlewares/Third_Party/LibJPEG/source/jcparam.c **** {
  97:Middlewares/Third_Party/LibJPEG/source/jcparam.c ****   /* Set up two quantization tables using the specified scaling */
  98:Middlewares/Third_Party/LibJPEG/source/jcparam.c ****   jpeg_add_quant_table(cinfo, 0, std_luminance_quant_tbl,
  99:Middlewares/Third_Party/LibJPEG/source/jcparam.c **** 		       cinfo->q_scale_factor[0], force_baseline);
 100:Middlewares/Third_Party/LibJPEG/source/jcparam.c ****   jpeg_add_quant_table(cinfo, 1, std_chrominance_quant_tbl,
 101:Middlewares/Third_Party/LibJPEG/source/jcparam.c **** 		       cinfo->q_scale_factor[1], force_baseline);
 102:Middlewares/Third_Party/LibJPEG/source/jcparam.c **** }
 103:Middlewares/Third_Party/LibJPEG/source/jcparam.c **** 
 104:Middlewares/Third_Party/LibJPEG/source/jcparam.c **** 
 105:Middlewares/Third_Party/LibJPEG/source/jcparam.c **** GLOBAL(void)
 106:Middlewares/Third_Party/LibJPEG/source/jcparam.c **** jpeg_set_linear_quality (j_compress_ptr cinfo, int scale_factor,
 107:Middlewares/Third_Party/LibJPEG/source/jcparam.c **** 			 boolean force_baseline)
 108:Middlewares/Third_Party/LibJPEG/source/jcparam.c **** /* Set or change the 'quality' (quantization) setting, using default tables
 109:Middlewares/Third_Party/LibJPEG/source/jcparam.c ****  * and a straight percentage-scaling quality scale.  In most cases it's better
 110:Middlewares/Third_Party/LibJPEG/source/jcparam.c ****  * to use jpeg_set_quality (below); this entry point is provided for
 111:Middlewares/Third_Party/LibJPEG/source/jcparam.c ****  * applications that insist on a linear percentage scaling.
 112:Middlewares/Third_Party/LibJPEG/source/jcparam.c ****  */
 113:Middlewares/Third_Party/LibJPEG/source/jcparam.c **** {
 114:Middlewares/Third_Party/LibJPEG/source/jcparam.c ****   /* Set up two quantization tables using the specified scaling */
 115:Middlewares/Third_Party/LibJPEG/source/jcparam.c ****   jpeg_add_quant_table(cinfo, 0, std_luminance_quant_tbl,
 116:Middlewares/Third_Party/LibJPEG/source/jcparam.c **** 		       scale_factor, force_baseline);
 117:Middlewares/Third_Party/LibJPEG/source/jcparam.c ****   jpeg_add_quant_table(cinfo, 1, std_chrominance_quant_tbl,
 118:Middlewares/Third_Party/LibJPEG/source/jcparam.c **** 		       scale_factor, force_baseline);
 119:Middlewares/Third_Party/LibJPEG/source/jcparam.c **** }
 120:Middlewares/Third_Party/LibJPEG/source/jcparam.c **** 
 121:Middlewares/Third_Party/LibJPEG/source/jcparam.c **** 
 122:Middlewares/Third_Party/LibJPEG/source/jcparam.c **** GLOBAL(int)
 123:Middlewares/Third_Party/LibJPEG/source/jcparam.c **** jpeg_quality_scaling (int quality)
 124:Middlewares/Third_Party/LibJPEG/source/jcparam.c **** /* Convert a user-specified quality rating to a percentage scaling factor
 125:Middlewares/Third_Party/LibJPEG/source/jcparam.c ****  * for an underlying quantization table, using our recommended scaling curve.
 126:Middlewares/Third_Party/LibJPEG/source/jcparam.c ****  * The input 'quality' factor should be 0 (terrible) to 100 (very good).
 127:Middlewares/Third_Party/LibJPEG/source/jcparam.c ****  */
 128:Middlewares/Third_Party/LibJPEG/source/jcparam.c **** {
 129:Middlewares/Third_Party/LibJPEG/source/jcparam.c ****   /* Safety limit on quality factor.  Convert 0 to 1 to avoid zero divide. */
 130:Middlewares/Third_Party/LibJPEG/source/jcparam.c ****   if (quality <= 0) quality = 1;
 131:Middlewares/Third_Party/LibJPEG/source/jcparam.c ****   if (quality > 100) quality = 100;
 132:Middlewares/Third_Party/LibJPEG/source/jcparam.c **** 
 133:Middlewares/Third_Party/LibJPEG/source/jcparam.c ****   /* The basic table is used as-is (scaling 100) for a quality of 50.
 134:Middlewares/Third_Party/LibJPEG/source/jcparam.c ****    * Qualities 50..100 are converted to scaling percentage 200 - 2*Q;
 135:Middlewares/Third_Party/LibJPEG/source/jcparam.c ****    * note that at Q=100 the scaling is 0, which will cause jpeg_add_quant_table
 136:Middlewares/Third_Party/LibJPEG/source/jcparam.c ****    * to make all the table entries 1 (hence, minimum quantization loss).
 137:Middlewares/Third_Party/LibJPEG/source/jcparam.c ****    * Qualities 1..50 are converted to scaling percentage 5000/Q.
 138:Middlewares/Third_Party/LibJPEG/source/jcparam.c ****    */
 139:Middlewares/Third_Party/LibJPEG/source/jcparam.c ****   if (quality < 50)
 140:Middlewares/Third_Party/LibJPEG/source/jcparam.c ****     quality = 5000 / quality;
 141:Middlewares/Third_Party/LibJPEG/source/jcparam.c ****   else
 142:Middlewares/Third_Party/LibJPEG/source/jcparam.c ****     quality = 200 - quality*2;
 143:Middlewares/Third_Party/LibJPEG/source/jcparam.c **** 
 144:Middlewares/Third_Party/LibJPEG/source/jcparam.c ****   return quality;
 145:Middlewares/Third_Party/LibJPEG/source/jcparam.c **** }
 146:Middlewares/Third_Party/LibJPEG/source/jcparam.c **** 
ARM GAS  /tmp/ccCB0eLe.s 			page 4


 147:Middlewares/Third_Party/LibJPEG/source/jcparam.c **** 
 148:Middlewares/Third_Party/LibJPEG/source/jcparam.c **** GLOBAL(void)
 149:Middlewares/Third_Party/LibJPEG/source/jcparam.c **** jpeg_set_quality (j_compress_ptr cinfo, int quality, boolean force_baseline)
 150:Middlewares/Third_Party/LibJPEG/source/jcparam.c **** /* Set or change the 'quality' (quantization) setting, using default tables.
 151:Middlewares/Third_Party/LibJPEG/source/jcparam.c ****  * This is the standard quality-adjusting entry point for typical user
 152:Middlewares/Third_Party/LibJPEG/source/jcparam.c ****  * interfaces; only those who want detailed control over quantization tables
 153:Middlewares/Third_Party/LibJPEG/source/jcparam.c ****  * would use the preceding three routines directly.
 154:Middlewares/Third_Party/LibJPEG/source/jcparam.c ****  */
 155:Middlewares/Third_Party/LibJPEG/source/jcparam.c **** {
 156:Middlewares/Third_Party/LibJPEG/source/jcparam.c ****   /* Convert user 0-100 rating to percentage scaling */
 157:Middlewares/Third_Party/LibJPEG/source/jcparam.c ****   quality = jpeg_quality_scaling(quality);
 158:Middlewares/Third_Party/LibJPEG/source/jcparam.c **** 
 159:Middlewares/Third_Party/LibJPEG/source/jcparam.c ****   /* Set up standard quality tables */
 160:Middlewares/Third_Party/LibJPEG/source/jcparam.c ****   jpeg_set_linear_quality(cinfo, quality, force_baseline);
 161:Middlewares/Third_Party/LibJPEG/source/jcparam.c **** }
 162:Middlewares/Third_Party/LibJPEG/source/jcparam.c **** 
 163:Middlewares/Third_Party/LibJPEG/source/jcparam.c **** 
 164:Middlewares/Third_Party/LibJPEG/source/jcparam.c **** /*
 165:Middlewares/Third_Party/LibJPEG/source/jcparam.c ****  * Huffman table setup routines
 166:Middlewares/Third_Party/LibJPEG/source/jcparam.c ****  */
 167:Middlewares/Third_Party/LibJPEG/source/jcparam.c **** 
 168:Middlewares/Third_Party/LibJPEG/source/jcparam.c **** LOCAL(void)
 169:Middlewares/Third_Party/LibJPEG/source/jcparam.c **** add_huff_table (j_compress_ptr cinfo,
 170:Middlewares/Third_Party/LibJPEG/source/jcparam.c **** 		JHUFF_TBL **htblptr, const UINT8 *bits, const UINT8 *val)
 171:Middlewares/Third_Party/LibJPEG/source/jcparam.c **** /* Define a Huffman table */
 172:Middlewares/Third_Party/LibJPEG/source/jcparam.c **** {
 173:Middlewares/Third_Party/LibJPEG/source/jcparam.c ****   int nsymbols, len;
 174:Middlewares/Third_Party/LibJPEG/source/jcparam.c **** 
 175:Middlewares/Third_Party/LibJPEG/source/jcparam.c ****   if (*htblptr == NULL)
 176:Middlewares/Third_Party/LibJPEG/source/jcparam.c ****     *htblptr = jpeg_alloc_huff_table((j_common_ptr) cinfo);
 177:Middlewares/Third_Party/LibJPEG/source/jcparam.c **** 
 178:Middlewares/Third_Party/LibJPEG/source/jcparam.c ****   /* Copy the number-of-symbols-of-each-code-length counts */
 179:Middlewares/Third_Party/LibJPEG/source/jcparam.c ****   MEMCOPY((*htblptr)->bits, bits, SIZEOF((*htblptr)->bits));
 180:Middlewares/Third_Party/LibJPEG/source/jcparam.c **** 
 181:Middlewares/Third_Party/LibJPEG/source/jcparam.c ****   /* Validate the counts.  We do this here mainly so we can copy the right
 182:Middlewares/Third_Party/LibJPEG/source/jcparam.c ****    * number of symbols from the val[] array, without risking marching off
 183:Middlewares/Third_Party/LibJPEG/source/jcparam.c ****    * the end of memory.  jchuff.c will do a more thorough test later.
 184:Middlewares/Third_Party/LibJPEG/source/jcparam.c ****    */
 185:Middlewares/Third_Party/LibJPEG/source/jcparam.c ****   nsymbols = 0;
 186:Middlewares/Third_Party/LibJPEG/source/jcparam.c ****   for (len = 1; len <= 16; len++)
 187:Middlewares/Third_Party/LibJPEG/source/jcparam.c ****     nsymbols += bits[len];
 188:Middlewares/Third_Party/LibJPEG/source/jcparam.c ****   if (nsymbols < 1 || nsymbols > 256)
 189:Middlewares/Third_Party/LibJPEG/source/jcparam.c ****     ERREXIT(cinfo, JERR_BAD_HUFF_TABLE);
 190:Middlewares/Third_Party/LibJPEG/source/jcparam.c **** 
 191:Middlewares/Third_Party/LibJPEG/source/jcparam.c ****   MEMCOPY((*htblptr)->huffval, val, nsymbols * SIZEOF(UINT8));
 192:Middlewares/Third_Party/LibJPEG/source/jcparam.c **** 
 193:Middlewares/Third_Party/LibJPEG/source/jcparam.c ****   /* Initialize sent_table FALSE so table will be written to JPEG file. */
 194:Middlewares/Third_Party/LibJPEG/source/jcparam.c ****   (*htblptr)->sent_table = FALSE;
 195:Middlewares/Third_Party/LibJPEG/source/jcparam.c **** }
 196:Middlewares/Third_Party/LibJPEG/source/jcparam.c **** 
 197:Middlewares/Third_Party/LibJPEG/source/jcparam.c **** 
 198:Middlewares/Third_Party/LibJPEG/source/jcparam.c **** LOCAL(void)
 199:Middlewares/Third_Party/LibJPEG/source/jcparam.c **** std_huff_tables (j_compress_ptr cinfo)
 200:Middlewares/Third_Party/LibJPEG/source/jcparam.c **** /* Set up the standard Huffman tables (cf. JPEG standard section K.3) */
 201:Middlewares/Third_Party/LibJPEG/source/jcparam.c **** /* IMPORTANT: these are only valid for 8-bit data precision! */
 202:Middlewares/Third_Party/LibJPEG/source/jcparam.c **** {
 203:Middlewares/Third_Party/LibJPEG/source/jcparam.c ****   static const UINT8 bits_dc_luminance[17] =
ARM GAS  /tmp/ccCB0eLe.s 			page 5


 204:Middlewares/Third_Party/LibJPEG/source/jcparam.c ****     { /* 0-base */ 0, 0, 1, 5, 1, 1, 1, 1, 1, 1, 0, 0, 0, 0, 0, 0, 0 };
 205:Middlewares/Third_Party/LibJPEG/source/jcparam.c ****   static const UINT8 val_dc_luminance[] =
 206:Middlewares/Third_Party/LibJPEG/source/jcparam.c ****     { 0, 1, 2, 3, 4, 5, 6, 7, 8, 9, 10, 11 };
 207:Middlewares/Third_Party/LibJPEG/source/jcparam.c ****   
 208:Middlewares/Third_Party/LibJPEG/source/jcparam.c ****   static const UINT8 bits_dc_chrominance[17] =
 209:Middlewares/Third_Party/LibJPEG/source/jcparam.c ****     { /* 0-base */ 0, 0, 3, 1, 1, 1, 1, 1, 1, 1, 1, 1, 0, 0, 0, 0, 0 };
 210:Middlewares/Third_Party/LibJPEG/source/jcparam.c ****   static const UINT8 val_dc_chrominance[] =
 211:Middlewares/Third_Party/LibJPEG/source/jcparam.c ****     { 0, 1, 2, 3, 4, 5, 6, 7, 8, 9, 10, 11 };
 212:Middlewares/Third_Party/LibJPEG/source/jcparam.c ****   
 213:Middlewares/Third_Party/LibJPEG/source/jcparam.c ****   static const UINT8 bits_ac_luminance[17] =
 214:Middlewares/Third_Party/LibJPEG/source/jcparam.c ****     { /* 0-base */ 0, 0, 2, 1, 3, 3, 2, 4, 3, 5, 5, 4, 4, 0, 0, 1, 0x7d };
 215:Middlewares/Third_Party/LibJPEG/source/jcparam.c ****   static const UINT8 val_ac_luminance[] =
 216:Middlewares/Third_Party/LibJPEG/source/jcparam.c ****     { 0x01, 0x02, 0x03, 0x00, 0x04, 0x11, 0x05, 0x12,
 217:Middlewares/Third_Party/LibJPEG/source/jcparam.c ****       0x21, 0x31, 0x41, 0x06, 0x13, 0x51, 0x61, 0x07,
 218:Middlewares/Third_Party/LibJPEG/source/jcparam.c ****       0x22, 0x71, 0x14, 0x32, 0x81, 0x91, 0xa1, 0x08,
 219:Middlewares/Third_Party/LibJPEG/source/jcparam.c ****       0x23, 0x42, 0xb1, 0xc1, 0x15, 0x52, 0xd1, 0xf0,
 220:Middlewares/Third_Party/LibJPEG/source/jcparam.c ****       0x24, 0x33, 0x62, 0x72, 0x82, 0x09, 0x0a, 0x16,
 221:Middlewares/Third_Party/LibJPEG/source/jcparam.c ****       0x17, 0x18, 0x19, 0x1a, 0x25, 0x26, 0x27, 0x28,
 222:Middlewares/Third_Party/LibJPEG/source/jcparam.c ****       0x29, 0x2a, 0x34, 0x35, 0x36, 0x37, 0x38, 0x39,
 223:Middlewares/Third_Party/LibJPEG/source/jcparam.c ****       0x3a, 0x43, 0x44, 0x45, 0x46, 0x47, 0x48, 0x49,
 224:Middlewares/Third_Party/LibJPEG/source/jcparam.c ****       0x4a, 0x53, 0x54, 0x55, 0x56, 0x57, 0x58, 0x59,
 225:Middlewares/Third_Party/LibJPEG/source/jcparam.c ****       0x5a, 0x63, 0x64, 0x65, 0x66, 0x67, 0x68, 0x69,
 226:Middlewares/Third_Party/LibJPEG/source/jcparam.c ****       0x6a, 0x73, 0x74, 0x75, 0x76, 0x77, 0x78, 0x79,
 227:Middlewares/Third_Party/LibJPEG/source/jcparam.c ****       0x7a, 0x83, 0x84, 0x85, 0x86, 0x87, 0x88, 0x89,
 228:Middlewares/Third_Party/LibJPEG/source/jcparam.c ****       0x8a, 0x92, 0x93, 0x94, 0x95, 0x96, 0x97, 0x98,
 229:Middlewares/Third_Party/LibJPEG/source/jcparam.c ****       0x99, 0x9a, 0xa2, 0xa3, 0xa4, 0xa5, 0xa6, 0xa7,
 230:Middlewares/Third_Party/LibJPEG/source/jcparam.c ****       0xa8, 0xa9, 0xaa, 0xb2, 0xb3, 0xb4, 0xb5, 0xb6,
 231:Middlewares/Third_Party/LibJPEG/source/jcparam.c ****       0xb7, 0xb8, 0xb9, 0xba, 0xc2, 0xc3, 0xc4, 0xc5,
 232:Middlewares/Third_Party/LibJPEG/source/jcparam.c ****       0xc6, 0xc7, 0xc8, 0xc9, 0xca, 0xd2, 0xd3, 0xd4,
 233:Middlewares/Third_Party/LibJPEG/source/jcparam.c ****       0xd5, 0xd6, 0xd7, 0xd8, 0xd9, 0xda, 0xe1, 0xe2,
 234:Middlewares/Third_Party/LibJPEG/source/jcparam.c ****       0xe3, 0xe4, 0xe5, 0xe6, 0xe7, 0xe8, 0xe9, 0xea,
 235:Middlewares/Third_Party/LibJPEG/source/jcparam.c ****       0xf1, 0xf2, 0xf3, 0xf4, 0xf5, 0xf6, 0xf7, 0xf8,
 236:Middlewares/Third_Party/LibJPEG/source/jcparam.c ****       0xf9, 0xfa };
 237:Middlewares/Third_Party/LibJPEG/source/jcparam.c ****   
 238:Middlewares/Third_Party/LibJPEG/source/jcparam.c ****   static const UINT8 bits_ac_chrominance[17] =
 239:Middlewares/Third_Party/LibJPEG/source/jcparam.c ****     { /* 0-base */ 0, 0, 2, 1, 2, 4, 4, 3, 4, 7, 5, 4, 4, 0, 1, 2, 0x77 };
 240:Middlewares/Third_Party/LibJPEG/source/jcparam.c ****   static const UINT8 val_ac_chrominance[] =
 241:Middlewares/Third_Party/LibJPEG/source/jcparam.c ****     { 0x00, 0x01, 0x02, 0x03, 0x11, 0x04, 0x05, 0x21,
 242:Middlewares/Third_Party/LibJPEG/source/jcparam.c ****       0x31, 0x06, 0x12, 0x41, 0x51, 0x07, 0x61, 0x71,
 243:Middlewares/Third_Party/LibJPEG/source/jcparam.c ****       0x13, 0x22, 0x32, 0x81, 0x08, 0x14, 0x42, 0x91,
 244:Middlewares/Third_Party/LibJPEG/source/jcparam.c ****       0xa1, 0xb1, 0xc1, 0x09, 0x23, 0x33, 0x52, 0xf0,
 245:Middlewares/Third_Party/LibJPEG/source/jcparam.c ****       0x15, 0x62, 0x72, 0xd1, 0x0a, 0x16, 0x24, 0x34,
 246:Middlewares/Third_Party/LibJPEG/source/jcparam.c ****       0xe1, 0x25, 0xf1, 0x17, 0x18, 0x19, 0x1a, 0x26,
 247:Middlewares/Third_Party/LibJPEG/source/jcparam.c ****       0x27, 0x28, 0x29, 0x2a, 0x35, 0x36, 0x37, 0x38,
 248:Middlewares/Third_Party/LibJPEG/source/jcparam.c ****       0x39, 0x3a, 0x43, 0x44, 0x45, 0x46, 0x47, 0x48,
 249:Middlewares/Third_Party/LibJPEG/source/jcparam.c ****       0x49, 0x4a, 0x53, 0x54, 0x55, 0x56, 0x57, 0x58,
 250:Middlewares/Third_Party/LibJPEG/source/jcparam.c ****       0x59, 0x5a, 0x63, 0x64, 0x65, 0x66, 0x67, 0x68,
 251:Middlewares/Third_Party/LibJPEG/source/jcparam.c ****       0x69, 0x6a, 0x73, 0x74, 0x75, 0x76, 0x77, 0x78,
 252:Middlewares/Third_Party/LibJPEG/source/jcparam.c ****       0x79, 0x7a, 0x82, 0x83, 0x84, 0x85, 0x86, 0x87,
 253:Middlewares/Third_Party/LibJPEG/source/jcparam.c ****       0x88, 0x89, 0x8a, 0x92, 0x93, 0x94, 0x95, 0x96,
 254:Middlewares/Third_Party/LibJPEG/source/jcparam.c ****       0x97, 0x98, 0x99, 0x9a, 0xa2, 0xa3, 0xa4, 0xa5,
 255:Middlewares/Third_Party/LibJPEG/source/jcparam.c ****       0xa6, 0xa7, 0xa8, 0xa9, 0xaa, 0xb2, 0xb3, 0xb4,
 256:Middlewares/Third_Party/LibJPEG/source/jcparam.c ****       0xb5, 0xb6, 0xb7, 0xb8, 0xb9, 0xba, 0xc2, 0xc3,
 257:Middlewares/Third_Party/LibJPEG/source/jcparam.c ****       0xc4, 0xc5, 0xc6, 0xc7, 0xc8, 0xc9, 0xca, 0xd2,
 258:Middlewares/Third_Party/LibJPEG/source/jcparam.c ****       0xd3, 0xd4, 0xd5, 0xd6, 0xd7, 0xd8, 0xd9, 0xda,
 259:Middlewares/Third_Party/LibJPEG/source/jcparam.c ****       0xe2, 0xe3, 0xe4, 0xe5, 0xe6, 0xe7, 0xe8, 0xe9,
 260:Middlewares/Third_Party/LibJPEG/source/jcparam.c ****       0xea, 0xf2, 0xf3, 0xf4, 0xf5, 0xf6, 0xf7, 0xf8,
ARM GAS  /tmp/ccCB0eLe.s 			page 6


 261:Middlewares/Third_Party/LibJPEG/source/jcparam.c ****       0xf9, 0xfa };
 262:Middlewares/Third_Party/LibJPEG/source/jcparam.c ****   
 263:Middlewares/Third_Party/LibJPEG/source/jcparam.c ****   add_huff_table(cinfo, &cinfo->dc_huff_tbl_ptrs[0],
 264:Middlewares/Third_Party/LibJPEG/source/jcparam.c **** 		 bits_dc_luminance, val_dc_luminance);
 265:Middlewares/Third_Party/LibJPEG/source/jcparam.c ****   add_huff_table(cinfo, &cinfo->ac_huff_tbl_ptrs[0],
 266:Middlewares/Third_Party/LibJPEG/source/jcparam.c **** 		 bits_ac_luminance, val_ac_luminance);
 267:Middlewares/Third_Party/LibJPEG/source/jcparam.c ****   add_huff_table(cinfo, &cinfo->dc_huff_tbl_ptrs[1],
 268:Middlewares/Third_Party/LibJPEG/source/jcparam.c **** 		 bits_dc_chrominance, val_dc_chrominance);
 269:Middlewares/Third_Party/LibJPEG/source/jcparam.c ****   add_huff_table(cinfo, &cinfo->ac_huff_tbl_ptrs[1],
 270:Middlewares/Third_Party/LibJPEG/source/jcparam.c **** 		 bits_ac_chrominance, val_ac_chrominance);
 271:Middlewares/Third_Party/LibJPEG/source/jcparam.c **** }
 272:Middlewares/Third_Party/LibJPEG/source/jcparam.c **** 
 273:Middlewares/Third_Party/LibJPEG/source/jcparam.c **** 
 274:Middlewares/Third_Party/LibJPEG/source/jcparam.c **** /*
 275:Middlewares/Third_Party/LibJPEG/source/jcparam.c ****  * Default parameter setup for compression.
 276:Middlewares/Third_Party/LibJPEG/source/jcparam.c ****  *
 277:Middlewares/Third_Party/LibJPEG/source/jcparam.c ****  * Applications that don't choose to use this routine must do their
 278:Middlewares/Third_Party/LibJPEG/source/jcparam.c ****  * own setup of all these parameters.  Alternately, you can call this
 279:Middlewares/Third_Party/LibJPEG/source/jcparam.c ****  * to establish defaults and then alter parameters selectively.  This
 280:Middlewares/Third_Party/LibJPEG/source/jcparam.c ****  * is the recommended approach since, if we add any new parameters,
 281:Middlewares/Third_Party/LibJPEG/source/jcparam.c ****  * your code will still work (they'll be set to reasonable defaults).
 282:Middlewares/Third_Party/LibJPEG/source/jcparam.c ****  */
 283:Middlewares/Third_Party/LibJPEG/source/jcparam.c **** 
 284:Middlewares/Third_Party/LibJPEG/source/jcparam.c **** GLOBAL(void)
 285:Middlewares/Third_Party/LibJPEG/source/jcparam.c **** jpeg_set_defaults (j_compress_ptr cinfo)
 286:Middlewares/Third_Party/LibJPEG/source/jcparam.c **** {
 287:Middlewares/Third_Party/LibJPEG/source/jcparam.c ****   int i;
 288:Middlewares/Third_Party/LibJPEG/source/jcparam.c **** 
 289:Middlewares/Third_Party/LibJPEG/source/jcparam.c ****   /* Safety check to ensure start_compress not called yet. */
 290:Middlewares/Third_Party/LibJPEG/source/jcparam.c ****   if (cinfo->global_state != CSTATE_START)
 291:Middlewares/Third_Party/LibJPEG/source/jcparam.c ****     ERREXIT1(cinfo, JERR_BAD_STATE, cinfo->global_state);
 292:Middlewares/Third_Party/LibJPEG/source/jcparam.c **** 
 293:Middlewares/Third_Party/LibJPEG/source/jcparam.c ****   /* Allocate comp_info array large enough for maximum component count.
 294:Middlewares/Third_Party/LibJPEG/source/jcparam.c ****    * Array is made permanent in case application wants to compress
 295:Middlewares/Third_Party/LibJPEG/source/jcparam.c ****    * multiple images at same param settings.
 296:Middlewares/Third_Party/LibJPEG/source/jcparam.c ****    */
 297:Middlewares/Third_Party/LibJPEG/source/jcparam.c ****   if (cinfo->comp_info == NULL)
 298:Middlewares/Third_Party/LibJPEG/source/jcparam.c ****     cinfo->comp_info = (jpeg_component_info *)
 299:Middlewares/Third_Party/LibJPEG/source/jcparam.c ****       (*cinfo->mem->alloc_small) ((j_common_ptr) cinfo, JPOOL_PERMANENT,
 300:Middlewares/Third_Party/LibJPEG/source/jcparam.c **** 				  MAX_COMPONENTS * SIZEOF(jpeg_component_info));
 301:Middlewares/Third_Party/LibJPEG/source/jcparam.c **** 
 302:Middlewares/Third_Party/LibJPEG/source/jcparam.c ****   /* Initialize everything not dependent on the color space */
 303:Middlewares/Third_Party/LibJPEG/source/jcparam.c **** 
 304:Middlewares/Third_Party/LibJPEG/source/jcparam.c ****   cinfo->scale_num = 1;		/* 1:1 scaling */
 305:Middlewares/Third_Party/LibJPEG/source/jcparam.c ****   cinfo->scale_denom = 1;
 306:Middlewares/Third_Party/LibJPEG/source/jcparam.c ****   cinfo->data_precision = BITS_IN_JSAMPLE;
 307:Middlewares/Third_Party/LibJPEG/source/jcparam.c ****   /* Set up two quantization tables using default quality of 75 */
 308:Middlewares/Third_Party/LibJPEG/source/jcparam.c ****   jpeg_set_quality(cinfo, 75, TRUE);
 309:Middlewares/Third_Party/LibJPEG/source/jcparam.c ****   /* Set up two Huffman tables */
 310:Middlewares/Third_Party/LibJPEG/source/jcparam.c ****   std_huff_tables(cinfo);
 311:Middlewares/Third_Party/LibJPEG/source/jcparam.c **** 
 312:Middlewares/Third_Party/LibJPEG/source/jcparam.c ****   /* Initialize default arithmetic coding conditioning */
 313:Middlewares/Third_Party/LibJPEG/source/jcparam.c ****   for (i = 0; i < NUM_ARITH_TBLS; i++) {
 314:Middlewares/Third_Party/LibJPEG/source/jcparam.c ****     cinfo->arith_dc_L[i] = 0;
 315:Middlewares/Third_Party/LibJPEG/source/jcparam.c ****     cinfo->arith_dc_U[i] = 1;
 316:Middlewares/Third_Party/LibJPEG/source/jcparam.c ****     cinfo->arith_ac_K[i] = 5;
 317:Middlewares/Third_Party/LibJPEG/source/jcparam.c ****   }
ARM GAS  /tmp/ccCB0eLe.s 			page 7


 318:Middlewares/Third_Party/LibJPEG/source/jcparam.c **** 
 319:Middlewares/Third_Party/LibJPEG/source/jcparam.c ****   /* Default is no multiple-scan output */
 320:Middlewares/Third_Party/LibJPEG/source/jcparam.c ****   cinfo->scan_info = NULL;
 321:Middlewares/Third_Party/LibJPEG/source/jcparam.c ****   cinfo->num_scans = 0;
 322:Middlewares/Third_Party/LibJPEG/source/jcparam.c **** 
 323:Middlewares/Third_Party/LibJPEG/source/jcparam.c ****   /* Expect normal source image, not raw downsampled data */
 324:Middlewares/Third_Party/LibJPEG/source/jcparam.c ****   cinfo->raw_data_in = FALSE;
 325:Middlewares/Third_Party/LibJPEG/source/jcparam.c **** 
 326:Middlewares/Third_Party/LibJPEG/source/jcparam.c ****   /* Use Huffman coding, not arithmetic coding, by default */
 327:Middlewares/Third_Party/LibJPEG/source/jcparam.c ****   cinfo->arith_code = FALSE;
 328:Middlewares/Third_Party/LibJPEG/source/jcparam.c **** 
 329:Middlewares/Third_Party/LibJPEG/source/jcparam.c ****   /* By default, don't do extra passes to optimize entropy coding */
 330:Middlewares/Third_Party/LibJPEG/source/jcparam.c ****   cinfo->optimize_coding = FALSE;
 331:Middlewares/Third_Party/LibJPEG/source/jcparam.c ****   /* The standard Huffman tables are only valid for 8-bit data precision.
 332:Middlewares/Third_Party/LibJPEG/source/jcparam.c ****    * If the precision is higher, force optimization on so that usable
 333:Middlewares/Third_Party/LibJPEG/source/jcparam.c ****    * tables will be computed.  This test can be removed if default tables
 334:Middlewares/Third_Party/LibJPEG/source/jcparam.c ****    * are supplied that are valid for the desired precision.
 335:Middlewares/Third_Party/LibJPEG/source/jcparam.c ****    */
 336:Middlewares/Third_Party/LibJPEG/source/jcparam.c ****   if (cinfo->data_precision > 8)
 337:Middlewares/Third_Party/LibJPEG/source/jcparam.c ****     cinfo->optimize_coding = TRUE;
 338:Middlewares/Third_Party/LibJPEG/source/jcparam.c **** 
 339:Middlewares/Third_Party/LibJPEG/source/jcparam.c ****   /* By default, use the simpler non-cosited sampling alignment */
 340:Middlewares/Third_Party/LibJPEG/source/jcparam.c ****   cinfo->CCIR601_sampling = FALSE;
 341:Middlewares/Third_Party/LibJPEG/source/jcparam.c **** 
 342:Middlewares/Third_Party/LibJPEG/source/jcparam.c ****   /* By default, apply fancy downsampling */
 343:Middlewares/Third_Party/LibJPEG/source/jcparam.c ****   cinfo->do_fancy_downsampling = TRUE;
 344:Middlewares/Third_Party/LibJPEG/source/jcparam.c **** 
 345:Middlewares/Third_Party/LibJPEG/source/jcparam.c ****   /* No input smoothing */
 346:Middlewares/Third_Party/LibJPEG/source/jcparam.c ****   cinfo->smoothing_factor = 0;
 347:Middlewares/Third_Party/LibJPEG/source/jcparam.c **** 
 348:Middlewares/Third_Party/LibJPEG/source/jcparam.c ****   /* DCT algorithm preference */
 349:Middlewares/Third_Party/LibJPEG/source/jcparam.c ****   cinfo->dct_method = JDCT_DEFAULT;
 350:Middlewares/Third_Party/LibJPEG/source/jcparam.c **** 
 351:Middlewares/Third_Party/LibJPEG/source/jcparam.c ****   /* No restart markers */
 352:Middlewares/Third_Party/LibJPEG/source/jcparam.c ****   cinfo->restart_interval = 0;
 353:Middlewares/Third_Party/LibJPEG/source/jcparam.c ****   cinfo->restart_in_rows = 0;
 354:Middlewares/Third_Party/LibJPEG/source/jcparam.c **** 
 355:Middlewares/Third_Party/LibJPEG/source/jcparam.c ****   /* Fill in default JFIF marker parameters.  Note that whether the marker
 356:Middlewares/Third_Party/LibJPEG/source/jcparam.c ****    * will actually be written is determined by jpeg_set_colorspace.
 357:Middlewares/Third_Party/LibJPEG/source/jcparam.c ****    *
 358:Middlewares/Third_Party/LibJPEG/source/jcparam.c ****    * By default, the library emits JFIF version code 1.01.
 359:Middlewares/Third_Party/LibJPEG/source/jcparam.c ****    * An application that wants to emit JFIF 1.02 extension markers should set
 360:Middlewares/Third_Party/LibJPEG/source/jcparam.c ****    * JFIF_minor_version to 2.  We could probably get away with just defaulting
 361:Middlewares/Third_Party/LibJPEG/source/jcparam.c ****    * to 1.02, but there may still be some decoders in use that will complain
 362:Middlewares/Third_Party/LibJPEG/source/jcparam.c ****    * about that; saying 1.01 should minimize compatibility problems.
 363:Middlewares/Third_Party/LibJPEG/source/jcparam.c ****    */
 364:Middlewares/Third_Party/LibJPEG/source/jcparam.c ****   cinfo->JFIF_major_version = 1; /* Default JFIF version = 1.01 */
 365:Middlewares/Third_Party/LibJPEG/source/jcparam.c ****   cinfo->JFIF_minor_version = 1;
 366:Middlewares/Third_Party/LibJPEG/source/jcparam.c ****   cinfo->density_unit = 0;	/* Pixel size is unknown by default */
 367:Middlewares/Third_Party/LibJPEG/source/jcparam.c ****   cinfo->X_density = 1;		/* Pixel aspect ratio is square by default */
 368:Middlewares/Third_Party/LibJPEG/source/jcparam.c ****   cinfo->Y_density = 1;
 369:Middlewares/Third_Party/LibJPEG/source/jcparam.c **** 
 370:Middlewares/Third_Party/LibJPEG/source/jcparam.c ****   /* Choose JPEG colorspace based on input space, set defaults accordingly */
 371:Middlewares/Third_Party/LibJPEG/source/jcparam.c **** 
 372:Middlewares/Third_Party/LibJPEG/source/jcparam.c ****   jpeg_default_colorspace(cinfo);
 373:Middlewares/Third_Party/LibJPEG/source/jcparam.c **** }
 374:Middlewares/Third_Party/LibJPEG/source/jcparam.c **** 
ARM GAS  /tmp/ccCB0eLe.s 			page 8


 375:Middlewares/Third_Party/LibJPEG/source/jcparam.c **** 
 376:Middlewares/Third_Party/LibJPEG/source/jcparam.c **** /*
 377:Middlewares/Third_Party/LibJPEG/source/jcparam.c ****  * Select an appropriate JPEG colorspace for in_color_space.
 378:Middlewares/Third_Party/LibJPEG/source/jcparam.c ****  */
 379:Middlewares/Third_Party/LibJPEG/source/jcparam.c **** 
 380:Middlewares/Third_Party/LibJPEG/source/jcparam.c **** GLOBAL(void)
 381:Middlewares/Third_Party/LibJPEG/source/jcparam.c **** jpeg_default_colorspace (j_compress_ptr cinfo)
 382:Middlewares/Third_Party/LibJPEG/source/jcparam.c **** {
 383:Middlewares/Third_Party/LibJPEG/source/jcparam.c ****   switch (cinfo->in_color_space) {
 384:Middlewares/Third_Party/LibJPEG/source/jcparam.c ****   case JCS_GRAYSCALE:
 385:Middlewares/Third_Party/LibJPEG/source/jcparam.c ****     jpeg_set_colorspace(cinfo, JCS_GRAYSCALE);
 386:Middlewares/Third_Party/LibJPEG/source/jcparam.c ****     break;
 387:Middlewares/Third_Party/LibJPEG/source/jcparam.c ****   case JCS_RGB:
 388:Middlewares/Third_Party/LibJPEG/source/jcparam.c ****     jpeg_set_colorspace(cinfo, JCS_YCbCr);
 389:Middlewares/Third_Party/LibJPEG/source/jcparam.c ****     break;
 390:Middlewares/Third_Party/LibJPEG/source/jcparam.c ****   case JCS_YCbCr:
 391:Middlewares/Third_Party/LibJPEG/source/jcparam.c ****     jpeg_set_colorspace(cinfo, JCS_YCbCr);
 392:Middlewares/Third_Party/LibJPEG/source/jcparam.c ****     break;
 393:Middlewares/Third_Party/LibJPEG/source/jcparam.c ****   case JCS_CMYK:
 394:Middlewares/Third_Party/LibJPEG/source/jcparam.c ****     jpeg_set_colorspace(cinfo, JCS_CMYK); /* By default, no translation */
 395:Middlewares/Third_Party/LibJPEG/source/jcparam.c ****     break;
 396:Middlewares/Third_Party/LibJPEG/source/jcparam.c ****   case JCS_YCCK:
 397:Middlewares/Third_Party/LibJPEG/source/jcparam.c ****     jpeg_set_colorspace(cinfo, JCS_YCCK);
 398:Middlewares/Third_Party/LibJPEG/source/jcparam.c ****     break;
 399:Middlewares/Third_Party/LibJPEG/source/jcparam.c ****   case JCS_UNKNOWN:
 400:Middlewares/Third_Party/LibJPEG/source/jcparam.c ****     jpeg_set_colorspace(cinfo, JCS_UNKNOWN);
 401:Middlewares/Third_Party/LibJPEG/source/jcparam.c ****     break;
 402:Middlewares/Third_Party/LibJPEG/source/jcparam.c ****   default:
 403:Middlewares/Third_Party/LibJPEG/source/jcparam.c ****     ERREXIT(cinfo, JERR_BAD_IN_COLORSPACE);
 404:Middlewares/Third_Party/LibJPEG/source/jcparam.c ****   }
 405:Middlewares/Third_Party/LibJPEG/source/jcparam.c **** }
 406:Middlewares/Third_Party/LibJPEG/source/jcparam.c **** 
 407:Middlewares/Third_Party/LibJPEG/source/jcparam.c **** 
 408:Middlewares/Third_Party/LibJPEG/source/jcparam.c **** /*
 409:Middlewares/Third_Party/LibJPEG/source/jcparam.c ****  * Set the JPEG colorspace, and choose colorspace-dependent default values.
 410:Middlewares/Third_Party/LibJPEG/source/jcparam.c ****  */
 411:Middlewares/Third_Party/LibJPEG/source/jcparam.c **** 
 412:Middlewares/Third_Party/LibJPEG/source/jcparam.c **** GLOBAL(void)
 413:Middlewares/Third_Party/LibJPEG/source/jcparam.c **** jpeg_set_colorspace (j_compress_ptr cinfo, J_COLOR_SPACE colorspace)
 414:Middlewares/Third_Party/LibJPEG/source/jcparam.c **** {
 415:Middlewares/Third_Party/LibJPEG/source/jcparam.c ****   jpeg_component_info * compptr;
 416:Middlewares/Third_Party/LibJPEG/source/jcparam.c ****   int ci;
 417:Middlewares/Third_Party/LibJPEG/source/jcparam.c **** 
 418:Middlewares/Third_Party/LibJPEG/source/jcparam.c **** #define SET_COMP(index,id,hsamp,vsamp,quant,dctbl,actbl)  \
 419:Middlewares/Third_Party/LibJPEG/source/jcparam.c ****   (compptr = &cinfo->comp_info[index], \
 420:Middlewares/Third_Party/LibJPEG/source/jcparam.c ****    compptr->component_id = (id), \
 421:Middlewares/Third_Party/LibJPEG/source/jcparam.c ****    compptr->h_samp_factor = (hsamp), \
 422:Middlewares/Third_Party/LibJPEG/source/jcparam.c ****    compptr->v_samp_factor = (vsamp), \
 423:Middlewares/Third_Party/LibJPEG/source/jcparam.c ****    compptr->quant_tbl_no = (quant), \
 424:Middlewares/Third_Party/LibJPEG/source/jcparam.c ****    compptr->dc_tbl_no = (dctbl), \
 425:Middlewares/Third_Party/LibJPEG/source/jcparam.c ****    compptr->ac_tbl_no = (actbl) )
 426:Middlewares/Third_Party/LibJPEG/source/jcparam.c **** 
 427:Middlewares/Third_Party/LibJPEG/source/jcparam.c ****   /* Safety check to ensure start_compress not called yet. */
 428:Middlewares/Third_Party/LibJPEG/source/jcparam.c ****   if (cinfo->global_state != CSTATE_START)
 429:Middlewares/Third_Party/LibJPEG/source/jcparam.c ****     ERREXIT1(cinfo, JERR_BAD_STATE, cinfo->global_state);
 430:Middlewares/Third_Party/LibJPEG/source/jcparam.c **** 
 431:Middlewares/Third_Party/LibJPEG/source/jcparam.c ****   /* For all colorspaces, we use Q and Huff tables 0 for luminance components,
ARM GAS  /tmp/ccCB0eLe.s 			page 9


 432:Middlewares/Third_Party/LibJPEG/source/jcparam.c ****    * tables 1 for chrominance components.
 433:Middlewares/Third_Party/LibJPEG/source/jcparam.c ****    */
 434:Middlewares/Third_Party/LibJPEG/source/jcparam.c **** 
 435:Middlewares/Third_Party/LibJPEG/source/jcparam.c ****   cinfo->jpeg_color_space = colorspace;
 436:Middlewares/Third_Party/LibJPEG/source/jcparam.c **** 
 437:Middlewares/Third_Party/LibJPEG/source/jcparam.c ****   cinfo->write_JFIF_header = FALSE; /* No marker for non-JFIF colorspaces */
 438:Middlewares/Third_Party/LibJPEG/source/jcparam.c ****   cinfo->write_Adobe_marker = FALSE; /* write no Adobe marker by default */
 439:Middlewares/Third_Party/LibJPEG/source/jcparam.c **** 
 440:Middlewares/Third_Party/LibJPEG/source/jcparam.c ****   switch (colorspace) {
 441:Middlewares/Third_Party/LibJPEG/source/jcparam.c ****   case JCS_GRAYSCALE:
 442:Middlewares/Third_Party/LibJPEG/source/jcparam.c ****     cinfo->write_JFIF_header = TRUE; /* Write a JFIF marker */
 443:Middlewares/Third_Party/LibJPEG/source/jcparam.c ****     cinfo->num_components = 1;
 444:Middlewares/Third_Party/LibJPEG/source/jcparam.c ****     /* JFIF specifies component ID 1 */
 445:Middlewares/Third_Party/LibJPEG/source/jcparam.c ****     SET_COMP(0, 1, 1,1, 0, 0,0);
 446:Middlewares/Third_Party/LibJPEG/source/jcparam.c ****     break;
 447:Middlewares/Third_Party/LibJPEG/source/jcparam.c ****   case JCS_RGB:
 448:Middlewares/Third_Party/LibJPEG/source/jcparam.c ****     cinfo->write_Adobe_marker = TRUE; /* write Adobe marker to flag RGB */
 449:Middlewares/Third_Party/LibJPEG/source/jcparam.c ****     cinfo->num_components = 3;
 450:Middlewares/Third_Party/LibJPEG/source/jcparam.c ****     SET_COMP(0, 0x52 /* 'R' */, 1,1, 0, 0,0);
 451:Middlewares/Third_Party/LibJPEG/source/jcparam.c ****     SET_COMP(1, 0x47 /* 'G' */, 1,1, 0, 0,0);
 452:Middlewares/Third_Party/LibJPEG/source/jcparam.c ****     SET_COMP(2, 0x42 /* 'B' */, 1,1, 0, 0,0);
 453:Middlewares/Third_Party/LibJPEG/source/jcparam.c ****     break;
 454:Middlewares/Third_Party/LibJPEG/source/jcparam.c ****   case JCS_YCbCr:
 455:Middlewares/Third_Party/LibJPEG/source/jcparam.c ****     cinfo->write_JFIF_header = TRUE; /* Write a JFIF marker */
 456:Middlewares/Third_Party/LibJPEG/source/jcparam.c ****     cinfo->num_components = 3;
 457:Middlewares/Third_Party/LibJPEG/source/jcparam.c ****     /* JFIF specifies component IDs 1,2,3 */
 458:Middlewares/Third_Party/LibJPEG/source/jcparam.c ****     /* We default to 2x2 subsamples of chrominance */
 459:Middlewares/Third_Party/LibJPEG/source/jcparam.c ****     SET_COMP(0, 1, 2,2, 0, 0,0);
 460:Middlewares/Third_Party/LibJPEG/source/jcparam.c ****     SET_COMP(1, 2, 1,1, 1, 1,1);
 461:Middlewares/Third_Party/LibJPEG/source/jcparam.c ****     SET_COMP(2, 3, 1,1, 1, 1,1);
 462:Middlewares/Third_Party/LibJPEG/source/jcparam.c ****     break;
 463:Middlewares/Third_Party/LibJPEG/source/jcparam.c ****   case JCS_CMYK:
 464:Middlewares/Third_Party/LibJPEG/source/jcparam.c ****     cinfo->write_Adobe_marker = TRUE; /* write Adobe marker to flag CMYK */
 465:Middlewares/Third_Party/LibJPEG/source/jcparam.c ****     cinfo->num_components = 4;
 466:Middlewares/Third_Party/LibJPEG/source/jcparam.c ****     SET_COMP(0, 0x43 /* 'C' */, 1,1, 0, 0,0);
 467:Middlewares/Third_Party/LibJPEG/source/jcparam.c ****     SET_COMP(1, 0x4D /* 'M' */, 1,1, 0, 0,0);
 468:Middlewares/Third_Party/LibJPEG/source/jcparam.c ****     SET_COMP(2, 0x59 /* 'Y' */, 1,1, 0, 0,0);
 469:Middlewares/Third_Party/LibJPEG/source/jcparam.c ****     SET_COMP(3, 0x4B /* 'K' */, 1,1, 0, 0,0);
 470:Middlewares/Third_Party/LibJPEG/source/jcparam.c ****     break;
 471:Middlewares/Third_Party/LibJPEG/source/jcparam.c ****   case JCS_YCCK:
 472:Middlewares/Third_Party/LibJPEG/source/jcparam.c ****     cinfo->write_Adobe_marker = TRUE; /* write Adobe marker to flag YCCK */
 473:Middlewares/Third_Party/LibJPEG/source/jcparam.c ****     cinfo->num_components = 4;
 474:Middlewares/Third_Party/LibJPEG/source/jcparam.c ****     SET_COMP(0, 1, 2,2, 0, 0,0);
 475:Middlewares/Third_Party/LibJPEG/source/jcparam.c ****     SET_COMP(1, 2, 1,1, 1, 1,1);
 476:Middlewares/Third_Party/LibJPEG/source/jcparam.c ****     SET_COMP(2, 3, 1,1, 1, 1,1);
 477:Middlewares/Third_Party/LibJPEG/source/jcparam.c ****     SET_COMP(3, 4, 2,2, 0, 0,0);
 478:Middlewares/Third_Party/LibJPEG/source/jcparam.c ****     break;
 479:Middlewares/Third_Party/LibJPEG/source/jcparam.c ****   case JCS_UNKNOWN:
 480:Middlewares/Third_Party/LibJPEG/source/jcparam.c ****     cinfo->num_components = cinfo->input_components;
 481:Middlewares/Third_Party/LibJPEG/source/jcparam.c ****     if (cinfo->num_components < 1 || cinfo->num_components > MAX_COMPONENTS)
 482:Middlewares/Third_Party/LibJPEG/source/jcparam.c ****       ERREXIT2(cinfo, JERR_COMPONENT_COUNT, cinfo->num_components,
 483:Middlewares/Third_Party/LibJPEG/source/jcparam.c **** 	       MAX_COMPONENTS);
 484:Middlewares/Third_Party/LibJPEG/source/jcparam.c ****     for (ci = 0; ci < cinfo->num_components; ci++) {
 485:Middlewares/Third_Party/LibJPEG/source/jcparam.c ****       SET_COMP(ci, ci, 1,1, 0, 0,0);
 486:Middlewares/Third_Party/LibJPEG/source/jcparam.c ****     }
 487:Middlewares/Third_Party/LibJPEG/source/jcparam.c ****     break;
 488:Middlewares/Third_Party/LibJPEG/source/jcparam.c ****   default:
ARM GAS  /tmp/ccCB0eLe.s 			page 10


 489:Middlewares/Third_Party/LibJPEG/source/jcparam.c ****     ERREXIT(cinfo, JERR_BAD_J_COLORSPACE);
 490:Middlewares/Third_Party/LibJPEG/source/jcparam.c ****   }
 491:Middlewares/Third_Party/LibJPEG/source/jcparam.c **** }
 492:Middlewares/Third_Party/LibJPEG/source/jcparam.c **** 
 493:Middlewares/Third_Party/LibJPEG/source/jcparam.c **** 
 494:Middlewares/Third_Party/LibJPEG/source/jcparam.c **** #ifdef C_PROGRESSIVE_SUPPORTED
 495:Middlewares/Third_Party/LibJPEG/source/jcparam.c **** 
 496:Middlewares/Third_Party/LibJPEG/source/jcparam.c **** LOCAL(jpeg_scan_info *)
 497:Middlewares/Third_Party/LibJPEG/source/jcparam.c **** fill_a_scan (jpeg_scan_info * scanptr, int ci,
 498:Middlewares/Third_Party/LibJPEG/source/jcparam.c **** 	     int Ss, int Se, int Ah, int Al)
 499:Middlewares/Third_Party/LibJPEG/source/jcparam.c **** /* Support routine: generate one scan for specified component */
 500:Middlewares/Third_Party/LibJPEG/source/jcparam.c **** {
  27              		.loc 1 500 0
  28              		.cfi_startproc
  29              		@ args = 8, pretend = 0, frame = 0
  30              		@ frame_needed = 0, uses_anonymous_args = 0
  31              		@ link register save eliminated.
  32              	.LVL0:
  33 0000 10B4     		push	{r4}
  34              	.LCFI0:
  35              		.cfi_def_cfa_offset 4
  36              		.cfi_offset 4, -4
 501:Middlewares/Third_Party/LibJPEG/source/jcparam.c ****   scanptr->comps_in_scan = 1;
  37              		.loc 1 501 0
  38 0002 0124     		movs	r4, #1
  39 0004 0460     		str	r4, [r0]
 502:Middlewares/Third_Party/LibJPEG/source/jcparam.c ****   scanptr->component_index[0] = ci;
  40              		.loc 1 502 0
  41 0006 4160     		str	r1, [r0, #4]
 503:Middlewares/Third_Party/LibJPEG/source/jcparam.c ****   scanptr->Ss = Ss;
  42              		.loc 1 503 0
  43 0008 4261     		str	r2, [r0, #20]
 504:Middlewares/Third_Party/LibJPEG/source/jcparam.c ****   scanptr->Se = Se;
  44              		.loc 1 504 0
  45 000a 8361     		str	r3, [r0, #24]
 505:Middlewares/Third_Party/LibJPEG/source/jcparam.c ****   scanptr->Ah = Ah;
  46              		.loc 1 505 0
  47 000c 019B     		ldr	r3, [sp, #4]
  48              	.LVL1:
  49 000e C361     		str	r3, [r0, #28]
 506:Middlewares/Third_Party/LibJPEG/source/jcparam.c ****   scanptr->Al = Al;
  50              		.loc 1 506 0
  51 0010 029B     		ldr	r3, [sp, #8]
  52 0012 0362     		str	r3, [r0, #32]
  53              	.LVL2:
 507:Middlewares/Third_Party/LibJPEG/source/jcparam.c ****   scanptr++;
 508:Middlewares/Third_Party/LibJPEG/source/jcparam.c ****   return scanptr;
 509:Middlewares/Third_Party/LibJPEG/source/jcparam.c **** }
  54              		.loc 1 509 0
  55 0014 2430     		adds	r0, r0, #36
  56              	.LVL3:
  57 0016 5DF8044B 		ldr	r4, [sp], #4
  58              	.LCFI1:
  59              		.cfi_restore 4
  60              		.cfi_def_cfa_offset 0
  61              	.LVL4:
  62 001a 7047     		bx	lr
ARM GAS  /tmp/ccCB0eLe.s 			page 11


  63              		.cfi_endproc
  64              	.LFE13:
  66              		.section	.text.fill_scans,"ax",%progbits
  67              		.align	1
  68              		.syntax unified
  69              		.thumb
  70              		.thumb_func
  71              		.fpu fpv5-sp-d16
  73              	fill_scans:
  74              	.LFB14:
 510:Middlewares/Third_Party/LibJPEG/source/jcparam.c **** 
 511:Middlewares/Third_Party/LibJPEG/source/jcparam.c **** LOCAL(jpeg_scan_info *)
 512:Middlewares/Third_Party/LibJPEG/source/jcparam.c **** fill_scans (jpeg_scan_info * scanptr, int ncomps,
 513:Middlewares/Third_Party/LibJPEG/source/jcparam.c **** 	    int Ss, int Se, int Ah, int Al)
 514:Middlewares/Third_Party/LibJPEG/source/jcparam.c **** /* Support routine: generate one scan for each component */
 515:Middlewares/Third_Party/LibJPEG/source/jcparam.c **** {
  75              		.loc 1 515 0
  76              		.cfi_startproc
  77              		@ args = 8, pretend = 0, frame = 0
  78              		@ frame_needed = 0, uses_anonymous_args = 0
  79              		@ link register save eliminated.
  80              	.LVL5:
  81 0000 F0B4     		push	{r4, r5, r6, r7}
  82              	.LCFI2:
  83              		.cfi_def_cfa_offset 16
  84              		.cfi_offset 4, -16
  85              		.cfi_offset 5, -12
  86              		.cfi_offset 6, -8
  87              		.cfi_offset 7, -4
  88 0002 049F     		ldr	r7, [sp, #16]
  89 0004 059E     		ldr	r6, [sp, #20]
  90              	.LVL6:
 516:Middlewares/Third_Party/LibJPEG/source/jcparam.c ****   int ci;
 517:Middlewares/Third_Party/LibJPEG/source/jcparam.c **** 
 518:Middlewares/Third_Party/LibJPEG/source/jcparam.c ****   for (ci = 0; ci < ncomps; ci++) {
  91              		.loc 1 518 0
  92 0006 0024     		movs	r4, #0
  93 0008 08E0     		b	.L4
  94              	.LVL7:
  95              	.L5:
 519:Middlewares/Third_Party/LibJPEG/source/jcparam.c ****     scanptr->comps_in_scan = 1;
  96              		.loc 1 519 0 discriminator 3
  97 000a 0125     		movs	r5, #1
  98 000c 0560     		str	r5, [r0]
 520:Middlewares/Third_Party/LibJPEG/source/jcparam.c ****     scanptr->component_index[0] = ci;
  99              		.loc 1 520 0 discriminator 3
 100 000e 4460     		str	r4, [r0, #4]
 521:Middlewares/Third_Party/LibJPEG/source/jcparam.c ****     scanptr->Ss = Ss;
 101              		.loc 1 521 0 discriminator 3
 102 0010 4261     		str	r2, [r0, #20]
 522:Middlewares/Third_Party/LibJPEG/source/jcparam.c ****     scanptr->Se = Se;
 103              		.loc 1 522 0 discriminator 3
 104 0012 8361     		str	r3, [r0, #24]
 523:Middlewares/Third_Party/LibJPEG/source/jcparam.c ****     scanptr->Ah = Ah;
 105              		.loc 1 523 0 discriminator 3
 106 0014 C761     		str	r7, [r0, #28]
 524:Middlewares/Third_Party/LibJPEG/source/jcparam.c ****     scanptr->Al = Al;
ARM GAS  /tmp/ccCB0eLe.s 			page 12


 107              		.loc 1 524 0 discriminator 3
 108 0016 0662     		str	r6, [r0, #32]
 525:Middlewares/Third_Party/LibJPEG/source/jcparam.c ****     scanptr++;
 109              		.loc 1 525 0 discriminator 3
 110 0018 2430     		adds	r0, r0, #36
 111              	.LVL8:
 518:Middlewares/Third_Party/LibJPEG/source/jcparam.c ****     scanptr->comps_in_scan = 1;
 112              		.loc 1 518 0 discriminator 3
 113 001a 2C44     		add	r4, r4, r5
 114              	.LVL9:
 115              	.L4:
 518:Middlewares/Third_Party/LibJPEG/source/jcparam.c ****     scanptr->comps_in_scan = 1;
 116              		.loc 1 518 0 is_stmt 0 discriminator 1
 117 001c 8C42     		cmp	r4, r1
 118 001e F4DB     		blt	.L5
 526:Middlewares/Third_Party/LibJPEG/source/jcparam.c ****   }
 527:Middlewares/Third_Party/LibJPEG/source/jcparam.c ****   return scanptr;
 528:Middlewares/Third_Party/LibJPEG/source/jcparam.c **** }
 119              		.loc 1 528 0 is_stmt 1
 120 0020 F0BC     		pop	{r4, r5, r6, r7}
 121              	.LCFI3:
 122              		.cfi_restore 7
 123              		.cfi_restore 6
 124              		.cfi_restore 5
 125              		.cfi_restore 4
 126              		.cfi_def_cfa_offset 0
 127              	.LVL10:
 128 0022 7047     		bx	lr
 129              		.cfi_endproc
 130              	.LFE14:
 132              		.section	.text.fill_dc_scans,"ax",%progbits
 133              		.align	1
 134              		.syntax unified
 135              		.thumb
 136              		.thumb_func
 137              		.fpu fpv5-sp-d16
 139              	fill_dc_scans:
 140              	.LFB15:
 529:Middlewares/Third_Party/LibJPEG/source/jcparam.c **** 
 530:Middlewares/Third_Party/LibJPEG/source/jcparam.c **** LOCAL(jpeg_scan_info *)
 531:Middlewares/Third_Party/LibJPEG/source/jcparam.c **** fill_dc_scans (jpeg_scan_info * scanptr, int ncomps, int Ah, int Al)
 532:Middlewares/Third_Party/LibJPEG/source/jcparam.c **** /* Support routine: generate interleaved DC scan if possible, else N scans */
 533:Middlewares/Third_Party/LibJPEG/source/jcparam.c **** {
 141              		.loc 1 533 0
 142              		.cfi_startproc
 143              		@ args = 0, pretend = 0, frame = 0
 144              		@ frame_needed = 0, uses_anonymous_args = 0
 145              	.LVL11:
 146 0000 30B5     		push	{r4, r5, lr}
 147              	.LCFI4:
 148              		.cfi_def_cfa_offset 12
 149              		.cfi_offset 4, -12
 150              		.cfi_offset 5, -8
 151              		.cfi_offset 14, -4
 152 0002 83B0     		sub	sp, sp, #12
 153              	.LCFI5:
 154              		.cfi_def_cfa_offset 24
ARM GAS  /tmp/ccCB0eLe.s 			page 13


 534:Middlewares/Third_Party/LibJPEG/source/jcparam.c ****   int ci;
 535:Middlewares/Third_Party/LibJPEG/source/jcparam.c **** 
 536:Middlewares/Third_Party/LibJPEG/source/jcparam.c ****   if (ncomps <= MAX_COMPS_IN_SCAN) {
 155              		.loc 1 536 0
 156 0004 0429     		cmp	r1, #4
 157 0006 10DC     		bgt	.L8
 537:Middlewares/Third_Party/LibJPEG/source/jcparam.c ****     /* Single interleaved DC scan */
 538:Middlewares/Third_Party/LibJPEG/source/jcparam.c ****     scanptr->comps_in_scan = ncomps;
 158              		.loc 1 538 0
 159 0008 0160     		str	r1, [r0]
 160              	.LVL12:
 539:Middlewares/Third_Party/LibJPEG/source/jcparam.c ****     for (ci = 0; ci < ncomps; ci++)
 161              		.loc 1 539 0
 162 000a 0024     		movs	r4, #0
 163 000c 03E0     		b	.L9
 164              	.LVL13:
 165              	.L10:
 540:Middlewares/Third_Party/LibJPEG/source/jcparam.c ****       scanptr->component_index[ci] = ci;
 166              		.loc 1 540 0 discriminator 3
 167 000e 00EB8405 		add	r5, r0, r4, lsl #2
 168 0012 6C60     		str	r4, [r5, #4]
 539:Middlewares/Third_Party/LibJPEG/source/jcparam.c ****     for (ci = 0; ci < ncomps; ci++)
 169              		.loc 1 539 0 discriminator 3
 170 0014 0134     		adds	r4, r4, #1
 171              	.LVL14:
 172              	.L9:
 539:Middlewares/Third_Party/LibJPEG/source/jcparam.c ****     for (ci = 0; ci < ncomps; ci++)
 173              		.loc 1 539 0 is_stmt 0 discriminator 1
 174 0016 8C42     		cmp	r4, r1
 175 0018 F9DB     		blt	.L10
 541:Middlewares/Third_Party/LibJPEG/source/jcparam.c ****     scanptr->Ss = scanptr->Se = 0;
 176              		.loc 1 541 0 is_stmt 1
 177 001a 0021     		movs	r1, #0
 178              	.LVL15:
 179 001c 8161     		str	r1, [r0, #24]
 180 001e 4161     		str	r1, [r0, #20]
 542:Middlewares/Third_Party/LibJPEG/source/jcparam.c ****     scanptr->Ah = Ah;
 181              		.loc 1 542 0
 182 0020 C261     		str	r2, [r0, #28]
 543:Middlewares/Third_Party/LibJPEG/source/jcparam.c ****     scanptr->Al = Al;
 183              		.loc 1 543 0
 184 0022 0362     		str	r3, [r0, #32]
 544:Middlewares/Third_Party/LibJPEG/source/jcparam.c ****     scanptr++;
 185              		.loc 1 544 0
 186 0024 2430     		adds	r0, r0, #36
 187              	.LVL16:
 188              	.L7:
 545:Middlewares/Third_Party/LibJPEG/source/jcparam.c ****   } else {
 546:Middlewares/Third_Party/LibJPEG/source/jcparam.c ****     /* Noninterleaved DC scan for each component */
 547:Middlewares/Third_Party/LibJPEG/source/jcparam.c ****     scanptr = fill_scans(scanptr, ncomps, 0, 0, Ah, Al);
 548:Middlewares/Third_Party/LibJPEG/source/jcparam.c ****   }
 549:Middlewares/Third_Party/LibJPEG/source/jcparam.c ****   return scanptr;
 550:Middlewares/Third_Party/LibJPEG/source/jcparam.c **** }
 189              		.loc 1 550 0
 190 0026 03B0     		add	sp, sp, #12
 191              	.LCFI6:
 192              		.cfi_remember_state
ARM GAS  /tmp/ccCB0eLe.s 			page 14


 193              		.cfi_def_cfa_offset 12
 194              		@ sp needed
 195 0028 30BD     		pop	{r4, r5, pc}
 196              	.LVL17:
 197              	.L8:
 198              	.LCFI7:
 199              		.cfi_restore_state
 547:Middlewares/Third_Party/LibJPEG/source/jcparam.c ****   }
 200              		.loc 1 547 0
 201 002a 0193     		str	r3, [sp, #4]
 202 002c 0092     		str	r2, [sp]
 203 002e 0023     		movs	r3, #0
 204              	.LVL18:
 205 0030 1A46     		mov	r2, r3
 206              	.LVL19:
 207 0032 FFF7FEFF 		bl	fill_scans
 208              	.LVL20:
 549:Middlewares/Third_Party/LibJPEG/source/jcparam.c **** }
 209              		.loc 1 549 0
 210 0036 F6E7     		b	.L7
 211              		.cfi_endproc
 212              	.LFE15:
 214              		.section	.text.add_huff_table,"ax",%progbits
 215              		.align	1
 216              		.syntax unified
 217              		.thumb
 218              		.thumb_func
 219              		.fpu fpv5-sp-d16
 221              	add_huff_table:
 222              	.LFB8:
 172:Middlewares/Third_Party/LibJPEG/source/jcparam.c ****   int nsymbols, len;
 223              		.loc 1 172 0
 224              		.cfi_startproc
 225              		@ args = 0, pretend = 0, frame = 0
 226              		@ frame_needed = 0, uses_anonymous_args = 0
 227              	.LVL21:
 228 0000 F8B5     		push	{r3, r4, r5, r6, r7, lr}
 229              	.LCFI8:
 230              		.cfi_def_cfa_offset 24
 231              		.cfi_offset 3, -24
 232              		.cfi_offset 4, -20
 233              		.cfi_offset 5, -16
 234              		.cfi_offset 6, -12
 235              		.cfi_offset 7, -8
 236              		.cfi_offset 14, -4
 237 0002 0646     		mov	r6, r0
 238 0004 0D46     		mov	r5, r1
 239 0006 1446     		mov	r4, r2
 240 0008 1F46     		mov	r7, r3
 175:Middlewares/Third_Party/LibJPEG/source/jcparam.c ****     *htblptr = jpeg_alloc_huff_table((j_common_ptr) cinfo);
 241              		.loc 1 175 0
 242 000a 0B68     		ldr	r3, [r1]
 243              	.LVL22:
 244 000c 7BB1     		cbz	r3, .L19
 245              	.LVL23:
 246              	.L14:
 179:Middlewares/Third_Party/LibJPEG/source/jcparam.c **** 
ARM GAS  /tmp/ccCB0eLe.s 			page 15


 247              		.loc 1 179 0
 248 000e 2B68     		ldr	r3, [r5]
 249 0010 D4F800C0 		ldr	ip, [r4]	@ unaligned
 250 0014 6068     		ldr	r0, [r4, #4]	@ unaligned
 251 0016 A168     		ldr	r1, [r4, #8]	@ unaligned
 252 0018 E268     		ldr	r2, [r4, #12]	@ unaligned
 253 001a C3F800C0 		str	ip, [r3]	@ unaligned
 254 001e 5860     		str	r0, [r3, #4]	@ unaligned
 255 0020 9960     		str	r1, [r3, #8]	@ unaligned
 256 0022 DA60     		str	r2, [r3, #12]	@ unaligned
 257 0024 227C     		ldrb	r2, [r4, #16]	@ zero_extendqisi2
 258 0026 1A74     		strb	r2, [r3, #16]
 259              	.LVL24:
 186:Middlewares/Third_Party/LibJPEG/source/jcparam.c ****     nsymbols += bits[len];
 260              		.loc 1 186 0
 261 0028 0123     		movs	r3, #1
 185:Middlewares/Third_Party/LibJPEG/source/jcparam.c ****   for (len = 1; len <= 16; len++)
 262              		.loc 1 185 0
 263 002a 0022     		movs	r2, #0
 186:Middlewares/Third_Party/LibJPEG/source/jcparam.c ****     nsymbols += bits[len];
 264              		.loc 1 186 0
 265 002c 06E0     		b	.L15
 266              	.LVL25:
 267              	.L19:
 176:Middlewares/Third_Party/LibJPEG/source/jcparam.c **** 
 268              		.loc 1 176 0
 269 002e FFF7FEFF 		bl	jpeg_alloc_huff_table
 270              	.LVL26:
 271 0032 2860     		str	r0, [r5]
 272 0034 EBE7     		b	.L14
 273              	.LVL27:
 274              	.L16:
 187:Middlewares/Third_Party/LibJPEG/source/jcparam.c ****   if (nsymbols < 1 || nsymbols > 256)
 275              		.loc 1 187 0 discriminator 3
 276 0036 E15C     		ldrb	r1, [r4, r3]	@ zero_extendqisi2
 277 0038 0A44     		add	r2, r2, r1
 278              	.LVL28:
 186:Middlewares/Third_Party/LibJPEG/source/jcparam.c ****     nsymbols += bits[len];
 279              		.loc 1 186 0 discriminator 3
 280 003a 0133     		adds	r3, r3, #1
 281              	.LVL29:
 282              	.L15:
 186:Middlewares/Third_Party/LibJPEG/source/jcparam.c ****     nsymbols += bits[len];
 283              		.loc 1 186 0 is_stmt 0 discriminator 1
 284 003c 102B     		cmp	r3, #16
 285 003e FADD     		ble	.L16
 188:Middlewares/Third_Party/LibJPEG/source/jcparam.c ****     ERREXIT(cinfo, JERR_BAD_HUFF_TABLE);
 286              		.loc 1 188 0 is_stmt 1
 287 0040 1446     		mov	r4, r2
 288              	.LVL30:
 289 0042 013A     		subs	r2, r2, #1
 290              	.LVL31:
 291 0044 FF2A     		cmp	r2, #255
 292 0046 06D9     		bls	.L17
 189:Middlewares/Third_Party/LibJPEG/source/jcparam.c **** 
 293              		.loc 1 189 0
 294 0048 3368     		ldr	r3, [r6]
ARM GAS  /tmp/ccCB0eLe.s 			page 16


 295              	.LVL32:
 296 004a 0922     		movs	r2, #9
 297 004c 5A61     		str	r2, [r3, #20]
 298 004e 3368     		ldr	r3, [r6]
 299 0050 1B68     		ldr	r3, [r3]
 300 0052 3046     		mov	r0, r6
 301 0054 9847     		blx	r3
 302              	.LVL33:
 303              	.L17:
 191:Middlewares/Third_Party/LibJPEG/source/jcparam.c **** 
 304              		.loc 1 191 0
 305 0056 2868     		ldr	r0, [r5]
 306 0058 2246     		mov	r2, r4
 307 005a 3946     		mov	r1, r7
 308 005c 1130     		adds	r0, r0, #17
 309 005e FFF7FEFF 		bl	memcpy
 310              	.LVL34:
 194:Middlewares/Third_Party/LibJPEG/source/jcparam.c **** }
 311              		.loc 1 194 0
 312 0062 2B68     		ldr	r3, [r5]
 313 0064 0022     		movs	r2, #0
 314 0066 C3F81421 		str	r2, [r3, #276]
 195:Middlewares/Third_Party/LibJPEG/source/jcparam.c **** 
 315              		.loc 1 195 0
 316 006a F8BD     		pop	{r3, r4, r5, r6, r7, pc}
 317              		.cfi_endproc
 318              	.LFE8:
 320              		.section	.text.std_huff_tables,"ax",%progbits
 321              		.align	1
 322              		.syntax unified
 323              		.thumb
 324              		.thumb_func
 325              		.fpu fpv5-sp-d16
 327              	std_huff_tables:
 328              	.LFB9:
 202:Middlewares/Third_Party/LibJPEG/source/jcparam.c ****   static const UINT8 bits_dc_luminance[17] =
 329              		.loc 1 202 0
 330              		.cfi_startproc
 331              		@ args = 0, pretend = 0, frame = 0
 332              		@ frame_needed = 0, uses_anonymous_args = 0
 333              	.LVL35:
 334 0000 10B5     		push	{r4, lr}
 335              	.LCFI9:
 336              		.cfi_def_cfa_offset 8
 337              		.cfi_offset 4, -8
 338              		.cfi_offset 14, -4
 339 0002 0446     		mov	r4, r0
 263:Middlewares/Third_Party/LibJPEG/source/jcparam.c **** 		 bits_dc_luminance, val_dc_luminance);
 340              		.loc 1 263 0
 341 0004 0D4B     		ldr	r3, .L22
 342 0006 0E4A     		ldr	r2, .L22+4
 343 0008 00F17801 		add	r1, r0, #120
 344 000c FFF7FEFF 		bl	add_huff_table
 345              	.LVL36:
 265:Middlewares/Third_Party/LibJPEG/source/jcparam.c **** 		 bits_ac_luminance, val_ac_luminance);
 346              		.loc 1 265 0
 347 0010 0C4B     		ldr	r3, .L22+8
ARM GAS  /tmp/ccCB0eLe.s 			page 17


 348 0012 0D4A     		ldr	r2, .L22+12
 349 0014 04F18801 		add	r1, r4, #136
 350 0018 2046     		mov	r0, r4
 351 001a FFF7FEFF 		bl	add_huff_table
 352              	.LVL37:
 267:Middlewares/Third_Party/LibJPEG/source/jcparam.c **** 		 bits_dc_chrominance, val_dc_chrominance);
 353              		.loc 1 267 0
 354 001e 0B4B     		ldr	r3, .L22+16
 355 0020 0B4A     		ldr	r2, .L22+20
 356 0022 04F17C01 		add	r1, r4, #124
 357 0026 2046     		mov	r0, r4
 358 0028 FFF7FEFF 		bl	add_huff_table
 359              	.LVL38:
 269:Middlewares/Third_Party/LibJPEG/source/jcparam.c **** 		 bits_ac_chrominance, val_ac_chrominance);
 360              		.loc 1 269 0
 361 002c 094B     		ldr	r3, .L22+24
 362 002e 0A4A     		ldr	r2, .L22+28
 363 0030 04F18C01 		add	r1, r4, #140
 364 0034 2046     		mov	r0, r4
 365 0036 FFF7FEFF 		bl	add_huff_table
 366              	.LVL39:
 271:Middlewares/Third_Party/LibJPEG/source/jcparam.c **** 
 367              		.loc 1 271 0
 368 003a 10BD     		pop	{r4, pc}
 369              	.LVL40:
 370              	.L23:
 371              		.align	2
 372              	.L22:
 373 003c 00000000 		.word	.LANCHOR0
 374 0040 00000000 		.word	.LANCHOR1
 375 0044 00000000 		.word	.LANCHOR2
 376 0048 00000000 		.word	.LANCHOR3
 377 004c 00000000 		.word	.LANCHOR4
 378 0050 00000000 		.word	.LANCHOR5
 379 0054 00000000 		.word	.LANCHOR6
 380 0058 00000000 		.word	.LANCHOR7
 381              		.cfi_endproc
 382              	.LFE9:
 384              		.section	.text.jpeg_add_quant_table,"ax",%progbits
 385              		.align	1
 386              		.global	jpeg_add_quant_table
 387              		.syntax unified
 388              		.thumb
 389              		.thumb_func
 390              		.fpu fpv5-sp-d16
 392              	jpeg_add_quant_table:
 393              	.LFB3:
  32:Middlewares/Third_Party/LibJPEG/source/jcparam.c ****   JQUANT_TBL ** qtblptr;
 394              		.loc 1 32 0
 395              		.cfi_startproc
 396              		@ args = 4, pretend = 0, frame = 0
 397              		@ frame_needed = 0, uses_anonymous_args = 0
 398              	.LVL41:
 399 0000 2DE9F041 		push	{r4, r5, r6, r7, r8, lr}
 400              	.LCFI10:
 401              		.cfi_def_cfa_offset 24
 402              		.cfi_offset 4, -24
ARM GAS  /tmp/ccCB0eLe.s 			page 18


 403              		.cfi_offset 5, -20
 404              		.cfi_offset 6, -16
 405              		.cfi_offset 7, -12
 406              		.cfi_offset 8, -8
 407              		.cfi_offset 14, -4
 408 0004 0446     		mov	r4, r0
 409 0006 0D46     		mov	r5, r1
 410 0008 1646     		mov	r6, r2
 411 000a 1F46     		mov	r7, r3
 412 000c DDF81880 		ldr	r8, [sp, #24]
  38:Middlewares/Third_Party/LibJPEG/source/jcparam.c ****     ERREXIT1(cinfo, JERR_BAD_STATE, cinfo->global_state);
 413              		.loc 1 38 0
 414 0010 4369     		ldr	r3, [r0, #20]
 415              	.LVL42:
 416 0012 642B     		cmp	r3, #100
 417 0014 08D0     		beq	.L25
  39:Middlewares/Third_Party/LibJPEG/source/jcparam.c **** 
 418              		.loc 1 39 0
 419 0016 0368     		ldr	r3, [r0]
 420 0018 1522     		movs	r2, #21
 421              	.LVL43:
 422 001a 5A61     		str	r2, [r3, #20]
 423 001c 0368     		ldr	r3, [r0]
 424 001e 4269     		ldr	r2, [r0, #20]
 425 0020 9A61     		str	r2, [r3, #24]
 426 0022 0368     		ldr	r3, [r0]
 427 0024 1B68     		ldr	r3, [r3]
 428 0026 9847     		blx	r3
 429              	.LVL44:
 430              	.L25:
  41:Middlewares/Third_Party/LibJPEG/source/jcparam.c ****     ERREXIT1(cinfo, JERR_DQT_INDEX, which_tbl);
 431              		.loc 1 41 0
 432 0028 032D     		cmp	r5, #3
 433 002a 08D9     		bls	.L26
  42:Middlewares/Third_Party/LibJPEG/source/jcparam.c **** 
 434              		.loc 1 42 0
 435 002c 2368     		ldr	r3, [r4]
 436 002e 2022     		movs	r2, #32
 437 0030 5A61     		str	r2, [r3, #20]
 438 0032 2368     		ldr	r3, [r4]
 439 0034 9D61     		str	r5, [r3, #24]
 440 0036 2368     		ldr	r3, [r4]
 441 0038 1B68     		ldr	r3, [r3]
 442 003a 2046     		mov	r0, r4
 443 003c 9847     		blx	r3
 444              	.LVL45:
 445              	.L26:
  46:Middlewares/Third_Party/LibJPEG/source/jcparam.c ****     *qtblptr = jpeg_alloc_quant_table((j_common_ptr) cinfo);
 446              		.loc 1 46 0
 447 003e 05F11603 		add	r3, r5, #22
 448 0042 54F82330 		ldr	r3, [r4, r3, lsl #2]
 449 0046 0BB1     		cbz	r3, .L36
 450              	.L27:
  55:Middlewares/Third_Party/LibJPEG/source/jcparam.c ****     (*qtblptr)->quantval[i] = (UINT16) temp;
 451              		.loc 1 55 0 discriminator 1
 452 0048 0021     		movs	r1, #0
 453 004a 19E0     		b	.L30
ARM GAS  /tmp/ccCB0eLe.s 			page 19


 454              	.L36:
  47:Middlewares/Third_Party/LibJPEG/source/jcparam.c **** 
 455              		.loc 1 47 0
 456 004c 2046     		mov	r0, r4
 457 004e FFF7FEFF 		bl	jpeg_alloc_quant_table
 458              	.LVL46:
 459 0052 05F11603 		add	r3, r5, #22
 460 0056 44F82300 		str	r0, [r4, r3, lsl #2]
 461 005a F5E7     		b	.L27
 462              	.LVL47:
 463              	.L32:
  52:Middlewares/Third_Party/LibJPEG/source/jcparam.c ****     if (temp > 32767L) temp = 32767L; /* max quantizer needed for 12 bits */
 464              		.loc 1 52 0
 465 005c 0123     		movs	r3, #1
 466              	.LVL48:
 467              	.L28:
  54:Middlewares/Third_Party/LibJPEG/source/jcparam.c ****       temp = 255L;		/* limit to baseline range if requested */
 468              		.loc 1 54 0
 469 005e FF2B     		cmp	r3, #255
 470 0060 D4BF     		ite	le
 471 0062 0022     		movle	r2, #0
 472 0064 0122     		movgt	r2, #1
 473 0066 B8F1000F 		cmp	r8, #0
 474 006a 08BF     		it	eq
 475 006c 0022     		moveq	r2, #0
 476 006e 02B1     		cbz	r2, .L29
  55:Middlewares/Third_Party/LibJPEG/source/jcparam.c ****     (*qtblptr)->quantval[i] = (UINT16) temp;
 477              		.loc 1 55 0
 478 0070 FF23     		movs	r3, #255
 479              	.LVL49:
 480              	.L29:
  56:Middlewares/Third_Party/LibJPEG/source/jcparam.c ****   }
 481              		.loc 1 56 0 discriminator 2
 482 0072 05F11602 		add	r2, r5, #22
 483 0076 54F82220 		ldr	r2, [r4, r2, lsl #2]
 484 007a 22F81130 		strh	r3, [r2, r1, lsl #1]	@ movhi
  49:Middlewares/Third_Party/LibJPEG/source/jcparam.c ****     temp = ((long) basic_table[i] * scale_factor + 50L) / 100L;
 485              		.loc 1 49 0 discriminator 2
 486 007e 0131     		adds	r1, r1, #1
 487              	.LVL50:
 488              	.L30:
  49:Middlewares/Third_Party/LibJPEG/source/jcparam.c ****     temp = ((long) basic_table[i] * scale_factor + 50L) / 100L;
 489              		.loc 1 49 0 is_stmt 0 discriminator 1
 490 0080 3F29     		cmp	r1, #63
 491 0082 12DC     		bgt	.L37
  50:Middlewares/Third_Party/LibJPEG/source/jcparam.c ****     /* limit the values to the valid range */
 492              		.loc 1 50 0 is_stmt 1
 493 0084 56F82120 		ldr	r2, [r6, r1, lsl #2]
 494 0088 07FB02F2 		mul	r2, r7, r2
 495 008c 3232     		adds	r2, r2, #50
 496 008e 0B48     		ldr	r0, .L38
 497 0090 80FB0230 		smull	r3, r0, r0, r2
 498 0094 D317     		asrs	r3, r2, #31
 499 0096 C3EB6013 		rsb	r3, r3, r0, asr #5
 500              	.LVL51:
  52:Middlewares/Third_Party/LibJPEG/source/jcparam.c ****     if (temp > 32767L) temp = 32767L; /* max quantizer needed for 12 bits */
 501              		.loc 1 52 0
ARM GAS  /tmp/ccCB0eLe.s 			page 20


 502 009a 002B     		cmp	r3, #0
 503 009c DEDD     		ble	.L32
  53:Middlewares/Third_Party/LibJPEG/source/jcparam.c ****     if (force_baseline && temp > 255L)
 504              		.loc 1 53 0
 505 009e B3F5004F 		cmp	r3, #32768
 506 00a2 DCDB     		blt	.L28
 507 00a4 47F6FF73 		movw	r3, #32767
 508              	.LVL52:
 509 00a8 D9E7     		b	.L28
 510              	.LVL53:
 511              	.L37:
  60:Middlewares/Third_Party/LibJPEG/source/jcparam.c **** }
 512              		.loc 1 60 0
 513 00aa 1635     		adds	r5, r5, #22
 514              	.LVL54:
 515 00ac 54F82530 		ldr	r3, [r4, r5, lsl #2]
 516 00b0 0022     		movs	r2, #0
 517 00b2 C3F88020 		str	r2, [r3, #128]
  61:Middlewares/Third_Party/LibJPEG/source/jcparam.c **** 
 518              		.loc 1 61 0
 519 00b6 BDE8F081 		pop	{r4, r5, r6, r7, r8, pc}
 520              	.LVL55:
 521              	.L39:
 522 00ba 00BF     		.align	2
 523              	.L38:
 524 00bc 1F85EB51 		.word	1374389535
 525              		.cfi_endproc
 526              	.LFE3:
 528              		.section	.text.jpeg_default_qtables,"ax",%progbits
 529              		.align	1
 530              		.global	jpeg_default_qtables
 531              		.syntax unified
 532              		.thumb
 533              		.thumb_func
 534              		.fpu fpv5-sp-d16
 536              	jpeg_default_qtables:
 537              	.LFB4:
  96:Middlewares/Third_Party/LibJPEG/source/jcparam.c ****   /* Set up two quantization tables using the specified scaling */
 538              		.loc 1 96 0
 539              		.cfi_startproc
 540              		@ args = 0, pretend = 0, frame = 0
 541              		@ frame_needed = 0, uses_anonymous_args = 0
 542              	.LVL56:
 543 0000 30B5     		push	{r4, r5, lr}
 544              	.LCFI11:
 545              		.cfi_def_cfa_offset 12
 546              		.cfi_offset 4, -12
 547              		.cfi_offset 5, -8
 548              		.cfi_offset 14, -4
 549 0002 83B0     		sub	sp, sp, #12
 550              	.LCFI12:
 551              		.cfi_def_cfa_offset 24
 552 0004 0446     		mov	r4, r0
 553 0006 0D46     		mov	r5, r1
  98:Middlewares/Third_Party/LibJPEG/source/jcparam.c **** 		       cinfo->q_scale_factor[0], force_baseline);
 554              		.loc 1 98 0
 555 0008 0091     		str	r1, [sp]
ARM GAS  /tmp/ccCB0eLe.s 			page 21


 556 000a 836E     		ldr	r3, [r0, #104]
 557 000c 064A     		ldr	r2, .L42
 558 000e 0021     		movs	r1, #0
 559              	.LVL57:
 560 0010 FFF7FEFF 		bl	jpeg_add_quant_table
 561              	.LVL58:
 100:Middlewares/Third_Party/LibJPEG/source/jcparam.c **** 		       cinfo->q_scale_factor[1], force_baseline);
 562              		.loc 1 100 0
 563 0014 0095     		str	r5, [sp]
 564 0016 E36E     		ldr	r3, [r4, #108]
 565 0018 044A     		ldr	r2, .L42+4
 566 001a 0121     		movs	r1, #1
 567 001c 2046     		mov	r0, r4
 568 001e FFF7FEFF 		bl	jpeg_add_quant_table
 569              	.LVL59:
 102:Middlewares/Third_Party/LibJPEG/source/jcparam.c **** 
 570              		.loc 1 102 0
 571 0022 03B0     		add	sp, sp, #12
 572              	.LCFI13:
 573              		.cfi_def_cfa_offset 12
 574              		@ sp needed
 575 0024 30BD     		pop	{r4, r5, pc}
 576              	.LVL60:
 577              	.L43:
 578 0026 00BF     		.align	2
 579              	.L42:
 580 0028 00000000 		.word	.LANCHOR8
 581 002c 00000000 		.word	.LANCHOR9
 582              		.cfi_endproc
 583              	.LFE4:
 585              		.section	.text.jpeg_set_linear_quality,"ax",%progbits
 586              		.align	1
 587              		.global	jpeg_set_linear_quality
 588              		.syntax unified
 589              		.thumb
 590              		.thumb_func
 591              		.fpu fpv5-sp-d16
 593              	jpeg_set_linear_quality:
 594              	.LFB5:
 113:Middlewares/Third_Party/LibJPEG/source/jcparam.c ****   /* Set up two quantization tables using the specified scaling */
 595              		.loc 1 113 0
 596              		.cfi_startproc
 597              		@ args = 0, pretend = 0, frame = 0
 598              		@ frame_needed = 0, uses_anonymous_args = 0
 599              	.LVL61:
 600 0000 70B5     		push	{r4, r5, r6, lr}
 601              	.LCFI14:
 602              		.cfi_def_cfa_offset 16
 603              		.cfi_offset 4, -16
 604              		.cfi_offset 5, -12
 605              		.cfi_offset 6, -8
 606              		.cfi_offset 14, -4
 607 0002 82B0     		sub	sp, sp, #8
 608              	.LCFI15:
 609              		.cfi_def_cfa_offset 24
 610 0004 0646     		mov	r6, r0
 611 0006 0C46     		mov	r4, r1
ARM GAS  /tmp/ccCB0eLe.s 			page 22


 612 0008 1546     		mov	r5, r2
 115:Middlewares/Third_Party/LibJPEG/source/jcparam.c **** 		       scale_factor, force_baseline);
 613              		.loc 1 115 0
 614 000a 0092     		str	r2, [sp]
 615 000c 0B46     		mov	r3, r1
 616 000e 064A     		ldr	r2, .L46
 617              	.LVL62:
 618 0010 0021     		movs	r1, #0
 619              	.LVL63:
 620 0012 FFF7FEFF 		bl	jpeg_add_quant_table
 621              	.LVL64:
 117:Middlewares/Third_Party/LibJPEG/source/jcparam.c **** 		       scale_factor, force_baseline);
 622              		.loc 1 117 0
 623 0016 0095     		str	r5, [sp]
 624 0018 2346     		mov	r3, r4
 625 001a 044A     		ldr	r2, .L46+4
 626 001c 0121     		movs	r1, #1
 627 001e 3046     		mov	r0, r6
 628 0020 FFF7FEFF 		bl	jpeg_add_quant_table
 629              	.LVL65:
 119:Middlewares/Third_Party/LibJPEG/source/jcparam.c **** 
 630              		.loc 1 119 0
 631 0024 02B0     		add	sp, sp, #8
 632              	.LCFI16:
 633              		.cfi_def_cfa_offset 16
 634              		@ sp needed
 635 0026 70BD     		pop	{r4, r5, r6, pc}
 636              	.LVL66:
 637              	.L47:
 638              		.align	2
 639              	.L46:
 640 0028 00000000 		.word	.LANCHOR8
 641 002c 00000000 		.word	.LANCHOR9
 642              		.cfi_endproc
 643              	.LFE5:
 645              		.section	.text.jpeg_quality_scaling,"ax",%progbits
 646              		.align	1
 647              		.global	jpeg_quality_scaling
 648              		.syntax unified
 649              		.thumb
 650              		.thumb_func
 651              		.fpu fpv5-sp-d16
 653              	jpeg_quality_scaling:
 654              	.LFB6:
 128:Middlewares/Third_Party/LibJPEG/source/jcparam.c ****   /* Safety limit on quality factor.  Convert 0 to 1 to avoid zero divide. */
 655              		.loc 1 128 0
 656              		.cfi_startproc
 657              		@ args = 0, pretend = 0, frame = 0
 658              		@ frame_needed = 0, uses_anonymous_args = 0
 659              		@ link register save eliminated.
 660              	.LVL67:
 130:Middlewares/Third_Party/LibJPEG/source/jcparam.c ****   if (quality > 100) quality = 100;
 661              		.loc 1 130 0
 662 0000 0028     		cmp	r0, #0
 663 0002 03DD     		ble	.L52
 131:Middlewares/Third_Party/LibJPEG/source/jcparam.c **** 
 664              		.loc 1 131 0
ARM GAS  /tmp/ccCB0eLe.s 			page 23


 665 0004 6428     		cmp	r0, #100
 666 0006 02DD     		ble	.L49
 667 0008 6420     		movs	r0, #100
 668              	.LVL68:
 669 000a 02E0     		b	.L50
 670              	.LVL69:
 671              	.L52:
 130:Middlewares/Third_Party/LibJPEG/source/jcparam.c ****   if (quality > 100) quality = 100;
 672              		.loc 1 130 0
 673 000c 0120     		movs	r0, #1
 674              	.LVL70:
 675              	.L49:
 139:Middlewares/Third_Party/LibJPEG/source/jcparam.c ****     quality = 5000 / quality;
 676              		.loc 1 139 0
 677 000e 3128     		cmp	r0, #49
 678 0010 03DD     		ble	.L54
 679              	.LVL71:
 680              	.L50:
 142:Middlewares/Third_Party/LibJPEG/source/jcparam.c **** 
 681              		.loc 1 142 0
 682 0012 C0F16400 		rsb	r0, r0, #100
 683 0016 4000     		lsls	r0, r0, #1
 684              	.LVL72:
 145:Middlewares/Third_Party/LibJPEG/source/jcparam.c **** 
 685              		.loc 1 145 0
 686 0018 7047     		bx	lr
 687              	.L54:
 140:Middlewares/Third_Party/LibJPEG/source/jcparam.c ****   else
 688              		.loc 1 140 0
 689 001a 41F28833 		movw	r3, #5000
 690 001e 93FBF0F0 		sdiv	r0, r3, r0
 691              	.LVL73:
 692 0022 7047     		bx	lr
 693              		.cfi_endproc
 694              	.LFE6:
 696              		.section	.text.jpeg_set_quality,"ax",%progbits
 697              		.align	1
 698              		.global	jpeg_set_quality
 699              		.syntax unified
 700              		.thumb
 701              		.thumb_func
 702              		.fpu fpv5-sp-d16
 704              	jpeg_set_quality:
 705              	.LFB7:
 155:Middlewares/Third_Party/LibJPEG/source/jcparam.c ****   /* Convert user 0-100 rating to percentage scaling */
 706              		.loc 1 155 0
 707              		.cfi_startproc
 708              		@ args = 0, pretend = 0, frame = 0
 709              		@ frame_needed = 0, uses_anonymous_args = 0
 710              	.LVL74:
 711 0000 38B5     		push	{r3, r4, r5, lr}
 712              	.LCFI17:
 713              		.cfi_def_cfa_offset 16
 714              		.cfi_offset 3, -16
 715              		.cfi_offset 4, -12
 716              		.cfi_offset 5, -8
 717              		.cfi_offset 14, -4
ARM GAS  /tmp/ccCB0eLe.s 			page 24


 718 0002 0446     		mov	r4, r0
 719 0004 1546     		mov	r5, r2
 157:Middlewares/Third_Party/LibJPEG/source/jcparam.c **** 
 720              		.loc 1 157 0
 721 0006 0846     		mov	r0, r1
 722              	.LVL75:
 723 0008 FFF7FEFF 		bl	jpeg_quality_scaling
 724              	.LVL76:
 160:Middlewares/Third_Party/LibJPEG/source/jcparam.c **** }
 725              		.loc 1 160 0
 726 000c 2A46     		mov	r2, r5
 727 000e 0146     		mov	r1, r0
 728 0010 2046     		mov	r0, r4
 729              	.LVL77:
 730 0012 FFF7FEFF 		bl	jpeg_set_linear_quality
 731              	.LVL78:
 161:Middlewares/Third_Party/LibJPEG/source/jcparam.c **** 
 732              		.loc 1 161 0
 733 0016 38BD     		pop	{r3, r4, r5, pc}
 734              		.cfi_endproc
 735              	.LFE7:
 737              		.section	.text.jpeg_set_colorspace,"ax",%progbits
 738              		.align	1
 739              		.global	jpeg_set_colorspace
 740              		.syntax unified
 741              		.thumb
 742              		.thumb_func
 743              		.fpu fpv5-sp-d16
 745              	jpeg_set_colorspace:
 746              	.LFB12:
 414:Middlewares/Third_Party/LibJPEG/source/jcparam.c ****   jpeg_component_info * compptr;
 747              		.loc 1 414 0
 748              		.cfi_startproc
 749              		@ args = 0, pretend = 0, frame = 0
 750              		@ frame_needed = 0, uses_anonymous_args = 0
 751              	.LVL79:
 752 0000 70B5     		push	{r4, r5, r6, lr}
 753              	.LCFI18:
 754              		.cfi_def_cfa_offset 16
 755              		.cfi_offset 4, -16
 756              		.cfi_offset 5, -12
 757              		.cfi_offset 6, -8
 758              		.cfi_offset 14, -4
 759 0002 0446     		mov	r4, r0
 760 0004 0D46     		mov	r5, r1
 428:Middlewares/Third_Party/LibJPEG/source/jcparam.c ****     ERREXIT1(cinfo, JERR_BAD_STATE, cinfo->global_state);
 761              		.loc 1 428 0
 762 0006 4369     		ldr	r3, [r0, #20]
 763 0008 642B     		cmp	r3, #100
 764 000a 08D0     		beq	.L58
 429:Middlewares/Third_Party/LibJPEG/source/jcparam.c **** 
 765              		.loc 1 429 0
 766 000c 0368     		ldr	r3, [r0]
 767 000e 1522     		movs	r2, #21
 768 0010 5A61     		str	r2, [r3, #20]
 769 0012 0368     		ldr	r3, [r0]
 770 0014 4269     		ldr	r2, [r0, #20]
ARM GAS  /tmp/ccCB0eLe.s 			page 25


 771 0016 9A61     		str	r2, [r3, #24]
 772 0018 0368     		ldr	r3, [r0]
 773 001a 1B68     		ldr	r3, [r3]
 774 001c 9847     		blx	r3
 775              	.LVL80:
 776              	.L58:
 435:Middlewares/Third_Party/LibJPEG/source/jcparam.c **** 
 777              		.loc 1 435 0
 778 001e 84F85050 		strb	r5, [r4, #80]
 437:Middlewares/Third_Party/LibJPEG/source/jcparam.c ****   cinfo->write_Adobe_marker = FALSE; /* write no Adobe marker by default */
 779              		.loc 1 437 0
 780 0022 0023     		movs	r3, #0
 781 0024 C4F8F430 		str	r3, [r4, #244]
 438:Middlewares/Third_Party/LibJPEG/source/jcparam.c **** 
 782              		.loc 1 438 0
 783 0028 C4F80031 		str	r3, [r4, #256]
 440:Middlewares/Third_Party/LibJPEG/source/jcparam.c ****   case JCS_GRAYSCALE:
 784              		.loc 1 440 0
 785 002c 052D     		cmp	r5, #5
 786 002e 00F2E780 		bhi	.L59
 787 0032 DFE815F0 		tbh	[pc, r5, lsl #1]
 788              	.L61:
 789 0036 BF00     		.2byte	(.L60-.L61)/2
 790 0038 0600     		.2byte	(.L62-.L61)/2
 791 003a 1300     		.2byte	(.L63-.L61)/2
 792 003c 3800     		.2byte	(.L64-.L61)/2
 793 003e 5B00     		.2byte	(.L65-.L61)/2
 794 0040 8E00     		.2byte	(.L66-.L61)/2
 795              		.p2align 1
 796              	.L62:
 442:Middlewares/Third_Party/LibJPEG/source/jcparam.c ****     cinfo->num_components = 1;
 797              		.loc 1 442 0
 798 0042 0122     		movs	r2, #1
 799 0044 C4F8F420 		str	r2, [r4, #244]
 443:Middlewares/Third_Party/LibJPEG/source/jcparam.c ****     /* JFIF specifies component ID 1 */
 800              		.loc 1 443 0
 801 0048 E264     		str	r2, [r4, #76]
 445:Middlewares/Third_Party/LibJPEG/source/jcparam.c ****     break;
 802              		.loc 1 445 0
 803 004a 636D     		ldr	r3, [r4, #84]
 804              	.LVL81:
 805 004c 1A60     		str	r2, [r3]
 806 004e 9A60     		str	r2, [r3, #8]
 807 0050 DA60     		str	r2, [r3, #12]
 808 0052 0022     		movs	r2, #0
 809 0054 1A61     		str	r2, [r3, #16]
 810 0056 5A61     		str	r2, [r3, #20]
 811 0058 9A61     		str	r2, [r3, #24]
 812              	.LVL82:
 813              	.L57:
 491:Middlewares/Third_Party/LibJPEG/source/jcparam.c **** 
 814              		.loc 1 491 0
 815 005a 70BD     		pop	{r4, r5, r6, pc}
 816              	.LVL83:
 817              	.L63:
 448:Middlewares/Third_Party/LibJPEG/source/jcparam.c ****     cinfo->num_components = 3;
 818              		.loc 1 448 0
ARM GAS  /tmp/ccCB0eLe.s 			page 26


 819 005c 0122     		movs	r2, #1
 820 005e C4F80021 		str	r2, [r4, #256]
 449:Middlewares/Third_Party/LibJPEG/source/jcparam.c ****     SET_COMP(0, 0x52 /* 'R' */, 1,1, 0, 0,0);
 821              		.loc 1 449 0
 822 0062 0323     		movs	r3, #3
 823 0064 E364     		str	r3, [r4, #76]
 450:Middlewares/Third_Party/LibJPEG/source/jcparam.c ****     SET_COMP(1, 0x47 /* 'G' */, 1,1, 0, 0,0);
 824              		.loc 1 450 0
 825 0066 616D     		ldr	r1, [r4, #84]
 826              	.LVL84:
 827 0068 5223     		movs	r3, #82
 828 006a 0B60     		str	r3, [r1]
 829 006c 8A60     		str	r2, [r1, #8]
 830 006e CA60     		str	r2, [r1, #12]
 831 0070 0023     		movs	r3, #0
 832 0072 0B61     		str	r3, [r1, #16]
 833 0074 4B61     		str	r3, [r1, #20]
 834 0076 8B61     		str	r3, [r1, #24]
 451:Middlewares/Third_Party/LibJPEG/source/jcparam.c ****     SET_COMP(2, 0x42 /* 'B' */, 1,1, 0, 0,0);
 835              		.loc 1 451 0
 836 0078 616D     		ldr	r1, [r4, #84]
 837              	.LVL85:
 838 007a 4720     		movs	r0, #71
 839 007c 8865     		str	r0, [r1, #88]
 840 007e 0A66     		str	r2, [r1, #96]
 841 0080 4A66     		str	r2, [r1, #100]
 842 0082 8B66     		str	r3, [r1, #104]
 843 0084 CB66     		str	r3, [r1, #108]
 844 0086 0B67     		str	r3, [r1, #112]
 452:Middlewares/Third_Party/LibJPEG/source/jcparam.c ****     break;
 845              		.loc 1 452 0
 846 0088 616D     		ldr	r1, [r4, #84]
 847              	.LVL86:
 848 008a 4220     		movs	r0, #66
 849 008c C1F8B000 		str	r0, [r1, #176]
 850 0090 C1F8B820 		str	r2, [r1, #184]
 851 0094 C1F8BC20 		str	r2, [r1, #188]
 852 0098 C1F8C030 		str	r3, [r1, #192]
 853 009c C1F8C430 		str	r3, [r1, #196]
 854 00a0 C1F8C830 		str	r3, [r1, #200]
 453:Middlewares/Third_Party/LibJPEG/source/jcparam.c ****   case JCS_YCbCr:
 855              		.loc 1 453 0
 856 00a4 D9E7     		b	.L57
 857              	.LVL87:
 858              	.L64:
 455:Middlewares/Third_Party/LibJPEG/source/jcparam.c ****     cinfo->num_components = 3;
 859              		.loc 1 455 0
 860 00a6 0123     		movs	r3, #1
 861 00a8 C4F8F430 		str	r3, [r4, #244]
 456:Middlewares/Third_Party/LibJPEG/source/jcparam.c ****     /* JFIF specifies component IDs 1,2,3 */
 862              		.loc 1 456 0
 863 00ac 0325     		movs	r5, #3
 864 00ae E564     		str	r5, [r4, #76]
 459:Middlewares/Third_Party/LibJPEG/source/jcparam.c ****     SET_COMP(1, 2, 1,1, 1, 1,1);
 865              		.loc 1 459 0
 866 00b0 626D     		ldr	r2, [r4, #84]
 867              	.LVL88:
ARM GAS  /tmp/ccCB0eLe.s 			page 27


 868 00b2 1360     		str	r3, [r2]
 869 00b4 0221     		movs	r1, #2
 870 00b6 9160     		str	r1, [r2, #8]
 871 00b8 D160     		str	r1, [r2, #12]
 872 00ba 0020     		movs	r0, #0
 873 00bc 1061     		str	r0, [r2, #16]
 874 00be 5061     		str	r0, [r2, #20]
 875 00c0 9061     		str	r0, [r2, #24]
 460:Middlewares/Third_Party/LibJPEG/source/jcparam.c ****     SET_COMP(2, 3, 1,1, 1, 1,1);
 876              		.loc 1 460 0
 877 00c2 626D     		ldr	r2, [r4, #84]
 878              	.LVL89:
 879 00c4 9165     		str	r1, [r2, #88]
 880 00c6 1366     		str	r3, [r2, #96]
 881 00c8 5366     		str	r3, [r2, #100]
 882 00ca 9366     		str	r3, [r2, #104]
 883 00cc D366     		str	r3, [r2, #108]
 884 00ce 1367     		str	r3, [r2, #112]
 461:Middlewares/Third_Party/LibJPEG/source/jcparam.c ****     break;
 885              		.loc 1 461 0
 886 00d0 626D     		ldr	r2, [r4, #84]
 887              	.LVL90:
 888 00d2 C2F8B050 		str	r5, [r2, #176]
 889 00d6 C2F8B830 		str	r3, [r2, #184]
 890 00da C2F8BC30 		str	r3, [r2, #188]
 891 00de C2F8C030 		str	r3, [r2, #192]
 892 00e2 C2F8C430 		str	r3, [r2, #196]
 893 00e6 C2F8C830 		str	r3, [r2, #200]
 462:Middlewares/Third_Party/LibJPEG/source/jcparam.c ****   case JCS_CMYK:
 894              		.loc 1 462 0
 895 00ea B6E7     		b	.L57
 896              	.LVL91:
 897              	.L65:
 464:Middlewares/Third_Party/LibJPEG/source/jcparam.c ****     cinfo->num_components = 4;
 898              		.loc 1 464 0
 899 00ec 0122     		movs	r2, #1
 900 00ee C4F80021 		str	r2, [r4, #256]
 465:Middlewares/Third_Party/LibJPEG/source/jcparam.c ****     SET_COMP(0, 0x43 /* 'C' */, 1,1, 0, 0,0);
 901              		.loc 1 465 0
 902 00f2 0423     		movs	r3, #4
 903 00f4 E364     		str	r3, [r4, #76]
 466:Middlewares/Third_Party/LibJPEG/source/jcparam.c ****     SET_COMP(1, 0x4D /* 'M' */, 1,1, 0, 0,0);
 904              		.loc 1 466 0
 905 00f6 616D     		ldr	r1, [r4, #84]
 906              	.LVL92:
 907 00f8 4323     		movs	r3, #67
 908 00fa 0B60     		str	r3, [r1]
 909 00fc 8A60     		str	r2, [r1, #8]
 910 00fe CA60     		str	r2, [r1, #12]
 911 0100 0023     		movs	r3, #0
 912 0102 0B61     		str	r3, [r1, #16]
 913 0104 4B61     		str	r3, [r1, #20]
 914 0106 8B61     		str	r3, [r1, #24]
 467:Middlewares/Third_Party/LibJPEG/source/jcparam.c ****     SET_COMP(2, 0x59 /* 'Y' */, 1,1, 0, 0,0);
 915              		.loc 1 467 0
 916 0108 616D     		ldr	r1, [r4, #84]
 917              	.LVL93:
ARM GAS  /tmp/ccCB0eLe.s 			page 28


 918 010a 4D20     		movs	r0, #77
 919 010c 8865     		str	r0, [r1, #88]
 920 010e 0A66     		str	r2, [r1, #96]
 921 0110 4A66     		str	r2, [r1, #100]
 922 0112 8B66     		str	r3, [r1, #104]
 923 0114 CB66     		str	r3, [r1, #108]
 924 0116 0B67     		str	r3, [r1, #112]
 468:Middlewares/Third_Party/LibJPEG/source/jcparam.c ****     SET_COMP(3, 0x4B /* 'K' */, 1,1, 0, 0,0);
 925              		.loc 1 468 0
 926 0118 616D     		ldr	r1, [r4, #84]
 927              	.LVL94:
 928 011a 5920     		movs	r0, #89
 929 011c C1F8B000 		str	r0, [r1, #176]
 930 0120 C1F8B820 		str	r2, [r1, #184]
 931 0124 C1F8BC20 		str	r2, [r1, #188]
 932 0128 C1F8C030 		str	r3, [r1, #192]
 933 012c C1F8C430 		str	r3, [r1, #196]
 934 0130 C1F8C830 		str	r3, [r1, #200]
 469:Middlewares/Third_Party/LibJPEG/source/jcparam.c ****     break;
 935              		.loc 1 469 0
 936 0134 616D     		ldr	r1, [r4, #84]
 937              	.LVL95:
 938 0136 4B20     		movs	r0, #75
 939 0138 C1F80801 		str	r0, [r1, #264]
 940 013c C1F81021 		str	r2, [r1, #272]
 941 0140 C1F81421 		str	r2, [r1, #276]
 942 0144 C1F81831 		str	r3, [r1, #280]
 943 0148 C1F81C31 		str	r3, [r1, #284]
 944 014c C1F82031 		str	r3, [r1, #288]
 470:Middlewares/Third_Party/LibJPEG/source/jcparam.c ****   case JCS_YCCK:
 945              		.loc 1 470 0
 946 0150 83E7     		b	.L57
 947              	.LVL96:
 948              	.L66:
 472:Middlewares/Third_Party/LibJPEG/source/jcparam.c ****     cinfo->num_components = 4;
 949              		.loc 1 472 0
 950 0152 0123     		movs	r3, #1
 951 0154 C4F80031 		str	r3, [r4, #256]
 473:Middlewares/Third_Party/LibJPEG/source/jcparam.c ****     SET_COMP(0, 1, 2,2, 0, 0,0);
 952              		.loc 1 473 0
 953 0158 0425     		movs	r5, #4
 954 015a E564     		str	r5, [r4, #76]
 474:Middlewares/Third_Party/LibJPEG/source/jcparam.c ****     SET_COMP(1, 2, 1,1, 1, 1,1);
 955              		.loc 1 474 0
 956 015c 616D     		ldr	r1, [r4, #84]
 957              	.LVL97:
 958 015e 0B60     		str	r3, [r1]
 959 0160 0220     		movs	r0, #2
 960 0162 8860     		str	r0, [r1, #8]
 961 0164 C860     		str	r0, [r1, #12]
 962 0166 0022     		movs	r2, #0
 963 0168 0A61     		str	r2, [r1, #16]
 964 016a 4A61     		str	r2, [r1, #20]
 965 016c 8A61     		str	r2, [r1, #24]
 475:Middlewares/Third_Party/LibJPEG/source/jcparam.c ****     SET_COMP(2, 3, 1,1, 1, 1,1);
 966              		.loc 1 475 0
 967 016e 616D     		ldr	r1, [r4, #84]
ARM GAS  /tmp/ccCB0eLe.s 			page 29


 968              	.LVL98:
 969 0170 8865     		str	r0, [r1, #88]
 970 0172 0B66     		str	r3, [r1, #96]
 971 0174 4B66     		str	r3, [r1, #100]
 972 0176 8B66     		str	r3, [r1, #104]
 973 0178 CB66     		str	r3, [r1, #108]
 974 017a 0B67     		str	r3, [r1, #112]
 476:Middlewares/Third_Party/LibJPEG/source/jcparam.c ****     SET_COMP(3, 4, 2,2, 0, 0,0);
 975              		.loc 1 476 0
 976 017c 616D     		ldr	r1, [r4, #84]
 977              	.LVL99:
 978 017e 0326     		movs	r6, #3
 979 0180 C1F8B060 		str	r6, [r1, #176]
 980 0184 C1F8B830 		str	r3, [r1, #184]
 981 0188 C1F8BC30 		str	r3, [r1, #188]
 982 018c C1F8C030 		str	r3, [r1, #192]
 983 0190 C1F8C430 		str	r3, [r1, #196]
 984 0194 C1F8C830 		str	r3, [r1, #200]
 477:Middlewares/Third_Party/LibJPEG/source/jcparam.c ****     break;
 985              		.loc 1 477 0
 986 0198 636D     		ldr	r3, [r4, #84]
 987              	.LVL100:
 988 019a C3F80851 		str	r5, [r3, #264]
 989 019e C3F81001 		str	r0, [r3, #272]
 990 01a2 C3F81401 		str	r0, [r3, #276]
 991 01a6 C3F81821 		str	r2, [r3, #280]
 992 01aa C3F81C21 		str	r2, [r3, #284]
 993 01ae C3F82021 		str	r2, [r3, #288]
 478:Middlewares/Third_Party/LibJPEG/source/jcparam.c ****   case JCS_UNKNOWN:
 994              		.loc 1 478 0
 995 01b2 52E7     		b	.L57
 996              	.LVL101:
 997              	.L60:
 480:Middlewares/Third_Party/LibJPEG/source/jcparam.c ****     if (cinfo->num_components < 1 || cinfo->num_components > MAX_COMPONENTS)
 998              		.loc 1 480 0
 999 01b4 636A     		ldr	r3, [r4, #36]
 1000 01b6 E364     		str	r3, [r4, #76]
 481:Middlewares/Third_Party/LibJPEG/source/jcparam.c ****       ERREXIT2(cinfo, JERR_COMPONENT_COUNT, cinfo->num_components,
 1001              		.loc 1 481 0
 1002 01b8 013B     		subs	r3, r3, #1
 1003 01ba 092B     		cmp	r3, #9
 1004 01bc 0CD9     		bls	.L68
 482:Middlewares/Third_Party/LibJPEG/source/jcparam.c **** 	       MAX_COMPONENTS);
 1005              		.loc 1 482 0
 1006 01be 2368     		ldr	r3, [r4]
 1007 01c0 1B22     		movs	r2, #27
 1008 01c2 5A61     		str	r2, [r3, #20]
 1009 01c4 2368     		ldr	r3, [r4]
 1010 01c6 E26C     		ldr	r2, [r4, #76]
 1011 01c8 9A61     		str	r2, [r3, #24]
 1012 01ca 2368     		ldr	r3, [r4]
 1013 01cc 0A22     		movs	r2, #10
 1014 01ce DA61     		str	r2, [r3, #28]
 1015 01d0 2368     		ldr	r3, [r4]
 1016 01d2 1B68     		ldr	r3, [r3]
 1017 01d4 2046     		mov	r0, r4
 1018 01d6 9847     		blx	r3
ARM GAS  /tmp/ccCB0eLe.s 			page 30


 1019              	.LVL102:
 1020              	.L68:
 414:Middlewares/Third_Party/LibJPEG/source/jcparam.c ****   jpeg_component_info * compptr;
 1021              		.loc 1 414 0 discriminator 1
 1022 01d8 0022     		movs	r2, #0
 1023 01da 0DE0     		b	.L69
 1024              	.LVL103:
 1025              	.L70:
 485:Middlewares/Third_Party/LibJPEG/source/jcparam.c ****     }
 1026              		.loc 1 485 0 discriminator 3
 1027 01dc 606D     		ldr	r0, [r4, #84]
 1028 01de 5821     		movs	r1, #88
 1029 01e0 01FB02F1 		mul	r1, r1, r2
 1030 01e4 4318     		adds	r3, r0, r1
 1031              	.LVL104:
 1032 01e6 4250     		str	r2, [r0, r1]
 1033 01e8 0121     		movs	r1, #1
 1034 01ea 9960     		str	r1, [r3, #8]
 1035 01ec D960     		str	r1, [r3, #12]
 1036 01ee 0021     		movs	r1, #0
 1037 01f0 1961     		str	r1, [r3, #16]
 1038 01f2 5961     		str	r1, [r3, #20]
 1039 01f4 9961     		str	r1, [r3, #24]
 484:Middlewares/Third_Party/LibJPEG/source/jcparam.c ****       SET_COMP(ci, ci, 1,1, 0, 0,0);
 1040              		.loc 1 484 0 discriminator 3
 1041 01f6 0132     		adds	r2, r2, #1
 1042              	.LVL105:
 1043              	.L69:
 484:Middlewares/Third_Party/LibJPEG/source/jcparam.c ****       SET_COMP(ci, ci, 1,1, 0, 0,0);
 1044              		.loc 1 484 0 is_stmt 0 discriminator 1
 1045 01f8 E36C     		ldr	r3, [r4, #76]
 1046 01fa 9342     		cmp	r3, r2
 1047 01fc EEDC     		bgt	.L70
 1048 01fe 2CE7     		b	.L57
 1049              	.LVL106:
 1050              	.L59:
 489:Middlewares/Third_Party/LibJPEG/source/jcparam.c ****   }
 1051              		.loc 1 489 0 is_stmt 1
 1052 0200 2368     		ldr	r3, [r4]
 1053 0202 0B22     		movs	r2, #11
 1054 0204 5A61     		str	r2, [r3, #20]
 1055 0206 2368     		ldr	r3, [r4]
 1056 0208 1B68     		ldr	r3, [r3]
 1057 020a 2046     		mov	r0, r4
 1058 020c 9847     		blx	r3
 1059              	.LVL107:
 491:Middlewares/Third_Party/LibJPEG/source/jcparam.c **** 
 1060              		.loc 1 491 0
 1061 020e 24E7     		b	.L57
 1062              		.cfi_endproc
 1063              	.LFE12:
 1065              		.section	.text.jpeg_default_colorspace,"ax",%progbits
 1066              		.align	1
 1067              		.global	jpeg_default_colorspace
 1068              		.syntax unified
 1069              		.thumb
 1070              		.thumb_func
ARM GAS  /tmp/ccCB0eLe.s 			page 31


 1071              		.fpu fpv5-sp-d16
 1073              	jpeg_default_colorspace:
 1074              	.LFB11:
 382:Middlewares/Third_Party/LibJPEG/source/jcparam.c ****   switch (cinfo->in_color_space) {
 1075              		.loc 1 382 0
 1076              		.cfi_startproc
 1077              		@ args = 0, pretend = 0, frame = 0
 1078              		@ frame_needed = 0, uses_anonymous_args = 0
 1079              	.LVL108:
 1080 0000 08B5     		push	{r3, lr}
 1081              	.LCFI19:
 1082              		.cfi_def_cfa_offset 8
 1083              		.cfi_offset 3, -8
 1084              		.cfi_offset 14, -4
 383:Middlewares/Third_Party/LibJPEG/source/jcparam.c ****   case JCS_GRAYSCALE:
 1085              		.loc 1 383 0
 1086 0002 90F82830 		ldrb	r3, [r0, #40]	@ zero_extendqisi2
 1087 0006 052B     		cmp	r3, #5
 1088 0008 1CD8     		bhi	.L73
 1089 000a DFE803F0 		tbb	[pc, r3]
 1090              	.L75:
 1091 000e 17       		.byte	(.L74-.L75)/2
 1092 000f 03       		.byte	(.L76-.L75)/2
 1093 0010 07       		.byte	(.L77-.L75)/2
 1094 0011 0B       		.byte	(.L78-.L75)/2
 1095 0012 0F       		.byte	(.L79-.L75)/2
 1096 0013 13       		.byte	(.L80-.L75)/2
 1097              		.p2align 1
 1098              	.L76:
 385:Middlewares/Third_Party/LibJPEG/source/jcparam.c ****     break;
 1099              		.loc 1 385 0
 1100 0014 0121     		movs	r1, #1
 1101 0016 FFF7FEFF 		bl	jpeg_set_colorspace
 1102              	.LVL109:
 1103              	.L72:
 405:Middlewares/Third_Party/LibJPEG/source/jcparam.c **** 
 1104              		.loc 1 405 0
 1105 001a 08BD     		pop	{r3, pc}
 1106              	.LVL110:
 1107              	.L77:
 388:Middlewares/Third_Party/LibJPEG/source/jcparam.c ****     break;
 1108              		.loc 1 388 0
 1109 001c 0321     		movs	r1, #3
 1110 001e FFF7FEFF 		bl	jpeg_set_colorspace
 1111              	.LVL111:
 389:Middlewares/Third_Party/LibJPEG/source/jcparam.c ****   case JCS_YCbCr:
 1112              		.loc 1 389 0
 1113 0022 FAE7     		b	.L72
 1114              	.LVL112:
 1115              	.L78:
 391:Middlewares/Third_Party/LibJPEG/source/jcparam.c ****     break;
 1116              		.loc 1 391 0
 1117 0024 0321     		movs	r1, #3
 1118 0026 FFF7FEFF 		bl	jpeg_set_colorspace
 1119              	.LVL113:
 392:Middlewares/Third_Party/LibJPEG/source/jcparam.c ****   case JCS_CMYK:
 1120              		.loc 1 392 0
ARM GAS  /tmp/ccCB0eLe.s 			page 32


 1121 002a F6E7     		b	.L72
 1122              	.LVL114:
 1123              	.L79:
 394:Middlewares/Third_Party/LibJPEG/source/jcparam.c ****     break;
 1124              		.loc 1 394 0
 1125 002c 0421     		movs	r1, #4
 1126 002e FFF7FEFF 		bl	jpeg_set_colorspace
 1127              	.LVL115:
 395:Middlewares/Third_Party/LibJPEG/source/jcparam.c ****   case JCS_YCCK:
 1128              		.loc 1 395 0
 1129 0032 F2E7     		b	.L72
 1130              	.LVL116:
 1131              	.L80:
 397:Middlewares/Third_Party/LibJPEG/source/jcparam.c ****     break;
 1132              		.loc 1 397 0
 1133 0034 0521     		movs	r1, #5
 1134 0036 FFF7FEFF 		bl	jpeg_set_colorspace
 1135              	.LVL117:
 398:Middlewares/Third_Party/LibJPEG/source/jcparam.c ****   case JCS_UNKNOWN:
 1136              		.loc 1 398 0
 1137 003a EEE7     		b	.L72
 1138              	.LVL118:
 1139              	.L74:
 400:Middlewares/Third_Party/LibJPEG/source/jcparam.c ****     break;
 1140              		.loc 1 400 0
 1141 003c 0021     		movs	r1, #0
 1142 003e FFF7FEFF 		bl	jpeg_set_colorspace
 1143              	.LVL119:
 401:Middlewares/Third_Party/LibJPEG/source/jcparam.c ****   default:
 1144              		.loc 1 401 0
 1145 0042 EAE7     		b	.L72
 1146              	.LVL120:
 1147              	.L73:
 403:Middlewares/Third_Party/LibJPEG/source/jcparam.c ****   }
 1148              		.loc 1 403 0
 1149 0044 0368     		ldr	r3, [r0]
 1150 0046 0A22     		movs	r2, #10
 1151 0048 5A61     		str	r2, [r3, #20]
 1152 004a 0368     		ldr	r3, [r0]
 1153 004c 1B68     		ldr	r3, [r3]
 1154 004e 9847     		blx	r3
 1155              	.LVL121:
 405:Middlewares/Third_Party/LibJPEG/source/jcparam.c **** 
 1156              		.loc 1 405 0
 1157 0050 E3E7     		b	.L72
 1158              		.cfi_endproc
 1159              	.LFE11:
 1161              		.section	.text.jpeg_set_defaults,"ax",%progbits
 1162              		.align	1
 1163              		.global	jpeg_set_defaults
 1164              		.syntax unified
 1165              		.thumb
 1166              		.thumb_func
 1167              		.fpu fpv5-sp-d16
 1169              	jpeg_set_defaults:
 1170              	.LFB10:
 286:Middlewares/Third_Party/LibJPEG/source/jcparam.c ****   int i;
ARM GAS  /tmp/ccCB0eLe.s 			page 33


 1171              		.loc 1 286 0
 1172              		.cfi_startproc
 1173              		@ args = 0, pretend = 0, frame = 0
 1174              		@ frame_needed = 0, uses_anonymous_args = 0
 1175              	.LVL122:
 1176 0000 10B5     		push	{r4, lr}
 1177              	.LCFI20:
 1178              		.cfi_def_cfa_offset 8
 1179              		.cfi_offset 4, -8
 1180              		.cfi_offset 14, -4
 1181 0002 0446     		mov	r4, r0
 290:Middlewares/Third_Party/LibJPEG/source/jcparam.c ****     ERREXIT1(cinfo, JERR_BAD_STATE, cinfo->global_state);
 1182              		.loc 1 290 0
 1183 0004 4369     		ldr	r3, [r0, #20]
 1184 0006 642B     		cmp	r3, #100
 1185 0008 08D0     		beq	.L84
 291:Middlewares/Third_Party/LibJPEG/source/jcparam.c **** 
 1186              		.loc 1 291 0
 1187 000a 0368     		ldr	r3, [r0]
 1188 000c 1522     		movs	r2, #21
 1189 000e 5A61     		str	r2, [r3, #20]
 1190 0010 0368     		ldr	r3, [r0]
 1191 0012 4269     		ldr	r2, [r0, #20]
 1192 0014 9A61     		str	r2, [r3, #24]
 1193 0016 0368     		ldr	r3, [r0]
 1194 0018 1B68     		ldr	r3, [r3]
 1195 001a 9847     		blx	r3
 1196              	.LVL123:
 1197              	.L84:
 297:Middlewares/Third_Party/LibJPEG/source/jcparam.c ****     cinfo->comp_info = (jpeg_component_info *)
 1198              		.loc 1 297 0
 1199 001c 636D     		ldr	r3, [r4, #84]
 1200 001e 3BB9     		cbnz	r3, .L85
 299:Middlewares/Third_Party/LibJPEG/source/jcparam.c **** 				  MAX_COMPONENTS * SIZEOF(jpeg_component_info));
 1201              		.loc 1 299 0
 1202 0020 6368     		ldr	r3, [r4, #4]
 1203 0022 1B68     		ldr	r3, [r3]
 1204 0024 4FF45C72 		mov	r2, #880
 1205 0028 0021     		movs	r1, #0
 1206 002a 2046     		mov	r0, r4
 1207 002c 9847     		blx	r3
 1208              	.LVL124:
 298:Middlewares/Third_Party/LibJPEG/source/jcparam.c ****       (*cinfo->mem->alloc_small) ((j_common_ptr) cinfo, JPOOL_PERMANENT,
 1209              		.loc 1 298 0
 1210 002e 6065     		str	r0, [r4, #84]
 1211              	.L85:
 304:Middlewares/Third_Party/LibJPEG/source/jcparam.c ****   cinfo->scale_denom = 1;
 1212              		.loc 1 304 0
 1213 0030 0122     		movs	r2, #1
 1214 0032 A263     		str	r2, [r4, #56]
 305:Middlewares/Third_Party/LibJPEG/source/jcparam.c ****   cinfo->data_precision = BITS_IN_JSAMPLE;
 1215              		.loc 1 305 0
 1216 0034 E263     		str	r2, [r4, #60]
 306:Middlewares/Third_Party/LibJPEG/source/jcparam.c ****   /* Set up two quantization tables using default quality of 75 */
 1217              		.loc 1 306 0
 1218 0036 0823     		movs	r3, #8
 1219 0038 A364     		str	r3, [r4, #72]
ARM GAS  /tmp/ccCB0eLe.s 			page 34


 308:Middlewares/Third_Party/LibJPEG/source/jcparam.c ****   /* Set up two Huffman tables */
 1220              		.loc 1 308 0
 1221 003a 4B21     		movs	r1, #75
 1222 003c 2046     		mov	r0, r4
 1223 003e FFF7FEFF 		bl	jpeg_set_quality
 1224              	.LVL125:
 310:Middlewares/Third_Party/LibJPEG/source/jcparam.c **** 
 1225              		.loc 1 310 0
 1226 0042 2046     		mov	r0, r4
 1227 0044 FFF7FEFF 		bl	std_huff_tables
 1228              	.LVL126:
 313:Middlewares/Third_Party/LibJPEG/source/jcparam.c ****     cinfo->arith_dc_L[i] = 0;
 1229              		.loc 1 313 0
 1230 0048 0023     		movs	r3, #0
 1231 004a 0AE0     		b	.L86
 1232              	.LVL127:
 1233              	.L87:
 314:Middlewares/Third_Party/LibJPEG/source/jcparam.c ****     cinfo->arith_dc_U[i] = 1;
 1234              		.loc 1 314 0 discriminator 3
 1235 004c E218     		adds	r2, r4, r3
 1236 004e 0021     		movs	r1, #0
 1237 0050 82F89810 		strb	r1, [r2, #152]
 315:Middlewares/Third_Party/LibJPEG/source/jcparam.c ****     cinfo->arith_ac_K[i] = 5;
 1238              		.loc 1 315 0 discriminator 3
 1239 0054 0121     		movs	r1, #1
 1240 0056 82F8A810 		strb	r1, [r2, #168]
 316:Middlewares/Third_Party/LibJPEG/source/jcparam.c ****   }
 1241              		.loc 1 316 0 discriminator 3
 1242 005a 0521     		movs	r1, #5
 1243 005c 82F8B810 		strb	r1, [r2, #184]
 313:Middlewares/Third_Party/LibJPEG/source/jcparam.c ****     cinfo->arith_dc_L[i] = 0;
 1244              		.loc 1 313 0 discriminator 3
 1245 0060 0133     		adds	r3, r3, #1
 1246              	.LVL128:
 1247              	.L86:
 313:Middlewares/Third_Party/LibJPEG/source/jcparam.c ****     cinfo->arith_dc_L[i] = 0;
 1248              		.loc 1 313 0 is_stmt 0 discriminator 1
 1249 0062 0F2B     		cmp	r3, #15
 1250 0064 F2DD     		ble	.L87
 320:Middlewares/Third_Party/LibJPEG/source/jcparam.c ****   cinfo->num_scans = 0;
 1251              		.loc 1 320 0 is_stmt 1
 1252 0066 0023     		movs	r3, #0
 1253              	.LVL129:
 1254 0068 C4F8CC30 		str	r3, [r4, #204]
 321:Middlewares/Third_Party/LibJPEG/source/jcparam.c **** 
 1255              		.loc 1 321 0
 1256 006c C4F8C830 		str	r3, [r4, #200]
 324:Middlewares/Third_Party/LibJPEG/source/jcparam.c **** 
 1257              		.loc 1 324 0
 1258 0070 C4F8D030 		str	r3, [r4, #208]
 327:Middlewares/Third_Party/LibJPEG/source/jcparam.c **** 
 1259              		.loc 1 327 0
 1260 0074 C4F8D430 		str	r3, [r4, #212]
 330:Middlewares/Third_Party/LibJPEG/source/jcparam.c ****   /* The standard Huffman tables are only valid for 8-bit data precision.
 1261              		.loc 1 330 0
 1262 0078 C4F8D830 		str	r3, [r4, #216]
 336:Middlewares/Third_Party/LibJPEG/source/jcparam.c ****     cinfo->optimize_coding = TRUE;
ARM GAS  /tmp/ccCB0eLe.s 			page 35


 1263              		.loc 1 336 0
 1264 007c A36C     		ldr	r3, [r4, #72]
 1265 007e 082B     		cmp	r3, #8
 1266 0080 02DD     		ble	.L88
 337:Middlewares/Third_Party/LibJPEG/source/jcparam.c **** 
 1267              		.loc 1 337 0
 1268 0082 0123     		movs	r3, #1
 1269 0084 C4F8D830 		str	r3, [r4, #216]
 1270              	.L88:
 340:Middlewares/Third_Party/LibJPEG/source/jcparam.c **** 
 1271              		.loc 1 340 0
 1272 0088 0023     		movs	r3, #0
 1273 008a C4F8DC30 		str	r3, [r4, #220]
 343:Middlewares/Third_Party/LibJPEG/source/jcparam.c **** 
 1274              		.loc 1 343 0
 1275 008e 0122     		movs	r2, #1
 1276 0090 C4F8E020 		str	r2, [r4, #224]
 346:Middlewares/Third_Party/LibJPEG/source/jcparam.c **** 
 1277              		.loc 1 346 0
 1278 0094 C4F8E430 		str	r3, [r4, #228]
 349:Middlewares/Third_Party/LibJPEG/source/jcparam.c **** 
 1279              		.loc 1 349 0
 1280 0098 84F8E830 		strb	r3, [r4, #232]
 352:Middlewares/Third_Party/LibJPEG/source/jcparam.c ****   cinfo->restart_in_rows = 0;
 1281              		.loc 1 352 0
 1282 009c C4F8EC30 		str	r3, [r4, #236]
 353:Middlewares/Third_Party/LibJPEG/source/jcparam.c **** 
 1283              		.loc 1 353 0
 1284 00a0 C4F8F030 		str	r3, [r4, #240]
 364:Middlewares/Third_Party/LibJPEG/source/jcparam.c ****   cinfo->JFIF_minor_version = 1;
 1285              		.loc 1 364 0
 1286 00a4 84F8F820 		strb	r2, [r4, #248]
 365:Middlewares/Third_Party/LibJPEG/source/jcparam.c ****   cinfo->density_unit = 0;	/* Pixel size is unknown by default */
 1287              		.loc 1 365 0
 1288 00a8 84F8F920 		strb	r2, [r4, #249]
 366:Middlewares/Third_Party/LibJPEG/source/jcparam.c ****   cinfo->X_density = 1;		/* Pixel aspect ratio is square by default */
 1289              		.loc 1 366 0
 1290 00ac 84F8FA30 		strb	r3, [r4, #250]
 367:Middlewares/Third_Party/LibJPEG/source/jcparam.c ****   cinfo->Y_density = 1;
 1291              		.loc 1 367 0
 1292 00b0 A4F8FC20 		strh	r2, [r4, #252]	@ movhi
 368:Middlewares/Third_Party/LibJPEG/source/jcparam.c **** 
 1293              		.loc 1 368 0
 1294 00b4 A4F8FE20 		strh	r2, [r4, #254]	@ movhi
 372:Middlewares/Third_Party/LibJPEG/source/jcparam.c **** }
 1295              		.loc 1 372 0
 1296 00b8 2046     		mov	r0, r4
 1297 00ba FFF7FEFF 		bl	jpeg_default_colorspace
 1298              	.LVL130:
 373:Middlewares/Third_Party/LibJPEG/source/jcparam.c **** 
 1299              		.loc 1 373 0
 1300 00be 10BD     		pop	{r4, pc}
 1301              		.cfi_endproc
 1302              	.LFE10:
 1304              		.section	.text.jpeg_simple_progression,"ax",%progbits
 1305              		.align	1
 1306              		.global	jpeg_simple_progression
ARM GAS  /tmp/ccCB0eLe.s 			page 36


 1307              		.syntax unified
 1308              		.thumb
 1309              		.thumb_func
 1310              		.fpu fpv5-sp-d16
 1312              	jpeg_simple_progression:
 1313              	.LFB16:
 551:Middlewares/Third_Party/LibJPEG/source/jcparam.c **** 
 552:Middlewares/Third_Party/LibJPEG/source/jcparam.c **** 
 553:Middlewares/Third_Party/LibJPEG/source/jcparam.c **** /*
 554:Middlewares/Third_Party/LibJPEG/source/jcparam.c ****  * Create a recommended progressive-JPEG script.
 555:Middlewares/Third_Party/LibJPEG/source/jcparam.c ****  * cinfo->num_components and cinfo->jpeg_color_space must be correct.
 556:Middlewares/Third_Party/LibJPEG/source/jcparam.c ****  */
 557:Middlewares/Third_Party/LibJPEG/source/jcparam.c **** 
 558:Middlewares/Third_Party/LibJPEG/source/jcparam.c **** GLOBAL(void)
 559:Middlewares/Third_Party/LibJPEG/source/jcparam.c **** jpeg_simple_progression (j_compress_ptr cinfo)
 560:Middlewares/Third_Party/LibJPEG/source/jcparam.c **** {
 1314              		.loc 1 560 0
 1315              		.cfi_startproc
 1316              		@ args = 0, pretend = 0, frame = 0
 1317              		@ frame_needed = 0, uses_anonymous_args = 0
 1318              	.LVL131:
 1319 0000 F0B5     		push	{r4, r5, r6, r7, lr}
 1320              	.LCFI21:
 1321              		.cfi_def_cfa_offset 20
 1322              		.cfi_offset 4, -20
 1323              		.cfi_offset 5, -16
 1324              		.cfi_offset 6, -12
 1325              		.cfi_offset 7, -8
 1326              		.cfi_offset 14, -4
 1327 0002 83B0     		sub	sp, sp, #12
 1328              	.LCFI22:
 1329              		.cfi_def_cfa_offset 32
 1330 0004 0446     		mov	r4, r0
 561:Middlewares/Third_Party/LibJPEG/source/jcparam.c ****   int ncomps = cinfo->num_components;
 1331              		.loc 1 561 0
 1332 0006 C56C     		ldr	r5, [r0, #76]
 1333              	.LVL132:
 562:Middlewares/Third_Party/LibJPEG/source/jcparam.c ****   int nscans;
 563:Middlewares/Third_Party/LibJPEG/source/jcparam.c ****   jpeg_scan_info * scanptr;
 564:Middlewares/Third_Party/LibJPEG/source/jcparam.c **** 
 565:Middlewares/Third_Party/LibJPEG/source/jcparam.c ****   /* Safety check to ensure start_compress not called yet. */
 566:Middlewares/Third_Party/LibJPEG/source/jcparam.c ****   if (cinfo->global_state != CSTATE_START)
 1334              		.loc 1 566 0
 1335 0008 4369     		ldr	r3, [r0, #20]
 1336 000a 642B     		cmp	r3, #100
 1337 000c 08D0     		beq	.L91
 567:Middlewares/Third_Party/LibJPEG/source/jcparam.c ****     ERREXIT1(cinfo, JERR_BAD_STATE, cinfo->global_state);
 1338              		.loc 1 567 0
 1339 000e 0368     		ldr	r3, [r0]
 1340 0010 1522     		movs	r2, #21
 1341 0012 5A61     		str	r2, [r3, #20]
 1342 0014 0368     		ldr	r3, [r0]
 1343 0016 4269     		ldr	r2, [r0, #20]
 1344 0018 9A61     		str	r2, [r3, #24]
 1345 001a 0368     		ldr	r3, [r0]
 1346 001c 1B68     		ldr	r3, [r3]
 1347 001e 9847     		blx	r3
ARM GAS  /tmp/ccCB0eLe.s 			page 37


 1348              	.LVL133:
 1349              	.L91:
 568:Middlewares/Third_Party/LibJPEG/source/jcparam.c **** 
 569:Middlewares/Third_Party/LibJPEG/source/jcparam.c ****   /* Figure space needed for script.  Calculation must match code below! */
 570:Middlewares/Third_Party/LibJPEG/source/jcparam.c ****   if (ncomps == 3 && cinfo->jpeg_color_space == JCS_YCbCr) {
 1350              		.loc 1 570 0
 1351 0020 032D     		cmp	r5, #3
 1352 0022 4FD0     		beq	.L101
 1353              	.L92:
 571:Middlewares/Third_Party/LibJPEG/source/jcparam.c ****     /* Custom script for YCbCr color images. */
 572:Middlewares/Third_Party/LibJPEG/source/jcparam.c ****     nscans = 10;
 573:Middlewares/Third_Party/LibJPEG/source/jcparam.c ****   } else {
 574:Middlewares/Third_Party/LibJPEG/source/jcparam.c ****     /* All-purpose script for other color spaces. */
 575:Middlewares/Third_Party/LibJPEG/source/jcparam.c ****     if (ncomps > MAX_COMPS_IN_SCAN)
 1354              		.loc 1 575 0
 1355 0024 042D     		cmp	r5, #4
 1356 0026 53DD     		ble	.L94
 576:Middlewares/Third_Party/LibJPEG/source/jcparam.c ****       nscans = 6 * ncomps;	/* 2 DC + 4 AC scans per component */
 1357              		.loc 1 576 0
 1358 0028 05EB4503 		add	r3, r5, r5, lsl #1
 1359 002c 5E00     		lsls	r6, r3, #1
 1360              	.LVL134:
 1361              	.L93:
 577:Middlewares/Third_Party/LibJPEG/source/jcparam.c ****     else
 578:Middlewares/Third_Party/LibJPEG/source/jcparam.c ****       nscans = 2 + 4 * ncomps;	/* 2 DC scans; 4 AC scans per component */
 579:Middlewares/Third_Party/LibJPEG/source/jcparam.c ****   }
 580:Middlewares/Third_Party/LibJPEG/source/jcparam.c **** 
 581:Middlewares/Third_Party/LibJPEG/source/jcparam.c ****   /* Allocate space for script.
 582:Middlewares/Third_Party/LibJPEG/source/jcparam.c ****    * We need to put it in the permanent pool in case the application performs
 583:Middlewares/Third_Party/LibJPEG/source/jcparam.c ****    * multiple compressions without changing the settings.  To avoid a memory
 584:Middlewares/Third_Party/LibJPEG/source/jcparam.c ****    * leak if jpeg_simple_progression is called repeatedly for the same JPEG
 585:Middlewares/Third_Party/LibJPEG/source/jcparam.c ****    * object, we try to re-use previously allocated space, and we allocate
 586:Middlewares/Third_Party/LibJPEG/source/jcparam.c ****    * enough space to handle YCbCr even if initially asked for grayscale.
 587:Middlewares/Third_Party/LibJPEG/source/jcparam.c ****    */
 588:Middlewares/Third_Party/LibJPEG/source/jcparam.c ****   if (cinfo->script_space == NULL || cinfo->script_space_size < nscans) {
 1362              		.loc 1 588 0
 1363 002e D4F8A831 		ldr	r3, [r4, #424]
 1364 0032 002B     		cmp	r3, #0
 1365 0034 4FD1     		bne	.L102
 1366              	.L95:
 589:Middlewares/Third_Party/LibJPEG/source/jcparam.c ****     cinfo->script_space_size = MAX(nscans, 10);
 1367              		.loc 1 589 0
 1368 0036 3346     		mov	r3, r6
 1369 0038 0A2E     		cmp	r6, #10
 1370 003a B8BF     		it	lt
 1371 003c 0A23     		movlt	r3, #10
 1372 003e C4F8AC31 		str	r3, [r4, #428]
 590:Middlewares/Third_Party/LibJPEG/source/jcparam.c ****     cinfo->script_space = (jpeg_scan_info *)
 591:Middlewares/Third_Party/LibJPEG/source/jcparam.c ****       (*cinfo->mem->alloc_small) ((j_common_ptr) cinfo, JPOOL_PERMANENT,
 1373              		.loc 1 591 0
 1374 0042 6168     		ldr	r1, [r4, #4]
 1375 0044 03EBC303 		add	r3, r3, r3, lsl #3
 1376 0048 9A00     		lsls	r2, r3, #2
 1377 004a 0B68     		ldr	r3, [r1]
 1378 004c 0021     		movs	r1, #0
 1379 004e 2046     		mov	r0, r4
 1380 0050 9847     		blx	r3
ARM GAS  /tmp/ccCB0eLe.s 			page 38


 1381              	.LVL135:
 590:Middlewares/Third_Party/LibJPEG/source/jcparam.c ****     cinfo->script_space = (jpeg_scan_info *)
 1382              		.loc 1 590 0
 1383 0052 C4F8A801 		str	r0, [r4, #424]
 1384              	.L96:
 592:Middlewares/Third_Party/LibJPEG/source/jcparam.c **** 			cinfo->script_space_size * SIZEOF(jpeg_scan_info));
 593:Middlewares/Third_Party/LibJPEG/source/jcparam.c ****   }
 594:Middlewares/Third_Party/LibJPEG/source/jcparam.c ****   scanptr = cinfo->script_space;
 1385              		.loc 1 594 0
 1386 0056 D4F8A801 		ldr	r0, [r4, #424]
 1387              	.LVL136:
 595:Middlewares/Third_Party/LibJPEG/source/jcparam.c ****   cinfo->scan_info = scanptr;
 1388              		.loc 1 595 0
 1389 005a C4F8CC00 		str	r0, [r4, #204]
 596:Middlewares/Third_Party/LibJPEG/source/jcparam.c ****   cinfo->num_scans = nscans;
 1390              		.loc 1 596 0
 1391 005e C4F8C860 		str	r6, [r4, #200]
 597:Middlewares/Third_Party/LibJPEG/source/jcparam.c **** 
 598:Middlewares/Third_Party/LibJPEG/source/jcparam.c ****   if (ncomps == 3 && cinfo->jpeg_color_space == JCS_YCbCr) {
 1392              		.loc 1 598 0
 1393 0062 032D     		cmp	r5, #3
 1394 0064 03D1     		bne	.L97
 1395              		.loc 1 598 0 is_stmt 0 discriminator 1
 1396 0066 94F85030 		ldrb	r3, [r4, #80]	@ zero_extendqisi2
 1397 006a 032B     		cmp	r3, #3
 1398 006c 38D0     		beq	.L103
 1399              	.L97:
 599:Middlewares/Third_Party/LibJPEG/source/jcparam.c ****     /* Custom script for YCbCr color images. */
 600:Middlewares/Third_Party/LibJPEG/source/jcparam.c ****     /* Initial DC scan */
 601:Middlewares/Third_Party/LibJPEG/source/jcparam.c ****     scanptr = fill_dc_scans(scanptr, ncomps, 0, 1);
 602:Middlewares/Third_Party/LibJPEG/source/jcparam.c ****     /* Initial AC scan: get some luma data out in a hurry */
 603:Middlewares/Third_Party/LibJPEG/source/jcparam.c ****     scanptr = fill_a_scan(scanptr, 0, 1, 5, 0, 2);
 604:Middlewares/Third_Party/LibJPEG/source/jcparam.c ****     /* Chroma data is too small to be worth expending many scans on */
 605:Middlewares/Third_Party/LibJPEG/source/jcparam.c ****     scanptr = fill_a_scan(scanptr, 2, 1, 63, 0, 1);
 606:Middlewares/Third_Party/LibJPEG/source/jcparam.c ****     scanptr = fill_a_scan(scanptr, 1, 1, 63, 0, 1);
 607:Middlewares/Third_Party/LibJPEG/source/jcparam.c ****     /* Complete spectral selection for luma AC */
 608:Middlewares/Third_Party/LibJPEG/source/jcparam.c ****     scanptr = fill_a_scan(scanptr, 0, 6, 63, 0, 2);
 609:Middlewares/Third_Party/LibJPEG/source/jcparam.c ****     /* Refine next bit of luma AC */
 610:Middlewares/Third_Party/LibJPEG/source/jcparam.c ****     scanptr = fill_a_scan(scanptr, 0, 1, 63, 2, 1);
 611:Middlewares/Third_Party/LibJPEG/source/jcparam.c ****     /* Finish DC successive approximation */
 612:Middlewares/Third_Party/LibJPEG/source/jcparam.c ****     scanptr = fill_dc_scans(scanptr, ncomps, 1, 0);
 613:Middlewares/Third_Party/LibJPEG/source/jcparam.c ****     /* Finish AC successive approximation */
 614:Middlewares/Third_Party/LibJPEG/source/jcparam.c ****     scanptr = fill_a_scan(scanptr, 2, 1, 63, 1, 0);
 615:Middlewares/Third_Party/LibJPEG/source/jcparam.c ****     scanptr = fill_a_scan(scanptr, 1, 1, 63, 1, 0);
 616:Middlewares/Third_Party/LibJPEG/source/jcparam.c ****     /* Luma bottom bit comes last since it's usually largest scan */
 617:Middlewares/Third_Party/LibJPEG/source/jcparam.c ****     scanptr = fill_a_scan(scanptr, 0, 1, 63, 1, 0);
 618:Middlewares/Third_Party/LibJPEG/source/jcparam.c ****   } else {
 619:Middlewares/Third_Party/LibJPEG/source/jcparam.c ****     /* All-purpose script for other color spaces. */
 620:Middlewares/Third_Party/LibJPEG/source/jcparam.c ****     /* Successive approximation first pass */
 621:Middlewares/Third_Party/LibJPEG/source/jcparam.c ****     scanptr = fill_dc_scans(scanptr, ncomps, 0, 1);
 1400              		.loc 1 621 0 is_stmt 1
 1401 006e 0123     		movs	r3, #1
 1402 0070 0022     		movs	r2, #0
 1403 0072 2946     		mov	r1, r5
 1404 0074 FFF7FEFF 		bl	fill_dc_scans
 1405              	.LVL137:
 622:Middlewares/Third_Party/LibJPEG/source/jcparam.c ****     scanptr = fill_scans(scanptr, ncomps, 1, 5, 0, 2);
ARM GAS  /tmp/ccCB0eLe.s 			page 39


 1406              		.loc 1 622 0
 1407 0078 0227     		movs	r7, #2
 1408 007a 0197     		str	r7, [sp, #4]
 1409 007c 0026     		movs	r6, #0
 1410              	.LVL138:
 1411 007e 0096     		str	r6, [sp]
 1412 0080 0523     		movs	r3, #5
 1413 0082 0122     		movs	r2, #1
 1414 0084 2946     		mov	r1, r5
 1415 0086 FFF7FEFF 		bl	fill_scans
 1416              	.LVL139:
 623:Middlewares/Third_Party/LibJPEG/source/jcparam.c ****     scanptr = fill_scans(scanptr, ncomps, 6, 63, 0, 2);
 1417              		.loc 1 623 0
 1418 008a 0197     		str	r7, [sp, #4]
 1419 008c 0096     		str	r6, [sp]
 1420 008e 3F23     		movs	r3, #63
 1421 0090 0622     		movs	r2, #6
 1422 0092 2946     		mov	r1, r5
 1423 0094 FFF7FEFF 		bl	fill_scans
 1424              	.LVL140:
 624:Middlewares/Third_Party/LibJPEG/source/jcparam.c ****     /* Successive approximation second pass */
 625:Middlewares/Third_Party/LibJPEG/source/jcparam.c ****     scanptr = fill_scans(scanptr, ncomps, 1, 63, 2, 1);
 1425              		.loc 1 625 0
 1426 0098 0124     		movs	r4, #1
 1427              	.LVL141:
 1428 009a 0194     		str	r4, [sp, #4]
 1429 009c 0097     		str	r7, [sp]
 1430 009e 3F23     		movs	r3, #63
 1431 00a0 2246     		mov	r2, r4
 1432 00a2 2946     		mov	r1, r5
 1433 00a4 FFF7FEFF 		bl	fill_scans
 1434              	.LVL142:
 626:Middlewares/Third_Party/LibJPEG/source/jcparam.c ****     /* Successive approximation final pass */
 627:Middlewares/Third_Party/LibJPEG/source/jcparam.c ****     scanptr = fill_dc_scans(scanptr, ncomps, 1, 0);
 1435              		.loc 1 627 0
 1436 00a8 3346     		mov	r3, r6
 1437 00aa 2246     		mov	r2, r4
 1438 00ac 2946     		mov	r1, r5
 1439 00ae FFF7FEFF 		bl	fill_dc_scans
 1440              	.LVL143:
 628:Middlewares/Third_Party/LibJPEG/source/jcparam.c ****     scanptr = fill_scans(scanptr, ncomps, 1, 63, 1, 0);
 1441              		.loc 1 628 0
 1442 00b2 0196     		str	r6, [sp, #4]
 1443 00b4 0094     		str	r4, [sp]
 1444 00b6 3F23     		movs	r3, #63
 1445 00b8 2246     		mov	r2, r4
 1446 00ba 2946     		mov	r1, r5
 1447 00bc FFF7FEFF 		bl	fill_scans
 1448              	.LVL144:
 1449              	.L90:
 629:Middlewares/Third_Party/LibJPEG/source/jcparam.c ****   }
 630:Middlewares/Third_Party/LibJPEG/source/jcparam.c **** }
 1450              		.loc 1 630 0
 1451 00c0 03B0     		add	sp, sp, #12
 1452              	.LCFI23:
 1453              		.cfi_remember_state
 1454              		.cfi_def_cfa_offset 20
ARM GAS  /tmp/ccCB0eLe.s 			page 40


 1455              		@ sp needed
 1456 00c2 F0BD     		pop	{r4, r5, r6, r7, pc}
 1457              	.LVL145:
 1458              	.L101:
 1459              	.LCFI24:
 1460              		.cfi_restore_state
 570:Middlewares/Third_Party/LibJPEG/source/jcparam.c ****     /* Custom script for YCbCr color images. */
 1461              		.loc 1 570 0 discriminator 1
 1462 00c4 94F85030 		ldrb	r3, [r4, #80]	@ zero_extendqisi2
 1463 00c8 032B     		cmp	r3, #3
 1464 00ca ABD1     		bne	.L92
 572:Middlewares/Third_Party/LibJPEG/source/jcparam.c ****   } else {
 1465              		.loc 1 572 0
 1466 00cc 0A26     		movs	r6, #10
 1467 00ce AEE7     		b	.L93
 1468              	.L94:
 578:Middlewares/Third_Party/LibJPEG/source/jcparam.c ****   }
 1469              		.loc 1 578 0
 1470 00d0 AE00     		lsls	r6, r5, #2
 1471 00d2 0236     		adds	r6, r6, #2
 1472              	.LVL146:
 1473 00d4 ABE7     		b	.L93
 1474              	.L102:
 588:Middlewares/Third_Party/LibJPEG/source/jcparam.c ****     cinfo->script_space_size = MAX(nscans, 10);
 1475              		.loc 1 588 0 discriminator 1
 1476 00d6 D4F8AC31 		ldr	r3, [r4, #428]
 1477 00da B342     		cmp	r3, r6
 1478 00dc BBDA     		bge	.L96
 1479 00de AAE7     		b	.L95
 1480              	.LVL147:
 1481              	.L103:
 601:Middlewares/Third_Party/LibJPEG/source/jcparam.c ****     /* Initial AC scan: get some luma data out in a hurry */
 1482              		.loc 1 601 0
 1483 00e0 0123     		movs	r3, #1
 1484 00e2 0022     		movs	r2, #0
 1485 00e4 2946     		mov	r1, r5
 1486 00e6 FFF7FEFF 		bl	fill_dc_scans
 1487              	.LVL148:
 603:Middlewares/Third_Party/LibJPEG/source/jcparam.c ****     /* Chroma data is too small to be worth expending many scans on */
 1488              		.loc 1 603 0
 1489 00ea 0227     		movs	r7, #2
 1490 00ec 0197     		str	r7, [sp, #4]
 1491 00ee 0026     		movs	r6, #0
 1492              	.LVL149:
 1493 00f0 0096     		str	r6, [sp]
 1494 00f2 0523     		movs	r3, #5
 1495 00f4 0122     		movs	r2, #1
 1496 00f6 3146     		mov	r1, r6
 1497 00f8 FFF7FEFF 		bl	fill_a_scan
 1498              	.LVL150:
 605:Middlewares/Third_Party/LibJPEG/source/jcparam.c ****     scanptr = fill_a_scan(scanptr, 1, 1, 63, 0, 1);
 1499              		.loc 1 605 0
 1500 00fc 0124     		movs	r4, #1
 1501              	.LVL151:
 1502 00fe 0194     		str	r4, [sp, #4]
 1503 0100 0096     		str	r6, [sp]
 1504 0102 3F23     		movs	r3, #63
ARM GAS  /tmp/ccCB0eLe.s 			page 41


 1505 0104 2246     		mov	r2, r4
 1506 0106 3946     		mov	r1, r7
 1507 0108 FFF7FEFF 		bl	fill_a_scan
 1508              	.LVL152:
 606:Middlewares/Third_Party/LibJPEG/source/jcparam.c ****     /* Complete spectral selection for luma AC */
 1509              		.loc 1 606 0
 1510 010c 0194     		str	r4, [sp, #4]
 1511 010e 0096     		str	r6, [sp]
 1512 0110 3F23     		movs	r3, #63
 1513 0112 2246     		mov	r2, r4
 1514 0114 2146     		mov	r1, r4
 1515 0116 FFF7FEFF 		bl	fill_a_scan
 1516              	.LVL153:
 608:Middlewares/Third_Party/LibJPEG/source/jcparam.c ****     /* Refine next bit of luma AC */
 1517              		.loc 1 608 0
 1518 011a 0197     		str	r7, [sp, #4]
 1519 011c 0096     		str	r6, [sp]
 1520 011e 3F23     		movs	r3, #63
 1521 0120 0622     		movs	r2, #6
 1522 0122 3146     		mov	r1, r6
 1523 0124 FFF7FEFF 		bl	fill_a_scan
 1524              	.LVL154:
 610:Middlewares/Third_Party/LibJPEG/source/jcparam.c ****     /* Finish DC successive approximation */
 1525              		.loc 1 610 0
 1526 0128 0194     		str	r4, [sp, #4]
 1527 012a 0097     		str	r7, [sp]
 1528 012c 3F23     		movs	r3, #63
 1529 012e 2246     		mov	r2, r4
 1530 0130 3146     		mov	r1, r6
 1531 0132 FFF7FEFF 		bl	fill_a_scan
 1532              	.LVL155:
 612:Middlewares/Third_Party/LibJPEG/source/jcparam.c ****     /* Finish AC successive approximation */
 1533              		.loc 1 612 0
 1534 0136 3346     		mov	r3, r6
 1535 0138 2246     		mov	r2, r4
 1536 013a 2946     		mov	r1, r5
 1537 013c FFF7FEFF 		bl	fill_dc_scans
 1538              	.LVL156:
 614:Middlewares/Third_Party/LibJPEG/source/jcparam.c ****     scanptr = fill_a_scan(scanptr, 1, 1, 63, 1, 0);
 1539              		.loc 1 614 0
 1540 0140 0196     		str	r6, [sp, #4]
 1541 0142 0094     		str	r4, [sp]
 1542 0144 3F23     		movs	r3, #63
 1543 0146 2246     		mov	r2, r4
 1544 0148 3946     		mov	r1, r7
 1545 014a FFF7FEFF 		bl	fill_a_scan
 1546              	.LVL157:
 615:Middlewares/Third_Party/LibJPEG/source/jcparam.c ****     /* Luma bottom bit comes last since it's usually largest scan */
 1547              		.loc 1 615 0
 1548 014e 0196     		str	r6, [sp, #4]
 1549 0150 0094     		str	r4, [sp]
 1550 0152 3F23     		movs	r3, #63
 1551 0154 2246     		mov	r2, r4
 1552 0156 2146     		mov	r1, r4
 1553 0158 FFF7FEFF 		bl	fill_a_scan
 1554              	.LVL158:
 617:Middlewares/Third_Party/LibJPEG/source/jcparam.c ****   } else {
ARM GAS  /tmp/ccCB0eLe.s 			page 42


 1555              		.loc 1 617 0
 1556 015c 0196     		str	r6, [sp, #4]
 1557 015e 0094     		str	r4, [sp]
 1558 0160 3F23     		movs	r3, #63
 1559 0162 2246     		mov	r2, r4
 1560 0164 3146     		mov	r1, r6
 1561 0166 FFF7FEFF 		bl	fill_a_scan
 1562              	.LVL159:
 1563 016a A9E7     		b	.L90
 1564              		.cfi_endproc
 1565              	.LFE16:
 1567              		.section	.rodata.bits_ac_chrominance.8050,"a",%progbits
 1568              		.align	2
 1569              		.set	.LANCHOR7,. + 0
 1572              	bits_ac_chrominance.8050:
 1573 0000 00       		.byte	0
 1574 0001 00       		.byte	0
 1575 0002 02       		.byte	2
 1576 0003 01       		.byte	1
 1577 0004 02       		.byte	2
 1578 0005 04       		.byte	4
 1579 0006 04       		.byte	4
 1580 0007 03       		.byte	3
 1581 0008 04       		.byte	4
 1582 0009 07       		.byte	7
 1583 000a 05       		.byte	5
 1584 000b 04       		.byte	4
 1585 000c 04       		.byte	4
 1586 000d 00       		.byte	0
 1587 000e 01       		.byte	1
 1588 000f 02       		.byte	2
 1589 0010 77       		.byte	119
 1590              		.section	.rodata.bits_ac_luminance.8048,"a",%progbits
 1591              		.align	2
 1592              		.set	.LANCHOR3,. + 0
 1595              	bits_ac_luminance.8048:
 1596 0000 00       		.byte	0
 1597 0001 00       		.byte	0
 1598 0002 02       		.byte	2
 1599 0003 01       		.byte	1
 1600 0004 03       		.byte	3
 1601 0005 03       		.byte	3
 1602 0006 02       		.byte	2
 1603 0007 04       		.byte	4
 1604 0008 03       		.byte	3
 1605 0009 05       		.byte	5
 1606 000a 05       		.byte	5
 1607 000b 04       		.byte	4
 1608 000c 04       		.byte	4
 1609 000d 00       		.byte	0
 1610 000e 00       		.byte	0
 1611 000f 01       		.byte	1
 1612 0010 7D       		.byte	125
 1613              		.section	.rodata.bits_dc_chrominance.8046,"a",%progbits
 1614              		.align	2
 1615              		.set	.LANCHOR5,. + 0
 1618              	bits_dc_chrominance.8046:
ARM GAS  /tmp/ccCB0eLe.s 			page 43


 1619 0000 00       		.byte	0
 1620 0001 00       		.byte	0
 1621 0002 03       		.byte	3
 1622 0003 01       		.byte	1
 1623 0004 01       		.byte	1
 1624 0005 01       		.byte	1
 1625 0006 01       		.byte	1
 1626 0007 01       		.byte	1
 1627 0008 01       		.byte	1
 1628 0009 01       		.byte	1
 1629 000a 01       		.byte	1
 1630 000b 01       		.byte	1
 1631 000c 00       		.byte	0
 1632 000d 00       		.byte	0
 1633 000e 00       		.byte	0
 1634 000f 00       		.byte	0
 1635 0010 00       		.byte	0
 1636              		.section	.rodata.bits_dc_luminance.8044,"a",%progbits
 1637              		.align	2
 1638              		.set	.LANCHOR1,. + 0
 1641              	bits_dc_luminance.8044:
 1642 0000 00       		.byte	0
 1643 0001 00       		.byte	0
 1644 0002 01       		.byte	1
 1645 0003 05       		.byte	5
 1646 0004 01       		.byte	1
 1647 0005 01       		.byte	1
 1648 0006 01       		.byte	1
 1649 0007 01       		.byte	1
 1650 0008 01       		.byte	1
 1651 0009 01       		.byte	1
 1652 000a 00       		.byte	0
 1653 000b 00       		.byte	0
 1654 000c 00       		.byte	0
 1655 000d 00       		.byte	0
 1656 000e 00       		.byte	0
 1657 000f 00       		.byte	0
 1658 0010 00       		.byte	0
 1659              		.section	.rodata.std_chrominance_quant_tbl,"a",%progbits
 1660              		.align	2
 1661              		.set	.LANCHOR9,. + 0
 1664              	std_chrominance_quant_tbl:
 1665 0000 11000000 		.word	17
 1666 0004 12000000 		.word	18
 1667 0008 18000000 		.word	24
 1668 000c 2F000000 		.word	47
 1669 0010 63000000 		.word	99
 1670 0014 63000000 		.word	99
 1671 0018 63000000 		.word	99
 1672 001c 63000000 		.word	99
 1673 0020 12000000 		.word	18
 1674 0024 15000000 		.word	21
 1675 0028 1A000000 		.word	26
 1676 002c 42000000 		.word	66
 1677 0030 63000000 		.word	99
 1678 0034 63000000 		.word	99
 1679 0038 63000000 		.word	99
ARM GAS  /tmp/ccCB0eLe.s 			page 44


 1680 003c 63000000 		.word	99
 1681 0040 18000000 		.word	24
 1682 0044 1A000000 		.word	26
 1683 0048 38000000 		.word	56
 1684 004c 63000000 		.word	99
 1685 0050 63000000 		.word	99
 1686 0054 63000000 		.word	99
 1687 0058 63000000 		.word	99
 1688 005c 63000000 		.word	99
 1689 0060 2F000000 		.word	47
 1690 0064 42000000 		.word	66
 1691 0068 63000000 		.word	99
 1692 006c 63000000 		.word	99
 1693 0070 63000000 		.word	99
 1694 0074 63000000 		.word	99
 1695 0078 63000000 		.word	99
 1696 007c 63000000 		.word	99
 1697 0080 63000000 		.word	99
 1698 0084 63000000 		.word	99
 1699 0088 63000000 		.word	99
 1700 008c 63000000 		.word	99
 1701 0090 63000000 		.word	99
 1702 0094 63000000 		.word	99
 1703 0098 63000000 		.word	99
 1704 009c 63000000 		.word	99
 1705 00a0 63000000 		.word	99
 1706 00a4 63000000 		.word	99
 1707 00a8 63000000 		.word	99
 1708 00ac 63000000 		.word	99
 1709 00b0 63000000 		.word	99
 1710 00b4 63000000 		.word	99
 1711 00b8 63000000 		.word	99
 1712 00bc 63000000 		.word	99
 1713 00c0 63000000 		.word	99
 1714 00c4 63000000 		.word	99
 1715 00c8 63000000 		.word	99
 1716 00cc 63000000 		.word	99
 1717 00d0 63000000 		.word	99
 1718 00d4 63000000 		.word	99
 1719 00d8 63000000 		.word	99
 1720 00dc 63000000 		.word	99
 1721 00e0 63000000 		.word	99
 1722 00e4 63000000 		.word	99
 1723 00e8 63000000 		.word	99
 1724 00ec 63000000 		.word	99
 1725 00f0 63000000 		.word	99
 1726 00f4 63000000 		.word	99
 1727 00f8 63000000 		.word	99
 1728 00fc 63000000 		.word	99
 1729              		.section	.rodata.std_luminance_quant_tbl,"a",%progbits
 1730              		.align	2
 1731              		.set	.LANCHOR8,. + 0
 1734              	std_luminance_quant_tbl:
 1735 0000 10000000 		.word	16
 1736 0004 0B000000 		.word	11
 1737 0008 0A000000 		.word	10
 1738 000c 10000000 		.word	16
ARM GAS  /tmp/ccCB0eLe.s 			page 45


 1739 0010 18000000 		.word	24
 1740 0014 28000000 		.word	40
 1741 0018 33000000 		.word	51
 1742 001c 3D000000 		.word	61
 1743 0020 0C000000 		.word	12
 1744 0024 0C000000 		.word	12
 1745 0028 0E000000 		.word	14
 1746 002c 13000000 		.word	19
 1747 0030 1A000000 		.word	26
 1748 0034 3A000000 		.word	58
 1749 0038 3C000000 		.word	60
 1750 003c 37000000 		.word	55
 1751 0040 0E000000 		.word	14
 1752 0044 0D000000 		.word	13
 1753 0048 10000000 		.word	16
 1754 004c 18000000 		.word	24
 1755 0050 28000000 		.word	40
 1756 0054 39000000 		.word	57
 1757 0058 45000000 		.word	69
 1758 005c 38000000 		.word	56
 1759 0060 0E000000 		.word	14
 1760 0064 11000000 		.word	17
 1761 0068 16000000 		.word	22
 1762 006c 1D000000 		.word	29
 1763 0070 33000000 		.word	51
 1764 0074 57000000 		.word	87
 1765 0078 50000000 		.word	80
 1766 007c 3E000000 		.word	62
 1767 0080 12000000 		.word	18
 1768 0084 16000000 		.word	22
 1769 0088 25000000 		.word	37
 1770 008c 38000000 		.word	56
 1771 0090 44000000 		.word	68
 1772 0094 6D000000 		.word	109
 1773 0098 67000000 		.word	103
 1774 009c 4D000000 		.word	77
 1775 00a0 18000000 		.word	24
 1776 00a4 23000000 		.word	35
 1777 00a8 37000000 		.word	55
 1778 00ac 40000000 		.word	64
 1779 00b0 51000000 		.word	81
 1780 00b4 68000000 		.word	104
 1781 00b8 71000000 		.word	113
 1782 00bc 5C000000 		.word	92
 1783 00c0 31000000 		.word	49
 1784 00c4 40000000 		.word	64
 1785 00c8 4E000000 		.word	78
 1786 00cc 57000000 		.word	87
 1787 00d0 67000000 		.word	103
 1788 00d4 79000000 		.word	121
 1789 00d8 78000000 		.word	120
 1790 00dc 65000000 		.word	101
 1791 00e0 48000000 		.word	72
 1792 00e4 5C000000 		.word	92
 1793 00e8 5F000000 		.word	95
 1794 00ec 62000000 		.word	98
 1795 00f0 70000000 		.word	112
ARM GAS  /tmp/ccCB0eLe.s 			page 46


 1796 00f4 64000000 		.word	100
 1797 00f8 67000000 		.word	103
 1798 00fc 63000000 		.word	99
 1799              		.section	.rodata.val_ac_chrominance.8051,"a",%progbits
 1800              		.align	2
 1801              		.set	.LANCHOR6,. + 0
 1804              	val_ac_chrominance.8051:
 1805 0000 00       		.byte	0
 1806 0001 01       		.byte	1
 1807 0002 02       		.byte	2
 1808 0003 03       		.byte	3
 1809 0004 11       		.byte	17
 1810 0005 04       		.byte	4
 1811 0006 05       		.byte	5
 1812 0007 21       		.byte	33
 1813 0008 31       		.byte	49
 1814 0009 06       		.byte	6
 1815 000a 12       		.byte	18
 1816 000b 41       		.byte	65
 1817 000c 51       		.byte	81
 1818 000d 07       		.byte	7
 1819 000e 61       		.byte	97
 1820 000f 71       		.byte	113
 1821 0010 13       		.byte	19
 1822 0011 22       		.byte	34
 1823 0012 32       		.byte	50
 1824 0013 81       		.byte	-127
 1825 0014 08       		.byte	8
 1826 0015 14       		.byte	20
 1827 0016 42       		.byte	66
 1828 0017 91       		.byte	-111
 1829 0018 A1       		.byte	-95
 1830 0019 B1       		.byte	-79
 1831 001a C1       		.byte	-63
 1832 001b 09       		.byte	9
 1833 001c 23       		.byte	35
 1834 001d 33       		.byte	51
 1835 001e 52       		.byte	82
 1836 001f F0       		.byte	-16
 1837 0020 15       		.byte	21
 1838 0021 62       		.byte	98
 1839 0022 72       		.byte	114
 1840 0023 D1       		.byte	-47
 1841 0024 0A       		.byte	10
 1842 0025 16       		.byte	22
 1843 0026 24       		.byte	36
 1844 0027 34       		.byte	52
 1845 0028 E1       		.byte	-31
 1846 0029 25       		.byte	37
 1847 002a F1       		.byte	-15
 1848 002b 17       		.byte	23
 1849 002c 18       		.byte	24
 1850 002d 19       		.byte	25
 1851 002e 1A       		.byte	26
 1852 002f 26       		.byte	38
 1853 0030 27       		.byte	39
 1854 0031 28       		.byte	40
ARM GAS  /tmp/ccCB0eLe.s 			page 47


 1855 0032 29       		.byte	41
 1856 0033 2A       		.byte	42
 1857 0034 35       		.byte	53
 1858 0035 36       		.byte	54
 1859 0036 37       		.byte	55
 1860 0037 38       		.byte	56
 1861 0038 39       		.byte	57
 1862 0039 3A       		.byte	58
 1863 003a 43       		.byte	67
 1864 003b 44       		.byte	68
 1865 003c 45       		.byte	69
 1866 003d 46       		.byte	70
 1867 003e 47       		.byte	71
 1868 003f 48       		.byte	72
 1869 0040 49       		.byte	73
 1870 0041 4A       		.byte	74
 1871 0042 53       		.byte	83
 1872 0043 54       		.byte	84
 1873 0044 55       		.byte	85
 1874 0045 56       		.byte	86
 1875 0046 57       		.byte	87
 1876 0047 58       		.byte	88
 1877 0048 59       		.byte	89
 1878 0049 5A       		.byte	90
 1879 004a 63       		.byte	99
 1880 004b 64       		.byte	100
 1881 004c 65       		.byte	101
 1882 004d 66       		.byte	102
 1883 004e 67       		.byte	103
 1884 004f 68       		.byte	104
 1885 0050 69       		.byte	105
 1886 0051 6A       		.byte	106
 1887 0052 73       		.byte	115
 1888 0053 74       		.byte	116
 1889 0054 75       		.byte	117
 1890 0055 76       		.byte	118
 1891 0056 77       		.byte	119
 1892 0057 78       		.byte	120
 1893 0058 79       		.byte	121
 1894 0059 7A       		.byte	122
 1895 005a 82       		.byte	-126
 1896 005b 83       		.byte	-125
 1897 005c 84       		.byte	-124
 1898 005d 85       		.byte	-123
 1899 005e 86       		.byte	-122
 1900 005f 87       		.byte	-121
 1901 0060 88       		.byte	-120
 1902 0061 89       		.byte	-119
 1903 0062 8A       		.byte	-118
 1904 0063 92       		.byte	-110
 1905 0064 93       		.byte	-109
 1906 0065 94       		.byte	-108
 1907 0066 95       		.byte	-107
 1908 0067 96       		.byte	-106
 1909 0068 97       		.byte	-105
 1910 0069 98       		.byte	-104
 1911 006a 99       		.byte	-103
ARM GAS  /tmp/ccCB0eLe.s 			page 48


 1912 006b 9A       		.byte	-102
 1913 006c A2       		.byte	-94
 1914 006d A3       		.byte	-93
 1915 006e A4       		.byte	-92
 1916 006f A5       		.byte	-91
 1917 0070 A6       		.byte	-90
 1918 0071 A7       		.byte	-89
 1919 0072 A8       		.byte	-88
 1920 0073 A9       		.byte	-87
 1921 0074 AA       		.byte	-86
 1922 0075 B2       		.byte	-78
 1923 0076 B3       		.byte	-77
 1924 0077 B4       		.byte	-76
 1925 0078 B5       		.byte	-75
 1926 0079 B6       		.byte	-74
 1927 007a B7       		.byte	-73
 1928 007b B8       		.byte	-72
 1929 007c B9       		.byte	-71
 1930 007d BA       		.byte	-70
 1931 007e C2       		.byte	-62
 1932 007f C3       		.byte	-61
 1933 0080 C4       		.byte	-60
 1934 0081 C5       		.byte	-59
 1935 0082 C6       		.byte	-58
 1936 0083 C7       		.byte	-57
 1937 0084 C8       		.byte	-56
 1938 0085 C9       		.byte	-55
 1939 0086 CA       		.byte	-54
 1940 0087 D2       		.byte	-46
 1941 0088 D3       		.byte	-45
 1942 0089 D4       		.byte	-44
 1943 008a D5       		.byte	-43
 1944 008b D6       		.byte	-42
 1945 008c D7       		.byte	-41
 1946 008d D8       		.byte	-40
 1947 008e D9       		.byte	-39
 1948 008f DA       		.byte	-38
 1949 0090 E2       		.byte	-30
 1950 0091 E3       		.byte	-29
 1951 0092 E4       		.byte	-28
 1952 0093 E5       		.byte	-27
 1953 0094 E6       		.byte	-26
 1954 0095 E7       		.byte	-25
 1955 0096 E8       		.byte	-24
 1956 0097 E9       		.byte	-23
 1957 0098 EA       		.byte	-22
 1958 0099 F2       		.byte	-14
 1959 009a F3       		.byte	-13
 1960 009b F4       		.byte	-12
 1961 009c F5       		.byte	-11
 1962 009d F6       		.byte	-10
 1963 009e F7       		.byte	-9
 1964 009f F8       		.byte	-8
 1965 00a0 F9       		.byte	-7
 1966 00a1 FA       		.byte	-6
 1967              		.section	.rodata.val_ac_luminance.8049,"a",%progbits
 1968              		.align	2
ARM GAS  /tmp/ccCB0eLe.s 			page 49


 1969              		.set	.LANCHOR2,. + 0
 1972              	val_ac_luminance.8049:
 1973 0000 01       		.byte	1
 1974 0001 02       		.byte	2
 1975 0002 03       		.byte	3
 1976 0003 00       		.byte	0
 1977 0004 04       		.byte	4
 1978 0005 11       		.byte	17
 1979 0006 05       		.byte	5
 1980 0007 12       		.byte	18
 1981 0008 21       		.byte	33
 1982 0009 31       		.byte	49
 1983 000a 41       		.byte	65
 1984 000b 06       		.byte	6
 1985 000c 13       		.byte	19
 1986 000d 51       		.byte	81
 1987 000e 61       		.byte	97
 1988 000f 07       		.byte	7
 1989 0010 22       		.byte	34
 1990 0011 71       		.byte	113
 1991 0012 14       		.byte	20
 1992 0013 32       		.byte	50
 1993 0014 81       		.byte	-127
 1994 0015 91       		.byte	-111
 1995 0016 A1       		.byte	-95
 1996 0017 08       		.byte	8
 1997 0018 23       		.byte	35
 1998 0019 42       		.byte	66
 1999 001a B1       		.byte	-79
 2000 001b C1       		.byte	-63
 2001 001c 15       		.byte	21
 2002 001d 52       		.byte	82
 2003 001e D1       		.byte	-47
 2004 001f F0       		.byte	-16
 2005 0020 24       		.byte	36
 2006 0021 33       		.byte	51
 2007 0022 62       		.byte	98
 2008 0023 72       		.byte	114
 2009 0024 82       		.byte	-126
 2010 0025 09       		.byte	9
 2011 0026 0A       		.byte	10
 2012 0027 16       		.byte	22
 2013 0028 17       		.byte	23
 2014 0029 18       		.byte	24
 2015 002a 19       		.byte	25
 2016 002b 1A       		.byte	26
 2017 002c 25       		.byte	37
 2018 002d 26       		.byte	38
 2019 002e 27       		.byte	39
 2020 002f 28       		.byte	40
 2021 0030 29       		.byte	41
 2022 0031 2A       		.byte	42
 2023 0032 34       		.byte	52
 2024 0033 35       		.byte	53
 2025 0034 36       		.byte	54
 2026 0035 37       		.byte	55
 2027 0036 38       		.byte	56
ARM GAS  /tmp/ccCB0eLe.s 			page 50


 2028 0037 39       		.byte	57
 2029 0038 3A       		.byte	58
 2030 0039 43       		.byte	67
 2031 003a 44       		.byte	68
 2032 003b 45       		.byte	69
 2033 003c 46       		.byte	70
 2034 003d 47       		.byte	71
 2035 003e 48       		.byte	72
 2036 003f 49       		.byte	73
 2037 0040 4A       		.byte	74
 2038 0041 53       		.byte	83
 2039 0042 54       		.byte	84
 2040 0043 55       		.byte	85
 2041 0044 56       		.byte	86
 2042 0045 57       		.byte	87
 2043 0046 58       		.byte	88
 2044 0047 59       		.byte	89
 2045 0048 5A       		.byte	90
 2046 0049 63       		.byte	99
 2047 004a 64       		.byte	100
 2048 004b 65       		.byte	101
 2049 004c 66       		.byte	102
 2050 004d 67       		.byte	103
 2051 004e 68       		.byte	104
 2052 004f 69       		.byte	105
 2053 0050 6A       		.byte	106
 2054 0051 73       		.byte	115
 2055 0052 74       		.byte	116
 2056 0053 75       		.byte	117
 2057 0054 76       		.byte	118
 2058 0055 77       		.byte	119
 2059 0056 78       		.byte	120
 2060 0057 79       		.byte	121
 2061 0058 7A       		.byte	122
 2062 0059 83       		.byte	-125
 2063 005a 84       		.byte	-124
 2064 005b 85       		.byte	-123
 2065 005c 86       		.byte	-122
 2066 005d 87       		.byte	-121
 2067 005e 88       		.byte	-120
 2068 005f 89       		.byte	-119
 2069 0060 8A       		.byte	-118
 2070 0061 92       		.byte	-110
 2071 0062 93       		.byte	-109
 2072 0063 94       		.byte	-108
 2073 0064 95       		.byte	-107
 2074 0065 96       		.byte	-106
 2075 0066 97       		.byte	-105
 2076 0067 98       		.byte	-104
 2077 0068 99       		.byte	-103
 2078 0069 9A       		.byte	-102
 2079 006a A2       		.byte	-94
 2080 006b A3       		.byte	-93
 2081 006c A4       		.byte	-92
 2082 006d A5       		.byte	-91
 2083 006e A6       		.byte	-90
 2084 006f A7       		.byte	-89
ARM GAS  /tmp/ccCB0eLe.s 			page 51


 2085 0070 A8       		.byte	-88
 2086 0071 A9       		.byte	-87
 2087 0072 AA       		.byte	-86
 2088 0073 B2       		.byte	-78
 2089 0074 B3       		.byte	-77
 2090 0075 B4       		.byte	-76
 2091 0076 B5       		.byte	-75
 2092 0077 B6       		.byte	-74
 2093 0078 B7       		.byte	-73
 2094 0079 B8       		.byte	-72
 2095 007a B9       		.byte	-71
 2096 007b BA       		.byte	-70
 2097 007c C2       		.byte	-62
 2098 007d C3       		.byte	-61
 2099 007e C4       		.byte	-60
 2100 007f C5       		.byte	-59
 2101 0080 C6       		.byte	-58
 2102 0081 C7       		.byte	-57
 2103 0082 C8       		.byte	-56
 2104 0083 C9       		.byte	-55
 2105 0084 CA       		.byte	-54
 2106 0085 D2       		.byte	-46
 2107 0086 D3       		.byte	-45
 2108 0087 D4       		.byte	-44
 2109 0088 D5       		.byte	-43
 2110 0089 D6       		.byte	-42
 2111 008a D7       		.byte	-41
 2112 008b D8       		.byte	-40
 2113 008c D9       		.byte	-39
 2114 008d DA       		.byte	-38
 2115 008e E1       		.byte	-31
 2116 008f E2       		.byte	-30
 2117 0090 E3       		.byte	-29
 2118 0091 E4       		.byte	-28
 2119 0092 E5       		.byte	-27
 2120 0093 E6       		.byte	-26
 2121 0094 E7       		.byte	-25
 2122 0095 E8       		.byte	-24
 2123 0096 E9       		.byte	-23
 2124 0097 EA       		.byte	-22
 2125 0098 F1       		.byte	-15
 2126 0099 F2       		.byte	-14
 2127 009a F3       		.byte	-13
 2128 009b F4       		.byte	-12
 2129 009c F5       		.byte	-11
 2130 009d F6       		.byte	-10
 2131 009e F7       		.byte	-9
 2132 009f F8       		.byte	-8
 2133 00a0 F9       		.byte	-7
 2134 00a1 FA       		.byte	-6
 2135              		.section	.rodata.val_dc_chrominance.8047,"a",%progbits
 2136              		.align	2
 2137              		.set	.LANCHOR4,. + 0
 2140              	val_dc_chrominance.8047:
 2141 0000 00       		.byte	0
 2142 0001 01       		.byte	1
 2143 0002 02       		.byte	2
ARM GAS  /tmp/ccCB0eLe.s 			page 52


 2144 0003 03       		.byte	3
 2145 0004 04       		.byte	4
 2146 0005 05       		.byte	5
 2147 0006 06       		.byte	6
 2148 0007 07       		.byte	7
 2149 0008 08       		.byte	8
 2150 0009 09       		.byte	9
 2151 000a 0A       		.byte	10
 2152 000b 0B       		.byte	11
 2153              		.section	.rodata.val_dc_luminance.8045,"a",%progbits
 2154              		.align	2
 2155              		.set	.LANCHOR0,. + 0
 2158              	val_dc_luminance.8045:
 2159 0000 00       		.byte	0
 2160 0001 01       		.byte	1
 2161 0002 02       		.byte	2
 2162 0003 03       		.byte	3
 2163 0004 04       		.byte	4
 2164 0005 05       		.byte	5
 2165 0006 06       		.byte	6
 2166 0007 07       		.byte	7
 2167 0008 08       		.byte	8
 2168 0009 09       		.byte	9
 2169 000a 0A       		.byte	10
 2170 000b 0B       		.byte	11
 2171              		.text
 2172              	.Letext0:
 2173              		.file 2 "/home/jaxc/opt/gcc-arm-none-eabi-7-2018-q2-update/lib/gcc/arm-none-eabi/7.3.1/include/std
 2174              		.file 3 "/home/jaxc/opt/gcc-arm-none-eabi-7-2018-q2-update/arm-none-eabi/include/sys/lock.h"
 2175              		.file 4 "/home/jaxc/opt/gcc-arm-none-eabi-7-2018-q2-update/arm-none-eabi/include/sys/_types.h"
 2176              		.file 5 "/home/jaxc/opt/gcc-arm-none-eabi-7-2018-q2-update/arm-none-eabi/include/sys/reent.h"
 2177              		.file 6 "/home/jaxc/opt/gcc-arm-none-eabi-7-2018-q2-update/arm-none-eabi/include/stdlib.h"
 2178              		.file 7 "Inc/jmorecfg.h"
 2179              		.file 8 "Middlewares/Third_Party/LibJPEG/include/jpeglib.h"
 2180              		.file 9 "Middlewares/Third_Party/LibJPEG/include/jpegint.h"
 2181              		.file 10 "Middlewares/Third_Party/LibJPEG/include/jerror.h"
 2182              		.file 11 "<built-in>"
ARM GAS  /tmp/ccCB0eLe.s 			page 53

