ARM GAS  /tmp/ccQtGQz2.s 			page 1


   1              		.cpu cortex-m7
   2              		.eabi_attribute 27, 1
   3              		.eabi_attribute 28, 1
   4              		.eabi_attribute 20, 1
   5              		.eabi_attribute 21, 1
   6              		.eabi_attribute 23, 3
   7              		.eabi_attribute 24, 1
   8              		.eabi_attribute 25, 1
   9              		.eabi_attribute 26, 1
  10              		.eabi_attribute 30, 1
  11              		.eabi_attribute 34, 1
  12              		.eabi_attribute 18, 4
  13              		.file	"jdapimin.c"
  14              		.text
  15              	.Ltext0:
  16              		.cfi_sections	.debug_frame
  17              		.section	.text.default_decompress_parms,"ax",%progbits
  18              		.align	1
  19              		.syntax unified
  20              		.thumb
  21              		.thumb_func
  22              		.fpu fpv5-sp-d16
  24              	default_decompress_parms:
  25              	.LFB6:
  26              		.file 1 "Middlewares/Third_Party/LibJPEG/source/jdapimin.c"
   1:Middlewares/Third_Party/LibJPEG/source/jdapimin.c **** /*
   2:Middlewares/Third_Party/LibJPEG/source/jdapimin.c ****  * jdapimin.c
   3:Middlewares/Third_Party/LibJPEG/source/jdapimin.c ****  *
   4:Middlewares/Third_Party/LibJPEG/source/jdapimin.c ****  * Copyright (C) 1994-1998, Thomas G. Lane.
   5:Middlewares/Third_Party/LibJPEG/source/jdapimin.c ****  * Modified 2009 by Guido Vollbeding.
   6:Middlewares/Third_Party/LibJPEG/source/jdapimin.c ****  * This file is part of the Independent JPEG Group's software.
   7:Middlewares/Third_Party/LibJPEG/source/jdapimin.c ****  * For conditions of distribution and use, see the accompanying README file.
   8:Middlewares/Third_Party/LibJPEG/source/jdapimin.c ****  *
   9:Middlewares/Third_Party/LibJPEG/source/jdapimin.c ****  * This file contains application interface code for the decompression half
  10:Middlewares/Third_Party/LibJPEG/source/jdapimin.c ****  * of the JPEG library.  These are the "minimum" API routines that may be
  11:Middlewares/Third_Party/LibJPEG/source/jdapimin.c ****  * needed in either the normal full-decompression case or the
  12:Middlewares/Third_Party/LibJPEG/source/jdapimin.c ****  * transcoding-only case.
  13:Middlewares/Third_Party/LibJPEG/source/jdapimin.c ****  *
  14:Middlewares/Third_Party/LibJPEG/source/jdapimin.c ****  * Most of the routines intended to be called directly by an application
  15:Middlewares/Third_Party/LibJPEG/source/jdapimin.c ****  * are in this file or in jdapistd.c.  But also see jcomapi.c for routines
  16:Middlewares/Third_Party/LibJPEG/source/jdapimin.c ****  * shared by compression and decompression, and jdtrans.c for the transcoding
  17:Middlewares/Third_Party/LibJPEG/source/jdapimin.c ****  * case.
  18:Middlewares/Third_Party/LibJPEG/source/jdapimin.c ****  */
  19:Middlewares/Third_Party/LibJPEG/source/jdapimin.c **** 
  20:Middlewares/Third_Party/LibJPEG/source/jdapimin.c **** #define JPEG_INTERNALS
  21:Middlewares/Third_Party/LibJPEG/source/jdapimin.c **** #include "jinclude.h"
  22:Middlewares/Third_Party/LibJPEG/source/jdapimin.c **** #include "jpeglib.h"
  23:Middlewares/Third_Party/LibJPEG/source/jdapimin.c **** 
  24:Middlewares/Third_Party/LibJPEG/source/jdapimin.c **** 
  25:Middlewares/Third_Party/LibJPEG/source/jdapimin.c **** /*
  26:Middlewares/Third_Party/LibJPEG/source/jdapimin.c ****  * Initialization of a JPEG decompression object.
  27:Middlewares/Third_Party/LibJPEG/source/jdapimin.c ****  * The error manager must already be set up (in case memory manager fails).
  28:Middlewares/Third_Party/LibJPEG/source/jdapimin.c ****  */
  29:Middlewares/Third_Party/LibJPEG/source/jdapimin.c **** 
  30:Middlewares/Third_Party/LibJPEG/source/jdapimin.c **** GLOBAL(void)
  31:Middlewares/Third_Party/LibJPEG/source/jdapimin.c **** jpeg_CreateDecompress (j_decompress_ptr cinfo, int version, size_t structsize)
  32:Middlewares/Third_Party/LibJPEG/source/jdapimin.c **** {
ARM GAS  /tmp/ccQtGQz2.s 			page 2


  33:Middlewares/Third_Party/LibJPEG/source/jdapimin.c ****   int i;
  34:Middlewares/Third_Party/LibJPEG/source/jdapimin.c **** 
  35:Middlewares/Third_Party/LibJPEG/source/jdapimin.c ****   /* Guard against version mismatches between library and caller. */
  36:Middlewares/Third_Party/LibJPEG/source/jdapimin.c ****   cinfo->mem = NULL;		/* so jpeg_destroy knows mem mgr not called */
  37:Middlewares/Third_Party/LibJPEG/source/jdapimin.c ****   if (version != JPEG_LIB_VERSION)
  38:Middlewares/Third_Party/LibJPEG/source/jdapimin.c ****     ERREXIT2(cinfo, JERR_BAD_LIB_VERSION, JPEG_LIB_VERSION, version);
  39:Middlewares/Third_Party/LibJPEG/source/jdapimin.c ****   if (structsize != SIZEOF(struct jpeg_decompress_struct))
  40:Middlewares/Third_Party/LibJPEG/source/jdapimin.c ****     ERREXIT2(cinfo, JERR_BAD_STRUCT_SIZE, 
  41:Middlewares/Third_Party/LibJPEG/source/jdapimin.c **** 	     (int) SIZEOF(struct jpeg_decompress_struct), (int) structsize);
  42:Middlewares/Third_Party/LibJPEG/source/jdapimin.c **** 
  43:Middlewares/Third_Party/LibJPEG/source/jdapimin.c ****   /* For debugging purposes, we zero the whole master structure.
  44:Middlewares/Third_Party/LibJPEG/source/jdapimin.c ****    * But the application has already set the err pointer, and may have set
  45:Middlewares/Third_Party/LibJPEG/source/jdapimin.c ****    * client_data, so we have to save and restore those fields.
  46:Middlewares/Third_Party/LibJPEG/source/jdapimin.c ****    * Note: if application hasn't set client_data, tools like Purify may
  47:Middlewares/Third_Party/LibJPEG/source/jdapimin.c ****    * complain here.
  48:Middlewares/Third_Party/LibJPEG/source/jdapimin.c ****    */
  49:Middlewares/Third_Party/LibJPEG/source/jdapimin.c ****   {
  50:Middlewares/Third_Party/LibJPEG/source/jdapimin.c ****     struct jpeg_error_mgr * err = cinfo->err;
  51:Middlewares/Third_Party/LibJPEG/source/jdapimin.c ****     void * client_data = cinfo->client_data; /* ignore Purify complaint here */
  52:Middlewares/Third_Party/LibJPEG/source/jdapimin.c ****     MEMZERO(cinfo, SIZEOF(struct jpeg_decompress_struct));
  53:Middlewares/Third_Party/LibJPEG/source/jdapimin.c ****     cinfo->err = err;
  54:Middlewares/Third_Party/LibJPEG/source/jdapimin.c ****     cinfo->client_data = client_data;
  55:Middlewares/Third_Party/LibJPEG/source/jdapimin.c ****   }
  56:Middlewares/Third_Party/LibJPEG/source/jdapimin.c ****   cinfo->is_decompressor = TRUE;
  57:Middlewares/Third_Party/LibJPEG/source/jdapimin.c **** 
  58:Middlewares/Third_Party/LibJPEG/source/jdapimin.c ****   /* Initialize a memory manager instance for this object */
  59:Middlewares/Third_Party/LibJPEG/source/jdapimin.c ****   jinit_memory_mgr((j_common_ptr) cinfo);
  60:Middlewares/Third_Party/LibJPEG/source/jdapimin.c **** 
  61:Middlewares/Third_Party/LibJPEG/source/jdapimin.c ****   /* Zero out pointers to permanent structures. */
  62:Middlewares/Third_Party/LibJPEG/source/jdapimin.c ****   cinfo->progress = NULL;
  63:Middlewares/Third_Party/LibJPEG/source/jdapimin.c ****   cinfo->src = NULL;
  64:Middlewares/Third_Party/LibJPEG/source/jdapimin.c **** 
  65:Middlewares/Third_Party/LibJPEG/source/jdapimin.c ****   for (i = 0; i < NUM_QUANT_TBLS; i++)
  66:Middlewares/Third_Party/LibJPEG/source/jdapimin.c ****     cinfo->quant_tbl_ptrs[i] = NULL;
  67:Middlewares/Third_Party/LibJPEG/source/jdapimin.c **** 
  68:Middlewares/Third_Party/LibJPEG/source/jdapimin.c ****   for (i = 0; i < NUM_HUFF_TBLS; i++) {
  69:Middlewares/Third_Party/LibJPEG/source/jdapimin.c ****     cinfo->dc_huff_tbl_ptrs[i] = NULL;
  70:Middlewares/Third_Party/LibJPEG/source/jdapimin.c ****     cinfo->ac_huff_tbl_ptrs[i] = NULL;
  71:Middlewares/Third_Party/LibJPEG/source/jdapimin.c ****   }
  72:Middlewares/Third_Party/LibJPEG/source/jdapimin.c **** 
  73:Middlewares/Third_Party/LibJPEG/source/jdapimin.c ****   /* Initialize marker processor so application can override methods
  74:Middlewares/Third_Party/LibJPEG/source/jdapimin.c ****    * for COM, APPn markers before calling jpeg_read_header.
  75:Middlewares/Third_Party/LibJPEG/source/jdapimin.c ****    */
  76:Middlewares/Third_Party/LibJPEG/source/jdapimin.c ****   cinfo->marker_list = NULL;
  77:Middlewares/Third_Party/LibJPEG/source/jdapimin.c ****   jinit_marker_reader(cinfo);
  78:Middlewares/Third_Party/LibJPEG/source/jdapimin.c **** 
  79:Middlewares/Third_Party/LibJPEG/source/jdapimin.c ****   /* And initialize the overall input controller. */
  80:Middlewares/Third_Party/LibJPEG/source/jdapimin.c ****   jinit_input_controller(cinfo);
  81:Middlewares/Third_Party/LibJPEG/source/jdapimin.c **** 
  82:Middlewares/Third_Party/LibJPEG/source/jdapimin.c ****   /* OK, I'm ready */
  83:Middlewares/Third_Party/LibJPEG/source/jdapimin.c ****   cinfo->global_state = DSTATE_START;
  84:Middlewares/Third_Party/LibJPEG/source/jdapimin.c **** }
  85:Middlewares/Third_Party/LibJPEG/source/jdapimin.c **** 
  86:Middlewares/Third_Party/LibJPEG/source/jdapimin.c **** 
  87:Middlewares/Third_Party/LibJPEG/source/jdapimin.c **** /*
  88:Middlewares/Third_Party/LibJPEG/source/jdapimin.c ****  * Destruction of a JPEG decompression object
  89:Middlewares/Third_Party/LibJPEG/source/jdapimin.c ****  */
ARM GAS  /tmp/ccQtGQz2.s 			page 3


  90:Middlewares/Third_Party/LibJPEG/source/jdapimin.c **** 
  91:Middlewares/Third_Party/LibJPEG/source/jdapimin.c **** GLOBAL(void)
  92:Middlewares/Third_Party/LibJPEG/source/jdapimin.c **** jpeg_destroy_decompress (j_decompress_ptr cinfo)
  93:Middlewares/Third_Party/LibJPEG/source/jdapimin.c **** {
  94:Middlewares/Third_Party/LibJPEG/source/jdapimin.c ****   jpeg_destroy((j_common_ptr) cinfo); /* use common routine */
  95:Middlewares/Third_Party/LibJPEG/source/jdapimin.c **** }
  96:Middlewares/Third_Party/LibJPEG/source/jdapimin.c **** 
  97:Middlewares/Third_Party/LibJPEG/source/jdapimin.c **** 
  98:Middlewares/Third_Party/LibJPEG/source/jdapimin.c **** /*
  99:Middlewares/Third_Party/LibJPEG/source/jdapimin.c ****  * Abort processing of a JPEG decompression operation,
 100:Middlewares/Third_Party/LibJPEG/source/jdapimin.c ****  * but don't destroy the object itself.
 101:Middlewares/Third_Party/LibJPEG/source/jdapimin.c ****  */
 102:Middlewares/Third_Party/LibJPEG/source/jdapimin.c **** 
 103:Middlewares/Third_Party/LibJPEG/source/jdapimin.c **** GLOBAL(void)
 104:Middlewares/Third_Party/LibJPEG/source/jdapimin.c **** jpeg_abort_decompress (j_decompress_ptr cinfo)
 105:Middlewares/Third_Party/LibJPEG/source/jdapimin.c **** {
 106:Middlewares/Third_Party/LibJPEG/source/jdapimin.c ****   jpeg_abort((j_common_ptr) cinfo); /* use common routine */
 107:Middlewares/Third_Party/LibJPEG/source/jdapimin.c **** }
 108:Middlewares/Third_Party/LibJPEG/source/jdapimin.c **** 
 109:Middlewares/Third_Party/LibJPEG/source/jdapimin.c **** 
 110:Middlewares/Third_Party/LibJPEG/source/jdapimin.c **** /*
 111:Middlewares/Third_Party/LibJPEG/source/jdapimin.c ****  * Set default decompression parameters.
 112:Middlewares/Third_Party/LibJPEG/source/jdapimin.c ****  */
 113:Middlewares/Third_Party/LibJPEG/source/jdapimin.c **** 
 114:Middlewares/Third_Party/LibJPEG/source/jdapimin.c **** LOCAL(void)
 115:Middlewares/Third_Party/LibJPEG/source/jdapimin.c **** default_decompress_parms (j_decompress_ptr cinfo)
 116:Middlewares/Third_Party/LibJPEG/source/jdapimin.c **** {
  27              		.loc 1 116 0
  28              		.cfi_startproc
  29              		@ args = 0, pretend = 0, frame = 0
  30              		@ frame_needed = 0, uses_anonymous_args = 0
  31              	.LVL0:
  32 0000 10B5     		push	{r4, lr}
  33              	.LCFI0:
  34              		.cfi_def_cfa_offset 8
  35              		.cfi_offset 4, -8
  36              		.cfi_offset 14, -4
  37 0002 0446     		mov	r4, r0
 117:Middlewares/Third_Party/LibJPEG/source/jdapimin.c ****   /* Guess the input colorspace, and set output colorspace accordingly. */
 118:Middlewares/Third_Party/LibJPEG/source/jdapimin.c ****   /* (Wish JPEG committee had provided a real way to specify this...) */
 119:Middlewares/Third_Party/LibJPEG/source/jdapimin.c ****   /* Note application may override our guesses. */
 120:Middlewares/Third_Party/LibJPEG/source/jdapimin.c ****   switch (cinfo->num_components) {
  38              		.loc 1 120 0
  39 0004 436A     		ldr	r3, [r0, #36]
  40 0006 032B     		cmp	r3, #3
  41 0008 2BD0     		beq	.L3
  42 000a 042B     		cmp	r3, #4
  43 000c 7DD0     		beq	.L4
  44 000e 012B     		cmp	r3, #1
  45 0010 05D0     		beq	.L24
 121:Middlewares/Third_Party/LibJPEG/source/jdapimin.c ****   case 1:
 122:Middlewares/Third_Party/LibJPEG/source/jdapimin.c ****     cinfo->jpeg_color_space = JCS_GRAYSCALE;
 123:Middlewares/Third_Party/LibJPEG/source/jdapimin.c ****     cinfo->out_color_space = JCS_GRAYSCALE;
 124:Middlewares/Third_Party/LibJPEG/source/jdapimin.c ****     break;
 125:Middlewares/Third_Party/LibJPEG/source/jdapimin.c ****     
 126:Middlewares/Third_Party/LibJPEG/source/jdapimin.c ****   case 3:
 127:Middlewares/Third_Party/LibJPEG/source/jdapimin.c ****     if (cinfo->saw_JFIF_marker) {
ARM GAS  /tmp/ccQtGQz2.s 			page 4


 128:Middlewares/Third_Party/LibJPEG/source/jdapimin.c ****       cinfo->jpeg_color_space = JCS_YCbCr; /* JFIF implies YCbCr */
 129:Middlewares/Third_Party/LibJPEG/source/jdapimin.c ****     } else if (cinfo->saw_Adobe_marker) {
 130:Middlewares/Third_Party/LibJPEG/source/jdapimin.c ****       switch (cinfo->Adobe_transform) {
 131:Middlewares/Third_Party/LibJPEG/source/jdapimin.c ****       case 0:
 132:Middlewares/Third_Party/LibJPEG/source/jdapimin.c **** 	cinfo->jpeg_color_space = JCS_RGB;
 133:Middlewares/Third_Party/LibJPEG/source/jdapimin.c **** 	break;
 134:Middlewares/Third_Party/LibJPEG/source/jdapimin.c ****       case 1:
 135:Middlewares/Third_Party/LibJPEG/source/jdapimin.c **** 	cinfo->jpeg_color_space = JCS_YCbCr;
 136:Middlewares/Third_Party/LibJPEG/source/jdapimin.c **** 	break;
 137:Middlewares/Third_Party/LibJPEG/source/jdapimin.c ****       default:
 138:Middlewares/Third_Party/LibJPEG/source/jdapimin.c **** 	WARNMS1(cinfo, JWRN_ADOBE_XFORM, cinfo->Adobe_transform);
 139:Middlewares/Third_Party/LibJPEG/source/jdapimin.c **** 	cinfo->jpeg_color_space = JCS_YCbCr; /* assume it's YCbCr */
 140:Middlewares/Third_Party/LibJPEG/source/jdapimin.c **** 	break;
 141:Middlewares/Third_Party/LibJPEG/source/jdapimin.c ****       }
 142:Middlewares/Third_Party/LibJPEG/source/jdapimin.c ****     } else {
 143:Middlewares/Third_Party/LibJPEG/source/jdapimin.c ****       /* Saw no special markers, try to guess from the component IDs */
 144:Middlewares/Third_Party/LibJPEG/source/jdapimin.c ****       int cid0 = cinfo->comp_info[0].component_id;
 145:Middlewares/Third_Party/LibJPEG/source/jdapimin.c ****       int cid1 = cinfo->comp_info[1].component_id;
 146:Middlewares/Third_Party/LibJPEG/source/jdapimin.c ****       int cid2 = cinfo->comp_info[2].component_id;
 147:Middlewares/Third_Party/LibJPEG/source/jdapimin.c **** 
 148:Middlewares/Third_Party/LibJPEG/source/jdapimin.c ****       if (cid0 == 1 && cid1 == 2 && cid2 == 3)
 149:Middlewares/Third_Party/LibJPEG/source/jdapimin.c **** 	cinfo->jpeg_color_space = JCS_YCbCr; /* assume JFIF w/out marker */
 150:Middlewares/Third_Party/LibJPEG/source/jdapimin.c ****       else if (cid0 == 82 && cid1 == 71 && cid2 == 66)
 151:Middlewares/Third_Party/LibJPEG/source/jdapimin.c **** 	cinfo->jpeg_color_space = JCS_RGB; /* ASCII 'R', 'G', 'B' */
 152:Middlewares/Third_Party/LibJPEG/source/jdapimin.c ****       else {
 153:Middlewares/Third_Party/LibJPEG/source/jdapimin.c **** 	TRACEMS3(cinfo, 1, JTRC_UNKNOWN_IDS, cid0, cid1, cid2);
 154:Middlewares/Third_Party/LibJPEG/source/jdapimin.c **** 	cinfo->jpeg_color_space = JCS_YCbCr; /* assume it's YCbCr */
 155:Middlewares/Third_Party/LibJPEG/source/jdapimin.c ****       }
 156:Middlewares/Third_Party/LibJPEG/source/jdapimin.c ****     }
 157:Middlewares/Third_Party/LibJPEG/source/jdapimin.c ****     /* Always guess RGB is proper output colorspace. */
 158:Middlewares/Third_Party/LibJPEG/source/jdapimin.c ****     cinfo->out_color_space = JCS_RGB;
 159:Middlewares/Third_Party/LibJPEG/source/jdapimin.c ****     break;
 160:Middlewares/Third_Party/LibJPEG/source/jdapimin.c ****     
 161:Middlewares/Third_Party/LibJPEG/source/jdapimin.c ****   case 4:
 162:Middlewares/Third_Party/LibJPEG/source/jdapimin.c ****     if (cinfo->saw_Adobe_marker) {
 163:Middlewares/Third_Party/LibJPEG/source/jdapimin.c ****       switch (cinfo->Adobe_transform) {
 164:Middlewares/Third_Party/LibJPEG/source/jdapimin.c ****       case 0:
 165:Middlewares/Third_Party/LibJPEG/source/jdapimin.c **** 	cinfo->jpeg_color_space = JCS_CMYK;
 166:Middlewares/Third_Party/LibJPEG/source/jdapimin.c **** 	break;
 167:Middlewares/Third_Party/LibJPEG/source/jdapimin.c ****       case 2:
 168:Middlewares/Third_Party/LibJPEG/source/jdapimin.c **** 	cinfo->jpeg_color_space = JCS_YCCK;
 169:Middlewares/Third_Party/LibJPEG/source/jdapimin.c **** 	break;
 170:Middlewares/Third_Party/LibJPEG/source/jdapimin.c ****       default:
 171:Middlewares/Third_Party/LibJPEG/source/jdapimin.c **** 	WARNMS1(cinfo, JWRN_ADOBE_XFORM, cinfo->Adobe_transform);
 172:Middlewares/Third_Party/LibJPEG/source/jdapimin.c **** 	cinfo->jpeg_color_space = JCS_YCCK; /* assume it's YCCK */
 173:Middlewares/Third_Party/LibJPEG/source/jdapimin.c **** 	break;
 174:Middlewares/Third_Party/LibJPEG/source/jdapimin.c ****       }
 175:Middlewares/Third_Party/LibJPEG/source/jdapimin.c ****     } else {
 176:Middlewares/Third_Party/LibJPEG/source/jdapimin.c ****       /* No special markers, assume straight CMYK. */
 177:Middlewares/Third_Party/LibJPEG/source/jdapimin.c ****       cinfo->jpeg_color_space = JCS_CMYK;
 178:Middlewares/Third_Party/LibJPEG/source/jdapimin.c ****     }
 179:Middlewares/Third_Party/LibJPEG/source/jdapimin.c ****     cinfo->out_color_space = JCS_CMYK;
 180:Middlewares/Third_Party/LibJPEG/source/jdapimin.c ****     break;
 181:Middlewares/Third_Party/LibJPEG/source/jdapimin.c ****     
 182:Middlewares/Third_Party/LibJPEG/source/jdapimin.c ****   default:
 183:Middlewares/Third_Party/LibJPEG/source/jdapimin.c ****     cinfo->jpeg_color_space = JCS_UNKNOWN;
  46              		.loc 1 183 0
ARM GAS  /tmp/ccQtGQz2.s 			page 5


  47 0012 0023     		movs	r3, #0
  48 0014 80F82830 		strb	r3, [r0, #40]
 184:Middlewares/Third_Party/LibJPEG/source/jdapimin.c ****     cinfo->out_color_space = JCS_UNKNOWN;
  49              		.loc 1 184 0
  50 0018 80F82930 		strb	r3, [r0, #41]
 185:Middlewares/Third_Party/LibJPEG/source/jdapimin.c ****     break;
  51              		.loc 1 185 0
  52 001c 03E0     		b	.L6
  53              	.L24:
 122:Middlewares/Third_Party/LibJPEG/source/jdapimin.c ****     cinfo->out_color_space = JCS_GRAYSCALE;
  54              		.loc 1 122 0
  55 001e 80F82830 		strb	r3, [r0, #40]
 123:Middlewares/Third_Party/LibJPEG/source/jdapimin.c ****     break;
  56              		.loc 1 123 0
  57 0022 80F82930 		strb	r3, [r0, #41]
  58              	.LVL1:
  59              	.L6:
 186:Middlewares/Third_Party/LibJPEG/source/jdapimin.c ****   }
 187:Middlewares/Third_Party/LibJPEG/source/jdapimin.c **** 
 188:Middlewares/Third_Party/LibJPEG/source/jdapimin.c ****   /* Set defaults for other decompression parameters. */
 189:Middlewares/Third_Party/LibJPEG/source/jdapimin.c ****   cinfo->scale_num = cinfo->block_size;		/* 1:1 scaling */
  60              		.loc 1 189 0
  61 0026 D4F8A831 		ldr	r3, [r4, #424]
  62 002a E362     		str	r3, [r4, #44]
 190:Middlewares/Third_Party/LibJPEG/source/jdapimin.c ****   cinfo->scale_denom = cinfo->block_size;
  63              		.loc 1 190 0
  64 002c 2363     		str	r3, [r4, #48]
 191:Middlewares/Third_Party/LibJPEG/source/jdapimin.c ****   cinfo->output_gamma = 1.0;
  65              		.loc 1 191 0
  66 002e 0022     		movs	r2, #0
  67 0030 494B     		ldr	r3, .L27
  68 0032 C4E90E23 		strd	r2, [r4, #56]
 192:Middlewares/Third_Party/LibJPEG/source/jdapimin.c ****   cinfo->buffered_image = FALSE;
  69              		.loc 1 192 0
  70 0036 0023     		movs	r3, #0
  71 0038 2364     		str	r3, [r4, #64]
 193:Middlewares/Third_Party/LibJPEG/source/jdapimin.c ****   cinfo->raw_data_out = FALSE;
  72              		.loc 1 193 0
  73 003a 6364     		str	r3, [r4, #68]
 194:Middlewares/Third_Party/LibJPEG/source/jdapimin.c ****   cinfo->dct_method = JDCT_DEFAULT;
  74              		.loc 1 194 0
  75 003c 84F84830 		strb	r3, [r4, #72]
 195:Middlewares/Third_Party/LibJPEG/source/jdapimin.c ****   cinfo->do_fancy_upsampling = TRUE;
  76              		.loc 1 195 0
  77 0040 0122     		movs	r2, #1
  78 0042 E264     		str	r2, [r4, #76]
 196:Middlewares/Third_Party/LibJPEG/source/jdapimin.c ****   cinfo->do_block_smoothing = TRUE;
  79              		.loc 1 196 0
  80 0044 2265     		str	r2, [r4, #80]
 197:Middlewares/Third_Party/LibJPEG/source/jdapimin.c ****   cinfo->quantize_colors = FALSE;
  81              		.loc 1 197 0
  82 0046 6365     		str	r3, [r4, #84]
 198:Middlewares/Third_Party/LibJPEG/source/jdapimin.c ****   /* We set these in case application only sets quantize_colors. */
 199:Middlewares/Third_Party/LibJPEG/source/jdapimin.c ****   cinfo->dither_mode = JDITHER_FS;
  83              		.loc 1 199 0
  84 0048 0221     		movs	r1, #2
  85 004a 84F85810 		strb	r1, [r4, #88]
ARM GAS  /tmp/ccQtGQz2.s 			page 6


 200:Middlewares/Third_Party/LibJPEG/source/jdapimin.c **** #ifdef QUANT_2PASS_SUPPORTED
 201:Middlewares/Third_Party/LibJPEG/source/jdapimin.c ****   cinfo->two_pass_quantize = TRUE;
  86              		.loc 1 201 0
  87 004e E265     		str	r2, [r4, #92]
 202:Middlewares/Third_Party/LibJPEG/source/jdapimin.c **** #else
 203:Middlewares/Third_Party/LibJPEG/source/jdapimin.c ****   cinfo->two_pass_quantize = FALSE;
 204:Middlewares/Third_Party/LibJPEG/source/jdapimin.c **** #endif
 205:Middlewares/Third_Party/LibJPEG/source/jdapimin.c ****   cinfo->desired_number_of_colors = 256;
  88              		.loc 1 205 0
  89 0050 4FF48072 		mov	r2, #256
  90 0054 2266     		str	r2, [r4, #96]
 206:Middlewares/Third_Party/LibJPEG/source/jdapimin.c ****   cinfo->colormap = NULL;
  91              		.loc 1 206 0
  92 0056 C4F88830 		str	r3, [r4, #136]
 207:Middlewares/Third_Party/LibJPEG/source/jdapimin.c ****   /* Initialize for no mode change in buffered-image mode. */
 208:Middlewares/Third_Party/LibJPEG/source/jdapimin.c ****   cinfo->enable_1pass_quant = FALSE;
  93              		.loc 1 208 0
  94 005a 6366     		str	r3, [r4, #100]
 209:Middlewares/Third_Party/LibJPEG/source/jdapimin.c ****   cinfo->enable_external_quant = FALSE;
  95              		.loc 1 209 0
  96 005c A366     		str	r3, [r4, #104]
 210:Middlewares/Third_Party/LibJPEG/source/jdapimin.c ****   cinfo->enable_2pass_quant = FALSE;
  97              		.loc 1 210 0
  98 005e E366     		str	r3, [r4, #108]
 211:Middlewares/Third_Party/LibJPEG/source/jdapimin.c **** }
  99              		.loc 1 211 0
 100 0060 10BD     		pop	{r4, pc}
 101              	.LVL2:
 102              	.L3:
 127:Middlewares/Third_Party/LibJPEG/source/jdapimin.c ****       cinfo->jpeg_color_space = JCS_YCbCr; /* JFIF implies YCbCr */
 103              		.loc 1 127 0
 104 0062 D0F81C31 		ldr	r3, [r0, #284]
 105 0066 33B1     		cbz	r3, .L7
 128:Middlewares/Third_Party/LibJPEG/source/jdapimin.c ****     } else if (cinfo->saw_Adobe_marker) {
 106              		.loc 1 128 0
 107 0068 0323     		movs	r3, #3
 108 006a 80F82830 		strb	r3, [r0, #40]
 109              	.LVL3:
 110              	.L8:
 158:Middlewares/Third_Party/LibJPEG/source/jdapimin.c ****     break;
 111              		.loc 1 158 0
 112 006e 0223     		movs	r3, #2
 113 0070 84F82930 		strb	r3, [r4, #41]
 159:Middlewares/Third_Party/LibJPEG/source/jdapimin.c ****     
 114              		.loc 1 159 0
 115 0074 D7E7     		b	.L6
 116              	.LVL4:
 117              	.L7:
 129:Middlewares/Third_Party/LibJPEG/source/jdapimin.c ****       switch (cinfo->Adobe_transform) {
 118              		.loc 1 129 0
 119 0076 D0F82831 		ldr	r3, [r0, #296]
 120 007a E3B1     		cbz	r3, .L9
 130:Middlewares/Third_Party/LibJPEG/source/jdapimin.c ****       case 0:
 121              		.loc 1 130 0
 122 007c 90F82C31 		ldrb	r3, [r0, #300]	@ zero_extendqisi2
 123 0080 8BB1     		cbz	r3, .L11
 124 0082 012B     		cmp	r3, #1
ARM GAS  /tmp/ccQtGQz2.s 			page 7


 125 0084 13D0     		beq	.L12
 138:Middlewares/Third_Party/LibJPEG/source/jdapimin.c **** 	cinfo->jpeg_color_space = JCS_YCbCr; /* assume it's YCbCr */
 126              		.loc 1 138 0
 127 0086 0368     		ldr	r3, [r0]
 128 0088 7422     		movs	r2, #116
 129 008a 5A61     		str	r2, [r3, #20]
 130 008c 0368     		ldr	r3, [r0]
 131 008e 90F82C21 		ldrb	r2, [r0, #300]	@ zero_extendqisi2
 132 0092 9A61     		str	r2, [r3, #24]
 133 0094 0368     		ldr	r3, [r0]
 134 0096 5B68     		ldr	r3, [r3, #4]
 135 0098 4FF0FF31 		mov	r1, #-1
 136 009c 9847     		blx	r3
 137              	.LVL5:
 139:Middlewares/Third_Party/LibJPEG/source/jdapimin.c **** 	break;
 138              		.loc 1 139 0
 139 009e 0323     		movs	r3, #3
 140 00a0 84F82830 		strb	r3, [r4, #40]
 140:Middlewares/Third_Party/LibJPEG/source/jdapimin.c ****       }
 141              		.loc 1 140 0
 142 00a4 E3E7     		b	.L8
 143              	.LVL6:
 144              	.L11:
 132:Middlewares/Third_Party/LibJPEG/source/jdapimin.c **** 	break;
 145              		.loc 1 132 0
 146 00a6 0223     		movs	r3, #2
 147 00a8 80F82830 		strb	r3, [r0, #40]
 133:Middlewares/Third_Party/LibJPEG/source/jdapimin.c ****       case 1:
 148              		.loc 1 133 0
 149 00ac DFE7     		b	.L8
 150              	.L12:
 135:Middlewares/Third_Party/LibJPEG/source/jdapimin.c **** 	break;
 151              		.loc 1 135 0
 152 00ae 0323     		movs	r3, #3
 153 00b0 80F82830 		strb	r3, [r0, #40]
 136:Middlewares/Third_Party/LibJPEG/source/jdapimin.c ****       default:
 154              		.loc 1 136 0
 155 00b4 DBE7     		b	.L8
 156              	.L9:
 157              	.LBB2:
 144:Middlewares/Third_Party/LibJPEG/source/jdapimin.c ****       int cid1 = cinfo->comp_info[1].component_id;
 158              		.loc 1 144 0
 159 00b6 D0F8D830 		ldr	r3, [r0, #216]
 160 00ba 1968     		ldr	r1, [r3]
 161              	.LVL7:
 145:Middlewares/Third_Party/LibJPEG/source/jdapimin.c ****       int cid2 = cinfo->comp_info[2].component_id;
 162              		.loc 1 145 0
 163 00bc 9A6D     		ldr	r2, [r3, #88]
 164              	.LVL8:
 146:Middlewares/Third_Party/LibJPEG/source/jdapimin.c **** 
 165              		.loc 1 146 0
 166 00be D3F8B000 		ldr	r0, [r3, #176]
 167              	.LVL9:
 148:Middlewares/Third_Party/LibJPEG/source/jdapimin.c **** 	cinfo->jpeg_color_space = JCS_YCbCr; /* assume JFIF w/out marker */
 168              		.loc 1 148 0
 169 00c2 0129     		cmp	r1, #1
 170 00c4 08BF     		it	eq
ARM GAS  /tmp/ccQtGQz2.s 			page 8


 171 00c6 022A     		cmpeq	r2, #2
 172 00c8 01D1     		bne	.L13
 148:Middlewares/Third_Party/LibJPEG/source/jdapimin.c **** 	cinfo->jpeg_color_space = JCS_YCbCr; /* assume JFIF w/out marker */
 173              		.loc 1 148 0 is_stmt 0 discriminator 1
 174 00ca 0328     		cmp	r0, #3
 175 00cc 13D0     		beq	.L25
 176              	.L13:
 150:Middlewares/Third_Party/LibJPEG/source/jdapimin.c **** 	cinfo->jpeg_color_space = JCS_RGB; /* ASCII 'R', 'G', 'B' */
 177              		.loc 1 150 0 is_stmt 1
 178 00ce 5229     		cmp	r1, #82
 179 00d0 08BF     		it	eq
 180 00d2 472A     		cmpeq	r2, #71
 181 00d4 13D0     		beq	.L26
 182              	.L14:
 183              	.LBB3:
 153:Middlewares/Third_Party/LibJPEG/source/jdapimin.c **** 	cinfo->jpeg_color_space = JCS_YCbCr; /* assume it's YCbCr */
 184              		.loc 1 153 0
 185 00d6 2368     		ldr	r3, [r4]
 186              	.LVL10:
 187 00d8 9961     		str	r1, [r3, #24]
 188 00da DA61     		str	r2, [r3, #28]
 189 00dc 1862     		str	r0, [r3, #32]
 190 00de 2368     		ldr	r3, [r4]
 191              	.LVL11:
 192 00e0 7122     		movs	r2, #113
 193              	.LVL12:
 194 00e2 5A61     		str	r2, [r3, #20]
 195 00e4 2368     		ldr	r3, [r4]
 196 00e6 5B68     		ldr	r3, [r3, #4]
 197 00e8 0121     		movs	r1, #1
 198              	.LVL13:
 199 00ea 2046     		mov	r0, r4
 200              	.LVL14:
 201 00ec 9847     		blx	r3
 202              	.LVL15:
 203              	.LBE3:
 154:Middlewares/Third_Party/LibJPEG/source/jdapimin.c ****       }
 204              		.loc 1 154 0
 205 00ee 0323     		movs	r3, #3
 206 00f0 84F82830 		strb	r3, [r4, #40]
 207 00f4 BBE7     		b	.L8
 208              	.LVL16:
 209              	.L25:
 149:Middlewares/Third_Party/LibJPEG/source/jdapimin.c ****       else if (cid0 == 82 && cid1 == 71 && cid2 == 66)
 210              		.loc 1 149 0
 211 00f6 0323     		movs	r3, #3
 212 00f8 84F82830 		strb	r3, [r4, #40]
 213 00fc B7E7     		b	.L8
 214              	.L26:
 150:Middlewares/Third_Party/LibJPEG/source/jdapimin.c **** 	cinfo->jpeg_color_space = JCS_RGB; /* ASCII 'R', 'G', 'B' */
 215              		.loc 1 150 0 discriminator 1
 216 00fe 4228     		cmp	r0, #66
 217 0100 E9D1     		bne	.L14
 151:Middlewares/Third_Party/LibJPEG/source/jdapimin.c ****       else {
 218              		.loc 1 151 0
 219 0102 0223     		movs	r3, #2
 220 0104 84F82830 		strb	r3, [r4, #40]
ARM GAS  /tmp/ccQtGQz2.s 			page 9


 221 0108 B1E7     		b	.L8
 222              	.LVL17:
 223              	.L4:
 224              	.LBE2:
 162:Middlewares/Third_Party/LibJPEG/source/jdapimin.c ****       switch (cinfo->Adobe_transform) {
 225              		.loc 1 162 0
 226 010a D0F82831 		ldr	r3, [r0, #296]
 227 010e E3B1     		cbz	r3, .L15
 163:Middlewares/Third_Party/LibJPEG/source/jdapimin.c ****       case 0:
 228              		.loc 1 163 0
 229 0110 90F82C31 		ldrb	r3, [r0, #300]	@ zero_extendqisi2
 230 0114 8BB1     		cbz	r3, .L17
 231 0116 022B     		cmp	r3, #2
 232 0118 13D0     		beq	.L18
 171:Middlewares/Third_Party/LibJPEG/source/jdapimin.c **** 	cinfo->jpeg_color_space = JCS_YCCK; /* assume it's YCCK */
 233              		.loc 1 171 0
 234 011a 0368     		ldr	r3, [r0]
 235 011c 7422     		movs	r2, #116
 236 011e 5A61     		str	r2, [r3, #20]
 237 0120 0368     		ldr	r3, [r0]
 238 0122 90F82C21 		ldrb	r2, [r0, #300]	@ zero_extendqisi2
 239 0126 9A61     		str	r2, [r3, #24]
 240 0128 0368     		ldr	r3, [r0]
 241 012a 5B68     		ldr	r3, [r3, #4]
 242 012c 4FF0FF31 		mov	r1, #-1
 243 0130 9847     		blx	r3
 244              	.LVL18:
 172:Middlewares/Third_Party/LibJPEG/source/jdapimin.c **** 	break;
 245              		.loc 1 172 0
 246 0132 0523     		movs	r3, #5
 247 0134 84F82830 		strb	r3, [r4, #40]
 173:Middlewares/Third_Party/LibJPEG/source/jdapimin.c ****       }
 248              		.loc 1 173 0
 249 0138 0AE0     		b	.L19
 250              	.LVL19:
 251              	.L17:
 165:Middlewares/Third_Party/LibJPEG/source/jdapimin.c **** 	break;
 252              		.loc 1 165 0
 253 013a 0423     		movs	r3, #4
 254 013c 80F82830 		strb	r3, [r0, #40]
 166:Middlewares/Third_Party/LibJPEG/source/jdapimin.c ****       case 2:
 255              		.loc 1 166 0
 256 0140 06E0     		b	.L19
 257              	.L18:
 168:Middlewares/Third_Party/LibJPEG/source/jdapimin.c **** 	break;
 258              		.loc 1 168 0
 259 0142 0523     		movs	r3, #5
 260 0144 80F82830 		strb	r3, [r0, #40]
 169:Middlewares/Third_Party/LibJPEG/source/jdapimin.c ****       default:
 261              		.loc 1 169 0
 262 0148 02E0     		b	.L19
 263              	.L15:
 177:Middlewares/Third_Party/LibJPEG/source/jdapimin.c ****     }
 264              		.loc 1 177 0
 265 014a 0423     		movs	r3, #4
 266 014c 80F82830 		strb	r3, [r0, #40]
 267              	.LVL20:
ARM GAS  /tmp/ccQtGQz2.s 			page 10


 268              	.L19:
 179:Middlewares/Third_Party/LibJPEG/source/jdapimin.c ****     break;
 269              		.loc 1 179 0
 270 0150 0423     		movs	r3, #4
 271 0152 84F82930 		strb	r3, [r4, #41]
 180:Middlewares/Third_Party/LibJPEG/source/jdapimin.c ****     
 272              		.loc 1 180 0
 273 0156 66E7     		b	.L6
 274              	.L28:
 275              		.align	2
 276              	.L27:
 277 0158 0000F03F 		.word	1072693248
 278              		.cfi_endproc
 279              	.LFE6:
 281              		.section	.text.jpeg_CreateDecompress,"ax",%progbits
 282              		.align	1
 283              		.global	jpeg_CreateDecompress
 284              		.syntax unified
 285              		.thumb
 286              		.thumb_func
 287              		.fpu fpv5-sp-d16
 289              	jpeg_CreateDecompress:
 290              	.LFB3:
  32:Middlewares/Third_Party/LibJPEG/source/jdapimin.c ****   int i;
 291              		.loc 1 32 0
 292              		.cfi_startproc
 293              		@ args = 0, pretend = 0, frame = 0
 294              		@ frame_needed = 0, uses_anonymous_args = 0
 295              	.LVL21:
 296 0000 70B5     		push	{r4, r5, r6, lr}
 297              	.LCFI1:
 298              		.cfi_def_cfa_offset 16
 299              		.cfi_offset 4, -16
 300              		.cfi_offset 5, -12
 301              		.cfi_offset 6, -8
 302              		.cfi_offset 14, -4
 303 0002 0446     		mov	r4, r0
 304 0004 1546     		mov	r5, r2
  36:Middlewares/Third_Party/LibJPEG/source/jdapimin.c ****   if (version != JPEG_LIB_VERSION)
 305              		.loc 1 36 0
 306 0006 0023     		movs	r3, #0
 307 0008 4360     		str	r3, [r0, #4]
  37:Middlewares/Third_Party/LibJPEG/source/jdapimin.c ****     ERREXIT2(cinfo, JERR_BAD_LIB_VERSION, JPEG_LIB_VERSION, version);
 308              		.loc 1 37 0
 309 000a 5029     		cmp	r1, #80
 310 000c 0AD0     		beq	.L30
  38:Middlewares/Third_Party/LibJPEG/source/jdapimin.c ****   if (structsize != SIZEOF(struct jpeg_decompress_struct))
 311              		.loc 1 38 0
 312 000e 0368     		ldr	r3, [r0]
 313 0010 0D22     		movs	r2, #13
 314              	.LVL22:
 315 0012 5A61     		str	r2, [r3, #20]
 316 0014 0368     		ldr	r3, [r0]
 317 0016 5022     		movs	r2, #80
 318 0018 9A61     		str	r2, [r3, #24]
 319 001a 0368     		ldr	r3, [r0]
 320 001c D961     		str	r1, [r3, #28]
ARM GAS  /tmp/ccQtGQz2.s 			page 11


 321 001e 0368     		ldr	r3, [r0]
 322 0020 1B68     		ldr	r3, [r3]
 323 0022 9847     		blx	r3
 324              	.LVL23:
 325              	.L30:
  39:Middlewares/Third_Party/LibJPEG/source/jdapimin.c ****     ERREXIT2(cinfo, JERR_BAD_STRUCT_SIZE, 
 326              		.loc 1 39 0
 327 0024 B5F5F47F 		cmp	r5, #488
 328 0028 0CD0     		beq	.L31
  40:Middlewares/Third_Party/LibJPEG/source/jdapimin.c **** 	     (int) SIZEOF(struct jpeg_decompress_struct), (int) structsize);
 329              		.loc 1 40 0
 330 002a 2368     		ldr	r3, [r4]
 331 002c 1622     		movs	r2, #22
 332 002e 5A61     		str	r2, [r3, #20]
 333 0030 2368     		ldr	r3, [r4]
 334 0032 4FF4F472 		mov	r2, #488
 335 0036 9A61     		str	r2, [r3, #24]
 336 0038 2368     		ldr	r3, [r4]
 337 003a DD61     		str	r5, [r3, #28]
 338 003c 2368     		ldr	r3, [r4]
 339 003e 1B68     		ldr	r3, [r3]
 340 0040 2046     		mov	r0, r4
 341 0042 9847     		blx	r3
 342              	.LVL24:
 343              	.L31:
 344              	.LBB4:
  50:Middlewares/Third_Party/LibJPEG/source/jdapimin.c ****     void * client_data = cinfo->client_data; /* ignore Purify complaint here */
 345              		.loc 1 50 0
 346 0044 2668     		ldr	r6, [r4]
 347              	.LVL25:
  51:Middlewares/Third_Party/LibJPEG/source/jdapimin.c ****     MEMZERO(cinfo, SIZEOF(struct jpeg_decompress_struct));
 348              		.loc 1 51 0
 349 0046 E568     		ldr	r5, [r4, #12]
 350              	.LVL26:
  52:Middlewares/Third_Party/LibJPEG/source/jdapimin.c ****     cinfo->err = err;
 351              		.loc 1 52 0
 352 0048 4FF4F472 		mov	r2, #488
 353 004c 0021     		movs	r1, #0
 354 004e 2046     		mov	r0, r4
 355 0050 FFF7FEFF 		bl	memset
 356              	.LVL27:
  53:Middlewares/Third_Party/LibJPEG/source/jdapimin.c ****     cinfo->client_data = client_data;
 357              		.loc 1 53 0
 358 0054 2660     		str	r6, [r4]
  54:Middlewares/Third_Party/LibJPEG/source/jdapimin.c ****   }
 359              		.loc 1 54 0
 360 0056 E560     		str	r5, [r4, #12]
 361              	.LBE4:
  56:Middlewares/Third_Party/LibJPEG/source/jdapimin.c **** 
 362              		.loc 1 56 0
 363 0058 0123     		movs	r3, #1
 364 005a 2361     		str	r3, [r4, #16]
  59:Middlewares/Third_Party/LibJPEG/source/jdapimin.c **** 
 365              		.loc 1 59 0
 366 005c 2046     		mov	r0, r4
 367 005e FFF7FEFF 		bl	jinit_memory_mgr
 368              	.LVL28:
ARM GAS  /tmp/ccQtGQz2.s 			page 12


  62:Middlewares/Third_Party/LibJPEG/source/jdapimin.c ****   cinfo->src = NULL;
 369              		.loc 1 62 0
 370 0062 0023     		movs	r3, #0
 371 0064 A360     		str	r3, [r4, #8]
  63:Middlewares/Third_Party/LibJPEG/source/jdapimin.c **** 
 372              		.loc 1 63 0
 373 0066 A361     		str	r3, [r4, #24]
 374              	.LVL29:
  65:Middlewares/Third_Party/LibJPEG/source/jdapimin.c ****     cinfo->quant_tbl_ptrs[i] = NULL;
 375              		.loc 1 65 0
 376 0068 06E0     		b	.L32
 377              	.LVL30:
 378              	.L33:
  66:Middlewares/Third_Party/LibJPEG/source/jdapimin.c **** 
 379              		.loc 1 66 0 discriminator 3
 380 006a 03F12802 		add	r2, r3, #40
 381 006e 04EB8202 		add	r2, r4, r2, lsl #2
 382 0072 0021     		movs	r1, #0
 383 0074 5160     		str	r1, [r2, #4]
  65:Middlewares/Third_Party/LibJPEG/source/jdapimin.c ****     cinfo->quant_tbl_ptrs[i] = NULL;
 384              		.loc 1 65 0 discriminator 3
 385 0076 0133     		adds	r3, r3, #1
 386              	.LVL31:
 387              	.L32:
  65:Middlewares/Third_Party/LibJPEG/source/jdapimin.c ****     cinfo->quant_tbl_ptrs[i] = NULL;
 388              		.loc 1 65 0 is_stmt 0 discriminator 1
 389 0078 032B     		cmp	r3, #3
 390 007a F6DD     		ble	.L33
  68:Middlewares/Third_Party/LibJPEG/source/jdapimin.c ****     cinfo->dc_huff_tbl_ptrs[i] = NULL;
 391              		.loc 1 68 0 is_stmt 1
 392 007c 0023     		movs	r3, #0
 393              	.LVL32:
 394 007e 0BE0     		b	.L34
 395              	.LVL33:
 396              	.L35:
  69:Middlewares/Third_Party/LibJPEG/source/jdapimin.c ****     cinfo->ac_huff_tbl_ptrs[i] = NULL;
 397              		.loc 1 69 0 discriminator 3
 398 0080 03F12C02 		add	r2, r3, #44
 399 0084 04EB8202 		add	r2, r4, r2, lsl #2
 400 0088 0021     		movs	r1, #0
 401 008a 5160     		str	r1, [r2, #4]
  70:Middlewares/Third_Party/LibJPEG/source/jdapimin.c ****   }
 402              		.loc 1 70 0 discriminator 3
 403 008c 03F13002 		add	r2, r3, #48
 404 0090 04EB8202 		add	r2, r4, r2, lsl #2
 405 0094 5160     		str	r1, [r2, #4]
  68:Middlewares/Third_Party/LibJPEG/source/jdapimin.c ****     cinfo->dc_huff_tbl_ptrs[i] = NULL;
 406              		.loc 1 68 0 discriminator 3
 407 0096 0133     		adds	r3, r3, #1
 408              	.LVL34:
 409              	.L34:
  68:Middlewares/Third_Party/LibJPEG/source/jdapimin.c ****     cinfo->dc_huff_tbl_ptrs[i] = NULL;
 410              		.loc 1 68 0 is_stmt 0 discriminator 1
 411 0098 032B     		cmp	r3, #3
 412 009a F1DD     		ble	.L35
  76:Middlewares/Third_Party/LibJPEG/source/jdapimin.c ****   jinit_marker_reader(cinfo);
 413              		.loc 1 76 0 is_stmt 1
ARM GAS  /tmp/ccQtGQz2.s 			page 13


 414 009c 0023     		movs	r3, #0
 415              	.LVL35:
 416 009e C4F83431 		str	r3, [r4, #308]
  77:Middlewares/Third_Party/LibJPEG/source/jdapimin.c **** 
 417              		.loc 1 77 0
 418 00a2 2046     		mov	r0, r4
 419 00a4 FFF7FEFF 		bl	jinit_marker_reader
 420              	.LVL36:
  80:Middlewares/Third_Party/LibJPEG/source/jdapimin.c **** 
 421              		.loc 1 80 0
 422 00a8 2046     		mov	r0, r4
 423 00aa FFF7FEFF 		bl	jinit_input_controller
 424              	.LVL37:
  83:Middlewares/Third_Party/LibJPEG/source/jdapimin.c **** }
 425              		.loc 1 83 0
 426 00ae C823     		movs	r3, #200
 427 00b0 6361     		str	r3, [r4, #20]
  84:Middlewares/Third_Party/LibJPEG/source/jdapimin.c **** 
 428              		.loc 1 84 0
 429 00b2 70BD     		pop	{r4, r5, r6, pc}
 430              		.cfi_endproc
 431              	.LFE3:
 433              		.section	.text.jpeg_destroy_decompress,"ax",%progbits
 434              		.align	1
 435              		.global	jpeg_destroy_decompress
 436              		.syntax unified
 437              		.thumb
 438              		.thumb_func
 439              		.fpu fpv5-sp-d16
 441              	jpeg_destroy_decompress:
 442              	.LFB4:
  93:Middlewares/Third_Party/LibJPEG/source/jdapimin.c ****   jpeg_destroy((j_common_ptr) cinfo); /* use common routine */
 443              		.loc 1 93 0
 444              		.cfi_startproc
 445              		@ args = 0, pretend = 0, frame = 0
 446              		@ frame_needed = 0, uses_anonymous_args = 0
 447              	.LVL38:
 448 0000 08B5     		push	{r3, lr}
 449              	.LCFI2:
 450              		.cfi_def_cfa_offset 8
 451              		.cfi_offset 3, -8
 452              		.cfi_offset 14, -4
  94:Middlewares/Third_Party/LibJPEG/source/jdapimin.c **** }
 453              		.loc 1 94 0
 454 0002 FFF7FEFF 		bl	jpeg_destroy
 455              	.LVL39:
  95:Middlewares/Third_Party/LibJPEG/source/jdapimin.c **** 
 456              		.loc 1 95 0
 457 0006 08BD     		pop	{r3, pc}
 458              		.cfi_endproc
 459              	.LFE4:
 461              		.section	.text.jpeg_abort_decompress,"ax",%progbits
 462              		.align	1
 463              		.global	jpeg_abort_decompress
 464              		.syntax unified
 465              		.thumb
 466              		.thumb_func
ARM GAS  /tmp/ccQtGQz2.s 			page 14


 467              		.fpu fpv5-sp-d16
 469              	jpeg_abort_decompress:
 470              	.LFB5:
 105:Middlewares/Third_Party/LibJPEG/source/jdapimin.c ****   jpeg_abort((j_common_ptr) cinfo); /* use common routine */
 471              		.loc 1 105 0
 472              		.cfi_startproc
 473              		@ args = 0, pretend = 0, frame = 0
 474              		@ frame_needed = 0, uses_anonymous_args = 0
 475              	.LVL40:
 476 0000 08B5     		push	{r3, lr}
 477              	.LCFI3:
 478              		.cfi_def_cfa_offset 8
 479              		.cfi_offset 3, -8
 480              		.cfi_offset 14, -4
 106:Middlewares/Third_Party/LibJPEG/source/jdapimin.c **** }
 481              		.loc 1 106 0
 482 0002 FFF7FEFF 		bl	jpeg_abort
 483              	.LVL41:
 107:Middlewares/Third_Party/LibJPEG/source/jdapimin.c **** 
 484              		.loc 1 107 0
 485 0006 08BD     		pop	{r3, pc}
 486              		.cfi_endproc
 487              	.LFE5:
 489              		.section	.text.jpeg_consume_input,"ax",%progbits
 490              		.align	1
 491              		.global	jpeg_consume_input
 492              		.syntax unified
 493              		.thumb
 494              		.thumb_func
 495              		.fpu fpv5-sp-d16
 497              	jpeg_consume_input:
 498              	.LFB8:
 212:Middlewares/Third_Party/LibJPEG/source/jdapimin.c **** 
 213:Middlewares/Third_Party/LibJPEG/source/jdapimin.c **** 
 214:Middlewares/Third_Party/LibJPEG/source/jdapimin.c **** /*
 215:Middlewares/Third_Party/LibJPEG/source/jdapimin.c ****  * Decompression startup: read start of JPEG datastream to see what's there.
 216:Middlewares/Third_Party/LibJPEG/source/jdapimin.c ****  * Need only initialize JPEG object and supply a data source before calling.
 217:Middlewares/Third_Party/LibJPEG/source/jdapimin.c ****  *
 218:Middlewares/Third_Party/LibJPEG/source/jdapimin.c ****  * This routine will read as far as the first SOS marker (ie, actual start of
 219:Middlewares/Third_Party/LibJPEG/source/jdapimin.c ****  * compressed data), and will save all tables and parameters in the JPEG
 220:Middlewares/Third_Party/LibJPEG/source/jdapimin.c ****  * object.  It will also initialize the decompression parameters to default
 221:Middlewares/Third_Party/LibJPEG/source/jdapimin.c ****  * values, and finally return JPEG_HEADER_OK.  On return, the application may
 222:Middlewares/Third_Party/LibJPEG/source/jdapimin.c ****  * adjust the decompression parameters and then call jpeg_start_decompress.
 223:Middlewares/Third_Party/LibJPEG/source/jdapimin.c ****  * (Or, if the application only wanted to determine the image parameters,
 224:Middlewares/Third_Party/LibJPEG/source/jdapimin.c ****  * the data need not be decompressed.  In that case, call jpeg_abort or
 225:Middlewares/Third_Party/LibJPEG/source/jdapimin.c ****  * jpeg_destroy to release any temporary space.)
 226:Middlewares/Third_Party/LibJPEG/source/jdapimin.c ****  * If an abbreviated (tables only) datastream is presented, the routine will
 227:Middlewares/Third_Party/LibJPEG/source/jdapimin.c ****  * return JPEG_HEADER_TABLES_ONLY upon reaching EOI.  The application may then
 228:Middlewares/Third_Party/LibJPEG/source/jdapimin.c ****  * re-use the JPEG object to read the abbreviated image datastream(s).
 229:Middlewares/Third_Party/LibJPEG/source/jdapimin.c ****  * It is unnecessary (but OK) to call jpeg_abort in this case.
 230:Middlewares/Third_Party/LibJPEG/source/jdapimin.c ****  * The JPEG_SUSPENDED return code only occurs if the data source module
 231:Middlewares/Third_Party/LibJPEG/source/jdapimin.c ****  * requests suspension of the decompressor.  In this case the application
 232:Middlewares/Third_Party/LibJPEG/source/jdapimin.c ****  * should load more source data and then re-call jpeg_read_header to resume
 233:Middlewares/Third_Party/LibJPEG/source/jdapimin.c ****  * processing.
 234:Middlewares/Third_Party/LibJPEG/source/jdapimin.c ****  * If a non-suspending data source is used and require_image is TRUE, then the
 235:Middlewares/Third_Party/LibJPEG/source/jdapimin.c ****  * return code need not be inspected since only JPEG_HEADER_OK is possible.
 236:Middlewares/Third_Party/LibJPEG/source/jdapimin.c ****  *
ARM GAS  /tmp/ccQtGQz2.s 			page 15


 237:Middlewares/Third_Party/LibJPEG/source/jdapimin.c ****  * This routine is now just a front end to jpeg_consume_input, with some
 238:Middlewares/Third_Party/LibJPEG/source/jdapimin.c ****  * extra error checking.
 239:Middlewares/Third_Party/LibJPEG/source/jdapimin.c ****  */
 240:Middlewares/Third_Party/LibJPEG/source/jdapimin.c **** 
 241:Middlewares/Third_Party/LibJPEG/source/jdapimin.c **** GLOBAL(int)
 242:Middlewares/Third_Party/LibJPEG/source/jdapimin.c **** jpeg_read_header (j_decompress_ptr cinfo, boolean require_image)
 243:Middlewares/Third_Party/LibJPEG/source/jdapimin.c **** {
 244:Middlewares/Third_Party/LibJPEG/source/jdapimin.c ****   int retcode;
 245:Middlewares/Third_Party/LibJPEG/source/jdapimin.c **** 
 246:Middlewares/Third_Party/LibJPEG/source/jdapimin.c ****   if (cinfo->global_state != DSTATE_START &&
 247:Middlewares/Third_Party/LibJPEG/source/jdapimin.c ****       cinfo->global_state != DSTATE_INHEADER)
 248:Middlewares/Third_Party/LibJPEG/source/jdapimin.c ****     ERREXIT1(cinfo, JERR_BAD_STATE, cinfo->global_state);
 249:Middlewares/Third_Party/LibJPEG/source/jdapimin.c **** 
 250:Middlewares/Third_Party/LibJPEG/source/jdapimin.c ****   retcode = jpeg_consume_input(cinfo);
 251:Middlewares/Third_Party/LibJPEG/source/jdapimin.c **** 
 252:Middlewares/Third_Party/LibJPEG/source/jdapimin.c ****   switch (retcode) {
 253:Middlewares/Third_Party/LibJPEG/source/jdapimin.c ****   case JPEG_REACHED_SOS:
 254:Middlewares/Third_Party/LibJPEG/source/jdapimin.c ****     retcode = JPEG_HEADER_OK;
 255:Middlewares/Third_Party/LibJPEG/source/jdapimin.c ****     break;
 256:Middlewares/Third_Party/LibJPEG/source/jdapimin.c ****   case JPEG_REACHED_EOI:
 257:Middlewares/Third_Party/LibJPEG/source/jdapimin.c ****     if (require_image)		/* Complain if application wanted an image */
 258:Middlewares/Third_Party/LibJPEG/source/jdapimin.c ****       ERREXIT(cinfo, JERR_NO_IMAGE);
 259:Middlewares/Third_Party/LibJPEG/source/jdapimin.c ****     /* Reset to start state; it would be safer to require the application to
 260:Middlewares/Third_Party/LibJPEG/source/jdapimin.c ****      * call jpeg_abort, but we can't change it now for compatibility reasons.
 261:Middlewares/Third_Party/LibJPEG/source/jdapimin.c ****      * A side effect is to free any temporary memory (there shouldn't be any).
 262:Middlewares/Third_Party/LibJPEG/source/jdapimin.c ****      */
 263:Middlewares/Third_Party/LibJPEG/source/jdapimin.c ****     jpeg_abort((j_common_ptr) cinfo); /* sets state = DSTATE_START */
 264:Middlewares/Third_Party/LibJPEG/source/jdapimin.c ****     retcode = JPEG_HEADER_TABLES_ONLY;
 265:Middlewares/Third_Party/LibJPEG/source/jdapimin.c ****     break;
 266:Middlewares/Third_Party/LibJPEG/source/jdapimin.c ****   case JPEG_SUSPENDED:
 267:Middlewares/Third_Party/LibJPEG/source/jdapimin.c ****     /* no work */
 268:Middlewares/Third_Party/LibJPEG/source/jdapimin.c ****     break;
 269:Middlewares/Third_Party/LibJPEG/source/jdapimin.c ****   }
 270:Middlewares/Third_Party/LibJPEG/source/jdapimin.c **** 
 271:Middlewares/Third_Party/LibJPEG/source/jdapimin.c ****   return retcode;
 272:Middlewares/Third_Party/LibJPEG/source/jdapimin.c **** }
 273:Middlewares/Third_Party/LibJPEG/source/jdapimin.c **** 
 274:Middlewares/Third_Party/LibJPEG/source/jdapimin.c **** 
 275:Middlewares/Third_Party/LibJPEG/source/jdapimin.c **** /*
 276:Middlewares/Third_Party/LibJPEG/source/jdapimin.c ****  * Consume data in advance of what the decompressor requires.
 277:Middlewares/Third_Party/LibJPEG/source/jdapimin.c ****  * This can be called at any time once the decompressor object has
 278:Middlewares/Third_Party/LibJPEG/source/jdapimin.c ****  * been created and a data source has been set up.
 279:Middlewares/Third_Party/LibJPEG/source/jdapimin.c ****  *
 280:Middlewares/Third_Party/LibJPEG/source/jdapimin.c ****  * This routine is essentially a state machine that handles a couple
 281:Middlewares/Third_Party/LibJPEG/source/jdapimin.c ****  * of critical state-transition actions, namely initial setup and
 282:Middlewares/Third_Party/LibJPEG/source/jdapimin.c ****  * transition from header scanning to ready-for-start_decompress.
 283:Middlewares/Third_Party/LibJPEG/source/jdapimin.c ****  * All the actual input is done via the input controller's consume_input
 284:Middlewares/Third_Party/LibJPEG/source/jdapimin.c ****  * method.
 285:Middlewares/Third_Party/LibJPEG/source/jdapimin.c ****  */
 286:Middlewares/Third_Party/LibJPEG/source/jdapimin.c **** 
 287:Middlewares/Third_Party/LibJPEG/source/jdapimin.c **** GLOBAL(int)
 288:Middlewares/Third_Party/LibJPEG/source/jdapimin.c **** jpeg_consume_input (j_decompress_ptr cinfo)
 289:Middlewares/Third_Party/LibJPEG/source/jdapimin.c **** {
 499              		.loc 1 289 0
 500              		.cfi_startproc
 501              		@ args = 0, pretend = 0, frame = 0
 502              		@ frame_needed = 0, uses_anonymous_args = 0
ARM GAS  /tmp/ccQtGQz2.s 			page 16


 503              	.LVL42:
 504 0000 38B5     		push	{r3, r4, r5, lr}
 505              	.LCFI4:
 506              		.cfi_def_cfa_offset 16
 507              		.cfi_offset 3, -16
 508              		.cfi_offset 4, -12
 509              		.cfi_offset 5, -8
 510              		.cfi_offset 14, -4
 511 0002 0446     		mov	r4, r0
 512              	.LVL43:
 290:Middlewares/Third_Party/LibJPEG/source/jdapimin.c ****   int retcode = JPEG_SUSPENDED;
 291:Middlewares/Third_Party/LibJPEG/source/jdapimin.c **** 
 292:Middlewares/Third_Party/LibJPEG/source/jdapimin.c ****   /* NB: every possible DSTATE value should be listed in this switch */
 293:Middlewares/Third_Party/LibJPEG/source/jdapimin.c ****   switch (cinfo->global_state) {
 513              		.loc 1 293 0
 514 0004 4369     		ldr	r3, [r0, #20]
 515 0006 C83B     		subs	r3, r3, #200
 516 0008 0A2B     		cmp	r3, #10
 517 000a 27D8     		bhi	.L42
 518 000c DFE803F0 		tbb	[pc, r3]
 519              	.L44:
 520 0010 06       		.byte	(.L43-.L44)/2
 521 0011 10       		.byte	(.L45-.L44)/2
 522 0012 31       		.byte	(.L48-.L44)/2
 523 0013 20       		.byte	(.L47-.L44)/2
 524 0014 20       		.byte	(.L47-.L44)/2
 525 0015 20       		.byte	(.L47-.L44)/2
 526 0016 20       		.byte	(.L47-.L44)/2
 527 0017 20       		.byte	(.L47-.L44)/2
 528 0018 20       		.byte	(.L47-.L44)/2
 529 0019 26       		.byte	(.L42-.L44)/2
 530 001a 20       		.byte	(.L47-.L44)/2
 531 001b 00       		.p2align 1
 532              	.L43:
 294:Middlewares/Third_Party/LibJPEG/source/jdapimin.c ****   case DSTATE_START:
 295:Middlewares/Third_Party/LibJPEG/source/jdapimin.c ****     /* Start-of-datastream actions: reset appropriate modules */
 296:Middlewares/Third_Party/LibJPEG/source/jdapimin.c ****     (*cinfo->inputctl->reset_input_controller) (cinfo);
 533              		.loc 1 296 0
 534 001c D0F8C831 		ldr	r3, [r0, #456]
 535 0020 5B68     		ldr	r3, [r3, #4]
 536 0022 9847     		blx	r3
 537              	.LVL44:
 297:Middlewares/Third_Party/LibJPEG/source/jdapimin.c ****     /* Initialize application's data source module */
 298:Middlewares/Third_Party/LibJPEG/source/jdapimin.c ****     (*cinfo->src->init_source) (cinfo);
 538              		.loc 1 298 0
 539 0024 A369     		ldr	r3, [r4, #24]
 540 0026 9B68     		ldr	r3, [r3, #8]
 541 0028 2046     		mov	r0, r4
 542 002a 9847     		blx	r3
 543              	.LVL45:
 299:Middlewares/Third_Party/LibJPEG/source/jdapimin.c ****     cinfo->global_state = DSTATE_INHEADER;
 544              		.loc 1 299 0
 545 002c C923     		movs	r3, #201
 546 002e 6361     		str	r3, [r4, #20]
 547              	.L45:
 300:Middlewares/Third_Party/LibJPEG/source/jdapimin.c ****     /*FALLTHROUGH*/
 301:Middlewares/Third_Party/LibJPEG/source/jdapimin.c ****   case DSTATE_INHEADER:
ARM GAS  /tmp/ccQtGQz2.s 			page 17


 302:Middlewares/Third_Party/LibJPEG/source/jdapimin.c ****     retcode = (*cinfo->inputctl->consume_input) (cinfo);
 548              		.loc 1 302 0
 549 0030 D4F8C831 		ldr	r3, [r4, #456]
 550 0034 1B68     		ldr	r3, [r3]
 551 0036 2046     		mov	r0, r4
 552 0038 9847     		blx	r3
 553              	.LVL46:
 554 003a 0546     		mov	r5, r0
 555              	.LVL47:
 303:Middlewares/Third_Party/LibJPEG/source/jdapimin.c ****     if (retcode == JPEG_REACHED_SOS) { /* Found SOS, prepare to decompress */
 556              		.loc 1 303 0
 557 003c 0128     		cmp	r0, #1
 558 003e 01D0     		beq	.L50
 559              	.LVL48:
 560              	.L41:
 304:Middlewares/Third_Party/LibJPEG/source/jdapimin.c ****       /* Set up default parameters based on header data */
 305:Middlewares/Third_Party/LibJPEG/source/jdapimin.c ****       default_decompress_parms(cinfo);
 306:Middlewares/Third_Party/LibJPEG/source/jdapimin.c ****       /* Set global state: ready for start_decompress */
 307:Middlewares/Third_Party/LibJPEG/source/jdapimin.c ****       cinfo->global_state = DSTATE_READY;
 308:Middlewares/Third_Party/LibJPEG/source/jdapimin.c ****     }
 309:Middlewares/Third_Party/LibJPEG/source/jdapimin.c ****     break;
 310:Middlewares/Third_Party/LibJPEG/source/jdapimin.c ****   case DSTATE_READY:
 311:Middlewares/Third_Party/LibJPEG/source/jdapimin.c ****     /* Can't advance past first SOS until start_decompress is called */
 312:Middlewares/Third_Party/LibJPEG/source/jdapimin.c ****     retcode = JPEG_REACHED_SOS;
 313:Middlewares/Third_Party/LibJPEG/source/jdapimin.c ****     break;
 314:Middlewares/Third_Party/LibJPEG/source/jdapimin.c ****   case DSTATE_PRELOAD:
 315:Middlewares/Third_Party/LibJPEG/source/jdapimin.c ****   case DSTATE_PRESCAN:
 316:Middlewares/Third_Party/LibJPEG/source/jdapimin.c ****   case DSTATE_SCANNING:
 317:Middlewares/Third_Party/LibJPEG/source/jdapimin.c ****   case DSTATE_RAW_OK:
 318:Middlewares/Third_Party/LibJPEG/source/jdapimin.c ****   case DSTATE_BUFIMAGE:
 319:Middlewares/Third_Party/LibJPEG/source/jdapimin.c ****   case DSTATE_BUFPOST:
 320:Middlewares/Third_Party/LibJPEG/source/jdapimin.c ****   case DSTATE_STOPPING:
 321:Middlewares/Third_Party/LibJPEG/source/jdapimin.c ****     retcode = (*cinfo->inputctl->consume_input) (cinfo);
 322:Middlewares/Third_Party/LibJPEG/source/jdapimin.c ****     break;
 323:Middlewares/Third_Party/LibJPEG/source/jdapimin.c ****   default:
 324:Middlewares/Third_Party/LibJPEG/source/jdapimin.c ****     ERREXIT1(cinfo, JERR_BAD_STATE, cinfo->global_state);
 325:Middlewares/Third_Party/LibJPEG/source/jdapimin.c ****   }
 326:Middlewares/Third_Party/LibJPEG/source/jdapimin.c ****   return retcode;
 327:Middlewares/Third_Party/LibJPEG/source/jdapimin.c **** }
 561              		.loc 1 327 0
 562 0040 2846     		mov	r0, r5
 563 0042 38BD     		pop	{r3, r4, r5, pc}
 564              	.LVL49:
 565              	.L50:
 305:Middlewares/Third_Party/LibJPEG/source/jdapimin.c ****       /* Set global state: ready for start_decompress */
 566              		.loc 1 305 0
 567 0044 2046     		mov	r0, r4
 568              	.LVL50:
 569 0046 FFF7FEFF 		bl	default_decompress_parms
 570              	.LVL51:
 307:Middlewares/Third_Party/LibJPEG/source/jdapimin.c ****     }
 571              		.loc 1 307 0
 572 004a CA23     		movs	r3, #202
 573 004c 6361     		str	r3, [r4, #20]
 574 004e F7E7     		b	.L41
 575              	.LVL52:
 576              	.L47:
ARM GAS  /tmp/ccQtGQz2.s 			page 18


 321:Middlewares/Third_Party/LibJPEG/source/jdapimin.c ****     break;
 577              		.loc 1 321 0
 578 0050 D0F8C831 		ldr	r3, [r0, #456]
 579 0054 1B68     		ldr	r3, [r3]
 580 0056 9847     		blx	r3
 581              	.LVL53:
 582 0058 0546     		mov	r5, r0
 583              	.LVL54:
 322:Middlewares/Third_Party/LibJPEG/source/jdapimin.c ****   default:
 584              		.loc 1 322 0
 585 005a F1E7     		b	.L41
 586              	.LVL55:
 587              	.L42:
 324:Middlewares/Third_Party/LibJPEG/source/jdapimin.c ****   }
 588              		.loc 1 324 0
 589 005c 0368     		ldr	r3, [r0]
 590 005e 1522     		movs	r2, #21
 591 0060 5A61     		str	r2, [r3, #20]
 592 0062 0368     		ldr	r3, [r0]
 593 0064 4269     		ldr	r2, [r0, #20]
 594 0066 9A61     		str	r2, [r3, #24]
 595 0068 0368     		ldr	r3, [r0]
 596 006a 1B68     		ldr	r3, [r3]
 597 006c 9847     		blx	r3
 598              	.LVL56:
 290:Middlewares/Third_Party/LibJPEG/source/jdapimin.c **** 
 599              		.loc 1 290 0
 600 006e 0025     		movs	r5, #0
 601 0070 E6E7     		b	.L41
 602              	.LVL57:
 603              	.L48:
 312:Middlewares/Third_Party/LibJPEG/source/jdapimin.c ****     break;
 604              		.loc 1 312 0
 605 0072 0125     		movs	r5, #1
 606              	.LVL58:
 326:Middlewares/Third_Party/LibJPEG/source/jdapimin.c **** }
 607              		.loc 1 326 0
 608 0074 E4E7     		b	.L41
 609              		.cfi_endproc
 610              	.LFE8:
 612              		.section	.text.jpeg_read_header,"ax",%progbits
 613              		.align	1
 614              		.global	jpeg_read_header
 615              		.syntax unified
 616              		.thumb
 617              		.thumb_func
 618              		.fpu fpv5-sp-d16
 620              	jpeg_read_header:
 621              	.LFB7:
 243:Middlewares/Third_Party/LibJPEG/source/jdapimin.c ****   int retcode;
 622              		.loc 1 243 0
 623              		.cfi_startproc
 624              		@ args = 0, pretend = 0, frame = 0
 625              		@ frame_needed = 0, uses_anonymous_args = 0
 626              	.LVL59:
 627 0000 70B5     		push	{r4, r5, r6, lr}
 628              	.LCFI5:
ARM GAS  /tmp/ccQtGQz2.s 			page 19


 629              		.cfi_def_cfa_offset 16
 630              		.cfi_offset 4, -16
 631              		.cfi_offset 5, -12
 632              		.cfi_offset 6, -8
 633              		.cfi_offset 14, -4
 634 0002 0446     		mov	r4, r0
 635 0004 0E46     		mov	r6, r1
 246:Middlewares/Third_Party/LibJPEG/source/jdapimin.c ****       cinfo->global_state != DSTATE_INHEADER)
 636              		.loc 1 246 0
 637 0006 4369     		ldr	r3, [r0, #20]
 638 0008 C83B     		subs	r3, r3, #200
 639 000a 012B     		cmp	r3, #1
 640 000c 08D9     		bls	.L52
 248:Middlewares/Third_Party/LibJPEG/source/jdapimin.c **** 
 641              		.loc 1 248 0
 642 000e 0368     		ldr	r3, [r0]
 643 0010 1522     		movs	r2, #21
 644 0012 5A61     		str	r2, [r3, #20]
 645 0014 0368     		ldr	r3, [r0]
 646 0016 4269     		ldr	r2, [r0, #20]
 647 0018 9A61     		str	r2, [r3, #24]
 648 001a 0368     		ldr	r3, [r0]
 649 001c 1B68     		ldr	r3, [r3]
 650 001e 9847     		blx	r3
 651              	.LVL60:
 652              	.L52:
 250:Middlewares/Third_Party/LibJPEG/source/jdapimin.c **** 
 653              		.loc 1 250 0
 654 0020 2046     		mov	r0, r4
 655 0022 FFF7FEFF 		bl	jpeg_consume_input
 656              	.LVL61:
 657 0026 0546     		mov	r5, r0
 658              	.LVL62:
 252:Middlewares/Third_Party/LibJPEG/source/jdapimin.c ****   case JPEG_REACHED_SOS:
 659              		.loc 1 252 0
 660 0028 0228     		cmp	r0, #2
 661 002a 01D0     		beq	.L57
 662              	.LVL63:
 663              	.L51:
 272:Middlewares/Third_Party/LibJPEG/source/jdapimin.c **** 
 664              		.loc 1 272 0
 665 002c 2846     		mov	r0, r5
 666 002e 70BD     		pop	{r4, r5, r6, pc}
 667              	.LVL64:
 668              	.L57:
 257:Middlewares/Third_Party/LibJPEG/source/jdapimin.c ****       ERREXIT(cinfo, JERR_NO_IMAGE);
 669              		.loc 1 257 0
 670 0030 36B1     		cbz	r6, .L55
 258:Middlewares/Third_Party/LibJPEG/source/jdapimin.c ****     /* Reset to start state; it would be safer to require the application to
 671              		.loc 1 258 0
 672 0032 2368     		ldr	r3, [r4]
 673 0034 3522     		movs	r2, #53
 674 0036 5A61     		str	r2, [r3, #20]
 675 0038 2368     		ldr	r3, [r4]
 676 003a 1B68     		ldr	r3, [r3]
 677 003c 2046     		mov	r0, r4
 678              	.LVL65:
ARM GAS  /tmp/ccQtGQz2.s 			page 20


 679 003e 9847     		blx	r3
 680              	.LVL66:
 681              	.L55:
 263:Middlewares/Third_Party/LibJPEG/source/jdapimin.c ****     retcode = JPEG_HEADER_TABLES_ONLY;
 682              		.loc 1 263 0
 683 0040 2046     		mov	r0, r4
 684 0042 FFF7FEFF 		bl	jpeg_abort
 685              	.LVL67:
 271:Middlewares/Third_Party/LibJPEG/source/jdapimin.c **** }
 686              		.loc 1 271 0
 687 0046 F1E7     		b	.L51
 688              		.cfi_endproc
 689              	.LFE7:
 691              		.section	.text.jpeg_input_complete,"ax",%progbits
 692              		.align	1
 693              		.global	jpeg_input_complete
 694              		.syntax unified
 695              		.thumb
 696              		.thumb_func
 697              		.fpu fpv5-sp-d16
 699              	jpeg_input_complete:
 700              	.LFB9:
 328:Middlewares/Third_Party/LibJPEG/source/jdapimin.c **** 
 329:Middlewares/Third_Party/LibJPEG/source/jdapimin.c **** 
 330:Middlewares/Third_Party/LibJPEG/source/jdapimin.c **** /*
 331:Middlewares/Third_Party/LibJPEG/source/jdapimin.c ****  * Have we finished reading the input file?
 332:Middlewares/Third_Party/LibJPEG/source/jdapimin.c ****  */
 333:Middlewares/Third_Party/LibJPEG/source/jdapimin.c **** 
 334:Middlewares/Third_Party/LibJPEG/source/jdapimin.c **** GLOBAL(boolean)
 335:Middlewares/Third_Party/LibJPEG/source/jdapimin.c **** jpeg_input_complete (j_decompress_ptr cinfo)
 336:Middlewares/Third_Party/LibJPEG/source/jdapimin.c **** {
 701              		.loc 1 336 0
 702              		.cfi_startproc
 703              		@ args = 0, pretend = 0, frame = 0
 704              		@ frame_needed = 0, uses_anonymous_args = 0
 705              	.LVL68:
 706 0000 10B5     		push	{r4, lr}
 707              	.LCFI6:
 708              		.cfi_def_cfa_offset 8
 709              		.cfi_offset 4, -8
 710              		.cfi_offset 14, -4
 711 0002 0446     		mov	r4, r0
 337:Middlewares/Third_Party/LibJPEG/source/jdapimin.c ****   /* Check for valid jpeg object */
 338:Middlewares/Third_Party/LibJPEG/source/jdapimin.c ****   if (cinfo->global_state < DSTATE_START ||
 712              		.loc 1 338 0
 713 0004 4369     		ldr	r3, [r0, #20]
 714 0006 C83B     		subs	r3, r3, #200
 715 0008 0A2B     		cmp	r3, #10
 716 000a 08D9     		bls	.L59
 339:Middlewares/Third_Party/LibJPEG/source/jdapimin.c ****       cinfo->global_state > DSTATE_STOPPING)
 340:Middlewares/Third_Party/LibJPEG/source/jdapimin.c ****     ERREXIT1(cinfo, JERR_BAD_STATE, cinfo->global_state);
 717              		.loc 1 340 0
 718 000c 0368     		ldr	r3, [r0]
 719 000e 1522     		movs	r2, #21
 720 0010 5A61     		str	r2, [r3, #20]
 721 0012 0368     		ldr	r3, [r0]
 722 0014 4269     		ldr	r2, [r0, #20]
ARM GAS  /tmp/ccQtGQz2.s 			page 21


 723 0016 9A61     		str	r2, [r3, #24]
 724 0018 0368     		ldr	r3, [r0]
 725 001a 1B68     		ldr	r3, [r3]
 726 001c 9847     		blx	r3
 727              	.LVL69:
 728              	.L59:
 341:Middlewares/Third_Party/LibJPEG/source/jdapimin.c ****   return cinfo->inputctl->eoi_reached;
 729              		.loc 1 341 0
 730 001e D4F8C831 		ldr	r3, [r4, #456]
 342:Middlewares/Third_Party/LibJPEG/source/jdapimin.c **** }
 731              		.loc 1 342 0
 732 0022 5869     		ldr	r0, [r3, #20]
 733 0024 10BD     		pop	{r4, pc}
 734              		.cfi_endproc
 735              	.LFE9:
 737              		.section	.text.jpeg_has_multiple_scans,"ax",%progbits
 738              		.align	1
 739              		.global	jpeg_has_multiple_scans
 740              		.syntax unified
 741              		.thumb
 742              		.thumb_func
 743              		.fpu fpv5-sp-d16
 745              	jpeg_has_multiple_scans:
 746              	.LFB10:
 343:Middlewares/Third_Party/LibJPEG/source/jdapimin.c **** 
 344:Middlewares/Third_Party/LibJPEG/source/jdapimin.c **** 
 345:Middlewares/Third_Party/LibJPEG/source/jdapimin.c **** /*
 346:Middlewares/Third_Party/LibJPEG/source/jdapimin.c ****  * Is there more than one scan?
 347:Middlewares/Third_Party/LibJPEG/source/jdapimin.c ****  */
 348:Middlewares/Third_Party/LibJPEG/source/jdapimin.c **** 
 349:Middlewares/Third_Party/LibJPEG/source/jdapimin.c **** GLOBAL(boolean)
 350:Middlewares/Third_Party/LibJPEG/source/jdapimin.c **** jpeg_has_multiple_scans (j_decompress_ptr cinfo)
 351:Middlewares/Third_Party/LibJPEG/source/jdapimin.c **** {
 747              		.loc 1 351 0
 748              		.cfi_startproc
 749              		@ args = 0, pretend = 0, frame = 0
 750              		@ frame_needed = 0, uses_anonymous_args = 0
 751              	.LVL70:
 752 0000 10B5     		push	{r4, lr}
 753              	.LCFI7:
 754              		.cfi_def_cfa_offset 8
 755              		.cfi_offset 4, -8
 756              		.cfi_offset 14, -4
 757 0002 0446     		mov	r4, r0
 352:Middlewares/Third_Party/LibJPEG/source/jdapimin.c ****   /* Only valid after jpeg_read_header completes */
 353:Middlewares/Third_Party/LibJPEG/source/jdapimin.c ****   if (cinfo->global_state < DSTATE_READY ||
 758              		.loc 1 353 0
 759 0004 4369     		ldr	r3, [r0, #20]
 760 0006 CA3B     		subs	r3, r3, #202
 761 0008 082B     		cmp	r3, #8
 762 000a 08D9     		bls	.L62
 354:Middlewares/Third_Party/LibJPEG/source/jdapimin.c ****       cinfo->global_state > DSTATE_STOPPING)
 355:Middlewares/Third_Party/LibJPEG/source/jdapimin.c ****     ERREXIT1(cinfo, JERR_BAD_STATE, cinfo->global_state);
 763              		.loc 1 355 0
 764 000c 0368     		ldr	r3, [r0]
 765 000e 1522     		movs	r2, #21
 766 0010 5A61     		str	r2, [r3, #20]
ARM GAS  /tmp/ccQtGQz2.s 			page 22


 767 0012 0368     		ldr	r3, [r0]
 768 0014 4269     		ldr	r2, [r0, #20]
 769 0016 9A61     		str	r2, [r3, #24]
 770 0018 0368     		ldr	r3, [r0]
 771 001a 1B68     		ldr	r3, [r3]
 772 001c 9847     		blx	r3
 773              	.LVL71:
 774              	.L62:
 356:Middlewares/Third_Party/LibJPEG/source/jdapimin.c ****   return cinfo->inputctl->has_multiple_scans;
 775              		.loc 1 356 0
 776 001e D4F8C831 		ldr	r3, [r4, #456]
 357:Middlewares/Third_Party/LibJPEG/source/jdapimin.c **** }
 777              		.loc 1 357 0
 778 0022 1869     		ldr	r0, [r3, #16]
 779 0024 10BD     		pop	{r4, pc}
 780              		.cfi_endproc
 781              	.LFE10:
 783              		.section	.text.jpeg_finish_decompress,"ax",%progbits
 784              		.align	1
 785              		.global	jpeg_finish_decompress
 786              		.syntax unified
 787              		.thumb
 788              		.thumb_func
 789              		.fpu fpv5-sp-d16
 791              	jpeg_finish_decompress:
 792              	.LFB11:
 358:Middlewares/Third_Party/LibJPEG/source/jdapimin.c **** 
 359:Middlewares/Third_Party/LibJPEG/source/jdapimin.c **** 
 360:Middlewares/Third_Party/LibJPEG/source/jdapimin.c **** /*
 361:Middlewares/Third_Party/LibJPEG/source/jdapimin.c ****  * Finish JPEG decompression.
 362:Middlewares/Third_Party/LibJPEG/source/jdapimin.c ****  *
 363:Middlewares/Third_Party/LibJPEG/source/jdapimin.c ****  * This will normally just verify the file trailer and release temp storage.
 364:Middlewares/Third_Party/LibJPEG/source/jdapimin.c ****  *
 365:Middlewares/Third_Party/LibJPEG/source/jdapimin.c ****  * Returns FALSE if suspended.  The return value need be inspected only if
 366:Middlewares/Third_Party/LibJPEG/source/jdapimin.c ****  * a suspending data source is used.
 367:Middlewares/Third_Party/LibJPEG/source/jdapimin.c ****  */
 368:Middlewares/Third_Party/LibJPEG/source/jdapimin.c **** 
 369:Middlewares/Third_Party/LibJPEG/source/jdapimin.c **** GLOBAL(boolean)
 370:Middlewares/Third_Party/LibJPEG/source/jdapimin.c **** jpeg_finish_decompress (j_decompress_ptr cinfo)
 371:Middlewares/Third_Party/LibJPEG/source/jdapimin.c **** {
 793              		.loc 1 371 0
 794              		.cfi_startproc
 795              		@ args = 0, pretend = 0, frame = 0
 796              		@ frame_needed = 0, uses_anonymous_args = 0
 797              	.LVL72:
 798 0000 38B5     		push	{r3, r4, r5, lr}
 799              	.LCFI8:
 800              		.cfi_def_cfa_offset 16
 801              		.cfi_offset 3, -16
 802              		.cfi_offset 4, -12
 803              		.cfi_offset 5, -8
 804              		.cfi_offset 14, -4
 805 0002 0446     		mov	r4, r0
 372:Middlewares/Third_Party/LibJPEG/source/jdapimin.c ****   if ((cinfo->global_state == DSTATE_SCANNING ||
 806              		.loc 1 372 0
 807 0004 4369     		ldr	r3, [r0, #20]
 808 0006 A3F1CD02 		sub	r2, r3, #205
ARM GAS  /tmp/ccQtGQz2.s 			page 23


 809 000a 012A     		cmp	r2, #1
 810 000c 17D9     		bls	.L73
 811              	.L65:
 373:Middlewares/Third_Party/LibJPEG/source/jdapimin.c ****        cinfo->global_state == DSTATE_RAW_OK) && ! cinfo->buffered_image) {
 374:Middlewares/Third_Party/LibJPEG/source/jdapimin.c ****     /* Terminate final pass of non-buffered mode */
 375:Middlewares/Third_Party/LibJPEG/source/jdapimin.c ****     if (cinfo->output_scanline < cinfo->output_height)
 376:Middlewares/Third_Party/LibJPEG/source/jdapimin.c ****       ERREXIT(cinfo, JERR_TOO_LITTLE_DATA);
 377:Middlewares/Third_Party/LibJPEG/source/jdapimin.c ****     (*cinfo->master->finish_output_pass) (cinfo);
 378:Middlewares/Third_Party/LibJPEG/source/jdapimin.c ****     cinfo->global_state = DSTATE_STOPPING;
 379:Middlewares/Third_Party/LibJPEG/source/jdapimin.c ****   } else if (cinfo->global_state == DSTATE_BUFIMAGE) {
 812              		.loc 1 379 0
 813 000e CF2B     		cmp	r3, #207
 814 0010 2BD0     		beq	.L74
 380:Middlewares/Third_Party/LibJPEG/source/jdapimin.c ****     /* Finishing after a buffered-image operation */
 381:Middlewares/Third_Party/LibJPEG/source/jdapimin.c ****     cinfo->global_state = DSTATE_STOPPING;
 382:Middlewares/Third_Party/LibJPEG/source/jdapimin.c ****   } else if (cinfo->global_state != DSTATE_STOPPING) {
 815              		.loc 1 382 0
 816 0012 D22B     		cmp	r3, #210
 817 0014 09D0     		beq	.L70
 383:Middlewares/Third_Party/LibJPEG/source/jdapimin.c ****     /* STOPPING = repeat call after a suspension, anything else is error */
 384:Middlewares/Third_Party/LibJPEG/source/jdapimin.c ****     ERREXIT1(cinfo, JERR_BAD_STATE, cinfo->global_state);
 818              		.loc 1 384 0
 819 0016 2368     		ldr	r3, [r4]
 820 0018 1522     		movs	r2, #21
 821 001a 5A61     		str	r2, [r3, #20]
 822 001c 2368     		ldr	r3, [r4]
 823 001e 6269     		ldr	r2, [r4, #20]
 824 0020 9A61     		str	r2, [r3, #24]
 825 0022 2368     		ldr	r3, [r4]
 826 0024 1B68     		ldr	r3, [r3]
 827 0026 2046     		mov	r0, r4
 828              	.LVL73:
 829 0028 9847     		blx	r3
 830              	.LVL74:
 831              	.L70:
 385:Middlewares/Third_Party/LibJPEG/source/jdapimin.c ****   }
 386:Middlewares/Third_Party/LibJPEG/source/jdapimin.c ****   /* Read until EOI */
 387:Middlewares/Third_Party/LibJPEG/source/jdapimin.c ****   while (! cinfo->inputctl->eoi_reached) {
 832              		.loc 1 387 0
 833 002a D4F8C831 		ldr	r3, [r4, #456]
 834 002e 5D69     		ldr	r5, [r3, #20]
 835 0030 F5B9     		cbnz	r5, .L75
 388:Middlewares/Third_Party/LibJPEG/source/jdapimin.c ****     if ((*cinfo->inputctl->consume_input) (cinfo) == JPEG_SUSPENDED)
 836              		.loc 1 388 0
 837 0032 1B68     		ldr	r3, [r3]
 838 0034 2046     		mov	r0, r4
 839 0036 9847     		blx	r3
 840              	.LVL75:
 841 0038 0028     		cmp	r0, #0
 842 003a F6D1     		bne	.L70
 843 003c 20E0     		b	.L64
 844              	.LVL76:
 845              	.L73:
 373:Middlewares/Third_Party/LibJPEG/source/jdapimin.c ****     /* Terminate final pass of non-buffered mode */
 846              		.loc 1 373 0
 847 003e 026C     		ldr	r2, [r0, #64]
 848 0040 002A     		cmp	r2, #0
ARM GAS  /tmp/ccQtGQz2.s 			page 24


 849 0042 E4D1     		bne	.L65
 375:Middlewares/Third_Party/LibJPEG/source/jdapimin.c ****       ERREXIT(cinfo, JERR_TOO_LITTLE_DATA);
 850              		.loc 1 375 0
 851 0044 D0F88C20 		ldr	r2, [r0, #140]
 852 0048 436F     		ldr	r3, [r0, #116]
 853 004a 9A42     		cmp	r2, r3
 854 004c 05D2     		bcs	.L66
 376:Middlewares/Third_Party/LibJPEG/source/jdapimin.c ****     (*cinfo->master->finish_output_pass) (cinfo);
 855              		.loc 1 376 0
 856 004e 0368     		ldr	r3, [r0]
 857 0050 4522     		movs	r2, #69
 858 0052 5A61     		str	r2, [r3, #20]
 859 0054 0368     		ldr	r3, [r0]
 860 0056 1B68     		ldr	r3, [r3]
 861 0058 9847     		blx	r3
 862              	.LVL77:
 863              	.L66:
 377:Middlewares/Third_Party/LibJPEG/source/jdapimin.c ****     cinfo->global_state = DSTATE_STOPPING;
 864              		.loc 1 377 0
 865 005a D4F8B831 		ldr	r3, [r4, #440]
 866 005e 5B68     		ldr	r3, [r3, #4]
 867 0060 2046     		mov	r0, r4
 868 0062 9847     		blx	r3
 869              	.LVL78:
 378:Middlewares/Third_Party/LibJPEG/source/jdapimin.c ****   } else if (cinfo->global_state == DSTATE_BUFIMAGE) {
 870              		.loc 1 378 0
 871 0064 D223     		movs	r3, #210
 872 0066 6361     		str	r3, [r4, #20]
 873 0068 DFE7     		b	.L70
 874              	.LVL79:
 875              	.L74:
 381:Middlewares/Third_Party/LibJPEG/source/jdapimin.c ****   } else if (cinfo->global_state != DSTATE_STOPPING) {
 876              		.loc 1 381 0
 877 006a D223     		movs	r3, #210
 878 006c 6361     		str	r3, [r4, #20]
 879 006e DCE7     		b	.L70
 880              	.LVL80:
 881              	.L75:
 389:Middlewares/Third_Party/LibJPEG/source/jdapimin.c ****       return FALSE;		/* Suspend, come back later */
 390:Middlewares/Third_Party/LibJPEG/source/jdapimin.c ****   }
 391:Middlewares/Third_Party/LibJPEG/source/jdapimin.c ****   /* Do final cleanup */
 392:Middlewares/Third_Party/LibJPEG/source/jdapimin.c ****   (*cinfo->src->term_source) (cinfo);
 882              		.loc 1 392 0
 883 0070 A369     		ldr	r3, [r4, #24]
 884 0072 9B69     		ldr	r3, [r3, #24]
 885 0074 2046     		mov	r0, r4
 886 0076 9847     		blx	r3
 887              	.LVL81:
 393:Middlewares/Third_Party/LibJPEG/source/jdapimin.c ****   /* We can use jpeg_abort to release memory and reset global_state */
 394:Middlewares/Third_Party/LibJPEG/source/jdapimin.c ****   jpeg_abort((j_common_ptr) cinfo);
 888              		.loc 1 394 0
 889 0078 2046     		mov	r0, r4
 890 007a FFF7FEFF 		bl	jpeg_abort
 891              	.LVL82:
 395:Middlewares/Third_Party/LibJPEG/source/jdapimin.c ****   return TRUE;
 892              		.loc 1 395 0
 893 007e 0125     		movs	r5, #1
ARM GAS  /tmp/ccQtGQz2.s 			page 25


 894              	.L64:
 396:Middlewares/Third_Party/LibJPEG/source/jdapimin.c **** }
 895              		.loc 1 396 0
 896 0080 2846     		mov	r0, r5
 897 0082 38BD     		pop	{r3, r4, r5, pc}
 898              		.cfi_endproc
 899              	.LFE11:
 901              		.text
 902              	.Letext0:
 903              		.file 2 "/home/jaxc/opt/gcc-arm-none-eabi-7-2018-q2-update/lib/gcc/arm-none-eabi/7.3.1/include/std
 904              		.file 3 "/home/jaxc/opt/gcc-arm-none-eabi-7-2018-q2-update/arm-none-eabi/include/sys/lock.h"
 905              		.file 4 "/home/jaxc/opt/gcc-arm-none-eabi-7-2018-q2-update/arm-none-eabi/include/sys/_types.h"
 906              		.file 5 "/home/jaxc/opt/gcc-arm-none-eabi-7-2018-q2-update/arm-none-eabi/include/sys/reent.h"
 907              		.file 6 "/home/jaxc/opt/gcc-arm-none-eabi-7-2018-q2-update/arm-none-eabi/include/stdlib.h"
 908              		.file 7 "Inc/jmorecfg.h"
 909              		.file 8 "Middlewares/Third_Party/LibJPEG/include/jpeglib.h"
 910              		.file 9 "Middlewares/Third_Party/LibJPEG/include/jpegint.h"
 911              		.file 10 "Middlewares/Third_Party/LibJPEG/include/jerror.h"
 912              		.file 11 "<built-in>"
ARM GAS  /tmp/ccQtGQz2.s 			page 26

