ARM GAS  /tmp/ccBe0qTg.s 			page 1


   1              		.cpu cortex-m7
   2              		.eabi_attribute 27, 1
   3              		.eabi_attribute 28, 1
   4              		.eabi_attribute 20, 1
   5              		.eabi_attribute 21, 1
   6              		.eabi_attribute 23, 3
   7              		.eabi_attribute 24, 1
   8              		.eabi_attribute 25, 1
   9              		.eabi_attribute 26, 1
  10              		.eabi_attribute 30, 1
  11              		.eabi_attribute 34, 1
  12              		.eabi_attribute 18, 4
  13              		.file	"jdtrans.c"
  14              		.text
  15              	.Ltext0:
  16              		.cfi_sections	.debug_frame
  17              		.section	.text.transdecode_master_selection,"ax",%progbits
  18              		.align	1
  19              		.syntax unified
  20              		.thumb
  21              		.thumb_func
  22              		.fpu fpv5-sp-d16
  24              	transdecode_master_selection:
  25              	.LFB4:
  26              		.file 1 "Middlewares/Third_Party/LibJPEG/source/jdtrans.c"
   1:Middlewares/Third_Party/LibJPEG/source/jdtrans.c **** /*
   2:Middlewares/Third_Party/LibJPEG/source/jdtrans.c ****  * jdtrans.c
   3:Middlewares/Third_Party/LibJPEG/source/jdtrans.c ****  *
   4:Middlewares/Third_Party/LibJPEG/source/jdtrans.c ****  * Copyright (C) 1995-1997, Thomas G. Lane.
   5:Middlewares/Third_Party/LibJPEG/source/jdtrans.c ****  * Modified 2000-2009 by Guido Vollbeding.
   6:Middlewares/Third_Party/LibJPEG/source/jdtrans.c ****  * This file is part of the Independent JPEG Group's software.
   7:Middlewares/Third_Party/LibJPEG/source/jdtrans.c ****  * For conditions of distribution and use, see the accompanying README file.
   8:Middlewares/Third_Party/LibJPEG/source/jdtrans.c ****  *
   9:Middlewares/Third_Party/LibJPEG/source/jdtrans.c ****  * This file contains library routines for transcoding decompression,
  10:Middlewares/Third_Party/LibJPEG/source/jdtrans.c ****  * that is, reading raw DCT coefficient arrays from an input JPEG file.
  11:Middlewares/Third_Party/LibJPEG/source/jdtrans.c ****  * The routines in jdapimin.c will also be needed by a transcoder.
  12:Middlewares/Third_Party/LibJPEG/source/jdtrans.c ****  */
  13:Middlewares/Third_Party/LibJPEG/source/jdtrans.c **** 
  14:Middlewares/Third_Party/LibJPEG/source/jdtrans.c **** #define JPEG_INTERNALS
  15:Middlewares/Third_Party/LibJPEG/source/jdtrans.c **** #include "jinclude.h"
  16:Middlewares/Third_Party/LibJPEG/source/jdtrans.c **** #include "jpeglib.h"
  17:Middlewares/Third_Party/LibJPEG/source/jdtrans.c **** 
  18:Middlewares/Third_Party/LibJPEG/source/jdtrans.c **** 
  19:Middlewares/Third_Party/LibJPEG/source/jdtrans.c **** /* Forward declarations */
  20:Middlewares/Third_Party/LibJPEG/source/jdtrans.c **** LOCAL(void) transdecode_master_selection JPP((j_decompress_ptr cinfo));
  21:Middlewares/Third_Party/LibJPEG/source/jdtrans.c **** 
  22:Middlewares/Third_Party/LibJPEG/source/jdtrans.c **** 
  23:Middlewares/Third_Party/LibJPEG/source/jdtrans.c **** /*
  24:Middlewares/Third_Party/LibJPEG/source/jdtrans.c ****  * Read the coefficient arrays from a JPEG file.
  25:Middlewares/Third_Party/LibJPEG/source/jdtrans.c ****  * jpeg_read_header must be completed before calling this.
  26:Middlewares/Third_Party/LibJPEG/source/jdtrans.c ****  *
  27:Middlewares/Third_Party/LibJPEG/source/jdtrans.c ****  * The entire image is read into a set of virtual coefficient-block arrays,
  28:Middlewares/Third_Party/LibJPEG/source/jdtrans.c ****  * one per component.  The return value is a pointer to the array of
  29:Middlewares/Third_Party/LibJPEG/source/jdtrans.c ****  * virtual-array descriptors.  These can be manipulated directly via the
  30:Middlewares/Third_Party/LibJPEG/source/jdtrans.c ****  * JPEG memory manager, or handed off to jpeg_write_coefficients().
  31:Middlewares/Third_Party/LibJPEG/source/jdtrans.c ****  * To release the memory occupied by the virtual arrays, call
  32:Middlewares/Third_Party/LibJPEG/source/jdtrans.c ****  * jpeg_finish_decompress() when done with the data.
ARM GAS  /tmp/ccBe0qTg.s 			page 2


  33:Middlewares/Third_Party/LibJPEG/source/jdtrans.c ****  *
  34:Middlewares/Third_Party/LibJPEG/source/jdtrans.c ****  * An alternative usage is to simply obtain access to the coefficient arrays
  35:Middlewares/Third_Party/LibJPEG/source/jdtrans.c ****  * during a buffered-image-mode decompression operation.  This is allowed
  36:Middlewares/Third_Party/LibJPEG/source/jdtrans.c ****  * after any jpeg_finish_output() call.  The arrays can be accessed until
  37:Middlewares/Third_Party/LibJPEG/source/jdtrans.c ****  * jpeg_finish_decompress() is called.  (Note that any call to the library
  38:Middlewares/Third_Party/LibJPEG/source/jdtrans.c ****  * may reposition the arrays, so don't rely on access_virt_barray() results
  39:Middlewares/Third_Party/LibJPEG/source/jdtrans.c ****  * to stay valid across library calls.)
  40:Middlewares/Third_Party/LibJPEG/source/jdtrans.c ****  *
  41:Middlewares/Third_Party/LibJPEG/source/jdtrans.c ****  * Returns NULL if suspended.  This case need be checked only if
  42:Middlewares/Third_Party/LibJPEG/source/jdtrans.c ****  * a suspending data source is used.
  43:Middlewares/Third_Party/LibJPEG/source/jdtrans.c ****  */
  44:Middlewares/Third_Party/LibJPEG/source/jdtrans.c **** 
  45:Middlewares/Third_Party/LibJPEG/source/jdtrans.c **** GLOBAL(jvirt_barray_ptr *)
  46:Middlewares/Third_Party/LibJPEG/source/jdtrans.c **** jpeg_read_coefficients (j_decompress_ptr cinfo)
  47:Middlewares/Third_Party/LibJPEG/source/jdtrans.c **** {
  48:Middlewares/Third_Party/LibJPEG/source/jdtrans.c ****   if (cinfo->global_state == DSTATE_READY) {
  49:Middlewares/Third_Party/LibJPEG/source/jdtrans.c ****     /* First call: initialize active modules */
  50:Middlewares/Third_Party/LibJPEG/source/jdtrans.c ****     transdecode_master_selection(cinfo);
  51:Middlewares/Third_Party/LibJPEG/source/jdtrans.c ****     cinfo->global_state = DSTATE_RDCOEFS;
  52:Middlewares/Third_Party/LibJPEG/source/jdtrans.c ****   }
  53:Middlewares/Third_Party/LibJPEG/source/jdtrans.c ****   if (cinfo->global_state == DSTATE_RDCOEFS) {
  54:Middlewares/Third_Party/LibJPEG/source/jdtrans.c ****     /* Absorb whole file into the coef buffer */
  55:Middlewares/Third_Party/LibJPEG/source/jdtrans.c ****     for (;;) {
  56:Middlewares/Third_Party/LibJPEG/source/jdtrans.c ****       int retcode;
  57:Middlewares/Third_Party/LibJPEG/source/jdtrans.c ****       /* Call progress monitor hook if present */
  58:Middlewares/Third_Party/LibJPEG/source/jdtrans.c ****       if (cinfo->progress != NULL)
  59:Middlewares/Third_Party/LibJPEG/source/jdtrans.c **** 	(*cinfo->progress->progress_monitor) ((j_common_ptr) cinfo);
  60:Middlewares/Third_Party/LibJPEG/source/jdtrans.c ****       /* Absorb some more input */
  61:Middlewares/Third_Party/LibJPEG/source/jdtrans.c ****       retcode = (*cinfo->inputctl->consume_input) (cinfo);
  62:Middlewares/Third_Party/LibJPEG/source/jdtrans.c ****       if (retcode == JPEG_SUSPENDED)
  63:Middlewares/Third_Party/LibJPEG/source/jdtrans.c **** 	return NULL;
  64:Middlewares/Third_Party/LibJPEG/source/jdtrans.c ****       if (retcode == JPEG_REACHED_EOI)
  65:Middlewares/Third_Party/LibJPEG/source/jdtrans.c **** 	break;
  66:Middlewares/Third_Party/LibJPEG/source/jdtrans.c ****       /* Advance progress counter if appropriate */
  67:Middlewares/Third_Party/LibJPEG/source/jdtrans.c ****       if (cinfo->progress != NULL &&
  68:Middlewares/Third_Party/LibJPEG/source/jdtrans.c **** 	  (retcode == JPEG_ROW_COMPLETED || retcode == JPEG_REACHED_SOS)) {
  69:Middlewares/Third_Party/LibJPEG/source/jdtrans.c **** 	if (++cinfo->progress->pass_counter >= cinfo->progress->pass_limit) {
  70:Middlewares/Third_Party/LibJPEG/source/jdtrans.c **** 	  /* startup underestimated number of scans; ratchet up one scan */
  71:Middlewares/Third_Party/LibJPEG/source/jdtrans.c **** 	  cinfo->progress->pass_limit += (long) cinfo->total_iMCU_rows;
  72:Middlewares/Third_Party/LibJPEG/source/jdtrans.c **** 	}
  73:Middlewares/Third_Party/LibJPEG/source/jdtrans.c ****       }
  74:Middlewares/Third_Party/LibJPEG/source/jdtrans.c ****     }
  75:Middlewares/Third_Party/LibJPEG/source/jdtrans.c ****     /* Set state so that jpeg_finish_decompress does the right thing */
  76:Middlewares/Third_Party/LibJPEG/source/jdtrans.c ****     cinfo->global_state = DSTATE_STOPPING;
  77:Middlewares/Third_Party/LibJPEG/source/jdtrans.c ****   }
  78:Middlewares/Third_Party/LibJPEG/source/jdtrans.c ****   /* At this point we should be in state DSTATE_STOPPING if being used
  79:Middlewares/Third_Party/LibJPEG/source/jdtrans.c ****    * standalone, or in state DSTATE_BUFIMAGE if being invoked to get access
  80:Middlewares/Third_Party/LibJPEG/source/jdtrans.c ****    * to the coefficients during a full buffered-image-mode decompression.
  81:Middlewares/Third_Party/LibJPEG/source/jdtrans.c ****    */
  82:Middlewares/Third_Party/LibJPEG/source/jdtrans.c ****   if ((cinfo->global_state == DSTATE_STOPPING ||
  83:Middlewares/Third_Party/LibJPEG/source/jdtrans.c ****        cinfo->global_state == DSTATE_BUFIMAGE) && cinfo->buffered_image) {
  84:Middlewares/Third_Party/LibJPEG/source/jdtrans.c ****     return cinfo->coef->coef_arrays;
  85:Middlewares/Third_Party/LibJPEG/source/jdtrans.c ****   }
  86:Middlewares/Third_Party/LibJPEG/source/jdtrans.c ****   /* Oops, improper usage */
  87:Middlewares/Third_Party/LibJPEG/source/jdtrans.c ****   ERREXIT1(cinfo, JERR_BAD_STATE, cinfo->global_state);
  88:Middlewares/Third_Party/LibJPEG/source/jdtrans.c ****   return NULL;			/* keep compiler happy */
  89:Middlewares/Third_Party/LibJPEG/source/jdtrans.c **** }
ARM GAS  /tmp/ccBe0qTg.s 			page 3


  90:Middlewares/Third_Party/LibJPEG/source/jdtrans.c **** 
  91:Middlewares/Third_Party/LibJPEG/source/jdtrans.c **** 
  92:Middlewares/Third_Party/LibJPEG/source/jdtrans.c **** /*
  93:Middlewares/Third_Party/LibJPEG/source/jdtrans.c ****  * Master selection of decompression modules for transcoding.
  94:Middlewares/Third_Party/LibJPEG/source/jdtrans.c ****  * This substitutes for jdmaster.c's initialization of the full decompressor.
  95:Middlewares/Third_Party/LibJPEG/source/jdtrans.c ****  */
  96:Middlewares/Third_Party/LibJPEG/source/jdtrans.c **** 
  97:Middlewares/Third_Party/LibJPEG/source/jdtrans.c **** LOCAL(void)
  98:Middlewares/Third_Party/LibJPEG/source/jdtrans.c **** transdecode_master_selection (j_decompress_ptr cinfo)
  99:Middlewares/Third_Party/LibJPEG/source/jdtrans.c **** {
  27              		.loc 1 99 0
  28              		.cfi_startproc
  29              		@ args = 0, pretend = 0, frame = 0
  30              		@ frame_needed = 0, uses_anonymous_args = 0
  31              	.LVL0:
  32 0000 10B5     		push	{r4, lr}
  33              	.LCFI0:
  34              		.cfi_def_cfa_offset 8
  35              		.cfi_offset 4, -8
  36              		.cfi_offset 14, -4
  37 0002 0446     		mov	r4, r0
 100:Middlewares/Third_Party/LibJPEG/source/jdtrans.c ****   /* This is effectively a buffered-image operation. */
 101:Middlewares/Third_Party/LibJPEG/source/jdtrans.c ****   cinfo->buffered_image = TRUE;
  38              		.loc 1 101 0
  39 0004 0123     		movs	r3, #1
  40 0006 0364     		str	r3, [r0, #64]
 102:Middlewares/Third_Party/LibJPEG/source/jdtrans.c **** 
 103:Middlewares/Third_Party/LibJPEG/source/jdtrans.c ****   /* Compute output image dimensions and related values. */
 104:Middlewares/Third_Party/LibJPEG/source/jdtrans.c ****   jpeg_core_output_dimensions(cinfo);
  41              		.loc 1 104 0
  42 0008 FFF7FEFF 		bl	jpeg_core_output_dimensions
  43              	.LVL1:
 105:Middlewares/Third_Party/LibJPEG/source/jdtrans.c **** 
 106:Middlewares/Third_Party/LibJPEG/source/jdtrans.c ****   /* Entropy decoding: either Huffman or arithmetic coding. */
 107:Middlewares/Third_Party/LibJPEG/source/jdtrans.c ****   if (cinfo->arith_code)
  44              		.loc 1 107 0
  45 000c D4F8E430 		ldr	r3, [r4, #228]
  46 0010 33B3     		cbz	r3, .L2
 108:Middlewares/Third_Party/LibJPEG/source/jdtrans.c ****     jinit_arith_decoder(cinfo);
  47              		.loc 1 108 0
  48 0012 2046     		mov	r0, r4
  49 0014 FFF7FEFF 		bl	jinit_arith_decoder
  50              	.LVL2:
  51              	.L3:
 109:Middlewares/Third_Party/LibJPEG/source/jdtrans.c ****   else {
 110:Middlewares/Third_Party/LibJPEG/source/jdtrans.c ****     jinit_huff_decoder(cinfo);
 111:Middlewares/Third_Party/LibJPEG/source/jdtrans.c ****   }
 112:Middlewares/Third_Party/LibJPEG/source/jdtrans.c **** 
 113:Middlewares/Third_Party/LibJPEG/source/jdtrans.c ****   /* Always get a full-image coefficient buffer. */
 114:Middlewares/Third_Party/LibJPEG/source/jdtrans.c ****   jinit_d_coef_controller(cinfo, TRUE);
  52              		.loc 1 114 0
  53 0018 0121     		movs	r1, #1
  54 001a 2046     		mov	r0, r4
  55 001c FFF7FEFF 		bl	jinit_d_coef_controller
  56              	.LVL3:
 115:Middlewares/Third_Party/LibJPEG/source/jdtrans.c **** 
 116:Middlewares/Third_Party/LibJPEG/source/jdtrans.c ****   /* We can now tell the memory manager to allocate virtual arrays. */
ARM GAS  /tmp/ccBe0qTg.s 			page 4


 117:Middlewares/Third_Party/LibJPEG/source/jdtrans.c ****   (*cinfo->mem->realize_virt_arrays) ((j_common_ptr) cinfo);
  57              		.loc 1 117 0
  58 0020 6368     		ldr	r3, [r4, #4]
  59 0022 9B69     		ldr	r3, [r3, #24]
  60 0024 2046     		mov	r0, r4
  61 0026 9847     		blx	r3
  62              	.LVL4:
 118:Middlewares/Third_Party/LibJPEG/source/jdtrans.c **** 
 119:Middlewares/Third_Party/LibJPEG/source/jdtrans.c ****   /* Initialize input side of decompressor to consume first scan. */
 120:Middlewares/Third_Party/LibJPEG/source/jdtrans.c ****   (*cinfo->inputctl->start_input_pass) (cinfo);
  63              		.loc 1 120 0
  64 0028 D4F8C831 		ldr	r3, [r4, #456]
  65 002c 9B68     		ldr	r3, [r3, #8]
  66 002e 2046     		mov	r0, r4
  67 0030 9847     		blx	r3
  68              	.LVL5:
 121:Middlewares/Third_Party/LibJPEG/source/jdtrans.c **** 
 122:Middlewares/Third_Party/LibJPEG/source/jdtrans.c ****   /* Initialize progress monitoring. */
 123:Middlewares/Third_Party/LibJPEG/source/jdtrans.c ****   if (cinfo->progress != NULL) {
  69              		.loc 1 123 0
  70 0032 A268     		ldr	r2, [r4, #8]
  71 0034 9AB1     		cbz	r2, .L1
  72              	.LBB2:
 124:Middlewares/Third_Party/LibJPEG/source/jdtrans.c ****     int nscans;
 125:Middlewares/Third_Party/LibJPEG/source/jdtrans.c ****     /* Estimate number of scans to set pass_limit. */
 126:Middlewares/Third_Party/LibJPEG/source/jdtrans.c ****     if (cinfo->progressive_mode) {
  73              		.loc 1 126 0
  74 0036 D4F8E030 		ldr	r3, [r4, #224]
  75 003a ABB1     		cbz	r3, .L5
 127:Middlewares/Third_Party/LibJPEG/source/jdtrans.c ****       /* Arbitrarily estimate 2 interleaved DC scans + 3 AC scans/component. */
 128:Middlewares/Third_Party/LibJPEG/source/jdtrans.c ****       nscans = 2 + 3 * cinfo->num_components;
  76              		.loc 1 128 0
  77 003c 636A     		ldr	r3, [r4, #36]
  78 003e 03EB4303 		add	r3, r3, r3, lsl #1
  79 0042 0233     		adds	r3, r3, #2
  80              	.LVL6:
  81              	.L6:
 129:Middlewares/Third_Party/LibJPEG/source/jdtrans.c ****     } else if (cinfo->inputctl->has_multiple_scans) {
 130:Middlewares/Third_Party/LibJPEG/source/jdtrans.c ****       /* For a nonprogressive multiscan file, estimate 1 scan per component. */
 131:Middlewares/Third_Party/LibJPEG/source/jdtrans.c ****       nscans = cinfo->num_components;
 132:Middlewares/Third_Party/LibJPEG/source/jdtrans.c ****     } else {
 133:Middlewares/Third_Party/LibJPEG/source/jdtrans.c ****       nscans = 1;
 134:Middlewares/Third_Party/LibJPEG/source/jdtrans.c ****     }
 135:Middlewares/Third_Party/LibJPEG/source/jdtrans.c ****     cinfo->progress->pass_counter = 0L;
  82              		.loc 1 135 0
  83 0044 0021     		movs	r1, #0
  84 0046 5160     		str	r1, [r2, #4]
 136:Middlewares/Third_Party/LibJPEG/source/jdtrans.c ****     cinfo->progress->pass_limit = (long) cinfo->total_iMCU_rows * nscans;
  85              		.loc 1 136 0
  86 0048 D4F84801 		ldr	r0, [r4, #328]
  87 004c A268     		ldr	r2, [r4, #8]
  88 004e 03FB00F3 		mul	r3, r3, r0
  89              	.LVL7:
  90 0052 9360     		str	r3, [r2, #8]
 137:Middlewares/Third_Party/LibJPEG/source/jdtrans.c ****     cinfo->progress->completed_passes = 0;
  91              		.loc 1 137 0
  92 0054 A368     		ldr	r3, [r4, #8]
ARM GAS  /tmp/ccBe0qTg.s 			page 5


  93 0056 D960     		str	r1, [r3, #12]
 138:Middlewares/Third_Party/LibJPEG/source/jdtrans.c ****     cinfo->progress->total_passes = 1;
  94              		.loc 1 138 0
  95 0058 A368     		ldr	r3, [r4, #8]
  96 005a 0122     		movs	r2, #1
  97 005c 1A61     		str	r2, [r3, #16]
  98              	.L1:
  99              	.LBE2:
 139:Middlewares/Third_Party/LibJPEG/source/jdtrans.c ****   }
 140:Middlewares/Third_Party/LibJPEG/source/jdtrans.c **** }
 100              		.loc 1 140 0
 101 005e 10BD     		pop	{r4, pc}
 102              	.LVL8:
 103              	.L2:
 110:Middlewares/Third_Party/LibJPEG/source/jdtrans.c ****   }
 104              		.loc 1 110 0
 105 0060 2046     		mov	r0, r4
 106 0062 FFF7FEFF 		bl	jinit_huff_decoder
 107              	.LVL9:
 108 0066 D7E7     		b	.L3
 109              	.L5:
 110              	.LBB3:
 129:Middlewares/Third_Party/LibJPEG/source/jdtrans.c ****       /* For a nonprogressive multiscan file, estimate 1 scan per component. */
 111              		.loc 1 129 0
 112 0068 D4F8C831 		ldr	r3, [r4, #456]
 113 006c 1B69     		ldr	r3, [r3, #16]
 114 006e 0BB1     		cbz	r3, .L7
 131:Middlewares/Third_Party/LibJPEG/source/jdtrans.c ****     } else {
 115              		.loc 1 131 0
 116 0070 636A     		ldr	r3, [r4, #36]
 117              	.LVL10:
 118 0072 E7E7     		b	.L6
 119              	.LVL11:
 120              	.L7:
 133:Middlewares/Third_Party/LibJPEG/source/jdtrans.c ****     }
 121              		.loc 1 133 0
 122 0074 0123     		movs	r3, #1
 123 0076 E5E7     		b	.L6
 124              	.LBE3:
 125              		.cfi_endproc
 126              	.LFE4:
 128              		.section	.text.jpeg_read_coefficients,"ax",%progbits
 129              		.align	1
 130              		.global	jpeg_read_coefficients
 131              		.syntax unified
 132              		.thumb
 133              		.thumb_func
 134              		.fpu fpv5-sp-d16
 136              	jpeg_read_coefficients:
 137              	.LFB3:
  47:Middlewares/Third_Party/LibJPEG/source/jdtrans.c ****   if (cinfo->global_state == DSTATE_READY) {
 138              		.loc 1 47 0
 139              		.cfi_startproc
 140              		@ args = 0, pretend = 0, frame = 0
 141              		@ frame_needed = 0, uses_anonymous_args = 0
 142              	.LVL12:
 143 0000 10B5     		push	{r4, lr}
ARM GAS  /tmp/ccBe0qTg.s 			page 6


 144              	.LCFI1:
 145              		.cfi_def_cfa_offset 8
 146              		.cfi_offset 4, -8
 147              		.cfi_offset 14, -4
 148 0002 0446     		mov	r4, r0
  48:Middlewares/Third_Party/LibJPEG/source/jdtrans.c ****     /* First call: initialize active modules */
 149              		.loc 1 48 0
 150 0004 4369     		ldr	r3, [r0, #20]
 151 0006 CA2B     		cmp	r3, #202
 152 0008 0DD0     		beq	.L20
 153              	.LVL13:
 154              	.L10:
  53:Middlewares/Third_Party/LibJPEG/source/jdtrans.c ****     /* Absorb whole file into the coef buffer */
 155              		.loc 1 53 0
 156 000a 6369     		ldr	r3, [r4, #20]
 157 000c D12B     		cmp	r3, #209
 158 000e 0FD0     		beq	.L11
 159              	.L12:
  82:Middlewares/Third_Party/LibJPEG/source/jdtrans.c ****        cinfo->global_state == DSTATE_BUFIMAGE) && cinfo->buffered_image) {
 160              		.loc 1 82 0
 161 0010 6369     		ldr	r3, [r4, #20]
 162 0012 CF2B     		cmp	r3, #207
 163 0014 18BF     		it	ne
 164 0016 D22B     		cmpne	r3, #210
 165 0018 2DD1     		bne	.L17
  83:Middlewares/Third_Party/LibJPEG/source/jdtrans.c ****     return cinfo->coef->coef_arrays;
 166              		.loc 1 83 0
 167 001a 236C     		ldr	r3, [r4, #64]
 168 001c 5BB3     		cbz	r3, .L17
  84:Middlewares/Third_Party/LibJPEG/source/jdtrans.c ****   }
 169              		.loc 1 84 0
 170 001e D4F8C031 		ldr	r3, [r4, #448]
 171 0022 1869     		ldr	r0, [r3, #16]
 172              	.L9:
  89:Middlewares/Third_Party/LibJPEG/source/jdtrans.c **** 
 173              		.loc 1 89 0
 174 0024 10BD     		pop	{r4, pc}
 175              	.LVL14:
 176              	.L20:
  50:Middlewares/Third_Party/LibJPEG/source/jdtrans.c ****     cinfo->global_state = DSTATE_RDCOEFS;
 177              		.loc 1 50 0
 178 0026 FFF7FEFF 		bl	transdecode_master_selection
 179              	.LVL15:
  51:Middlewares/Third_Party/LibJPEG/source/jdtrans.c ****   }
 180              		.loc 1 51 0
 181 002a D123     		movs	r3, #209
 182 002c 6361     		str	r3, [r4, #20]
 183 002e ECE7     		b	.L10
 184              	.L11:
 185              	.LBB4:
  58:Middlewares/Third_Party/LibJPEG/source/jdtrans.c **** 	(*cinfo->progress->progress_monitor) ((j_common_ptr) cinfo);
 186              		.loc 1 58 0
 187 0030 A368     		ldr	r3, [r4, #8]
 188 0032 13B1     		cbz	r3, .L13
  59:Middlewares/Third_Party/LibJPEG/source/jdtrans.c ****       /* Absorb some more input */
 189              		.loc 1 59 0
 190 0034 1B68     		ldr	r3, [r3]
ARM GAS  /tmp/ccBe0qTg.s 			page 7


 191 0036 2046     		mov	r0, r4
 192 0038 9847     		blx	r3
 193              	.LVL16:
 194              	.L13:
  61:Middlewares/Third_Party/LibJPEG/source/jdtrans.c ****       if (retcode == JPEG_SUSPENDED)
 195              		.loc 1 61 0
 196 003a D4F8C831 		ldr	r3, [r4, #456]
 197 003e 1B68     		ldr	r3, [r3]
 198 0040 2046     		mov	r0, r4
 199 0042 9847     		blx	r3
 200              	.LVL17:
  62:Middlewares/Third_Party/LibJPEG/source/jdtrans.c **** 	return NULL;
 201              		.loc 1 62 0
 202 0044 18B3     		cbz	r0, .L18
  64:Middlewares/Third_Party/LibJPEG/source/jdtrans.c **** 	break;
 203              		.loc 1 64 0
 204 0046 0228     		cmp	r0, #2
 205 0048 12D0     		beq	.L15
  67:Middlewares/Third_Party/LibJPEG/source/jdtrans.c **** 	  (retcode == JPEG_ROW_COMPLETED || retcode == JPEG_REACHED_SOS)) {
 206              		.loc 1 67 0
 207 004a A268     		ldr	r2, [r4, #8]
 208 004c 002A     		cmp	r2, #0
 209 004e EFD0     		beq	.L11
  67:Middlewares/Third_Party/LibJPEG/source/jdtrans.c **** 	  (retcode == JPEG_ROW_COMPLETED || retcode == JPEG_REACHED_SOS)) {
 210              		.loc 1 67 0 is_stmt 0 discriminator 1
 211 0050 0128     		cmp	r0, #1
 212 0052 18BF     		it	ne
 213 0054 0328     		cmpne	r0, #3
 214 0056 EBD1     		bne	.L11
  69:Middlewares/Third_Party/LibJPEG/source/jdtrans.c **** 	  /* startup underestimated number of scans; ratchet up one scan */
 215              		.loc 1 69 0 is_stmt 1
 216 0058 5368     		ldr	r3, [r2, #4]
 217 005a 0133     		adds	r3, r3, #1
 218 005c 5360     		str	r3, [r2, #4]
 219 005e A168     		ldr	r1, [r4, #8]
 220 0060 8A68     		ldr	r2, [r1, #8]
 221 0062 9342     		cmp	r3, r2
 222 0064 E4DB     		blt	.L11
  71:Middlewares/Third_Party/LibJPEG/source/jdtrans.c **** 	}
 223              		.loc 1 71 0
 224 0066 D4F84831 		ldr	r3, [r4, #328]
 225 006a 1A44     		add	r2, r2, r3
 226 006c 8A60     		str	r2, [r1, #8]
 227 006e DFE7     		b	.L11
 228              	.L15:
 229              	.LBE4:
  76:Middlewares/Third_Party/LibJPEG/source/jdtrans.c ****   }
 230              		.loc 1 76 0
 231 0070 D223     		movs	r3, #210
 232 0072 6361     		str	r3, [r4, #20]
 233 0074 CCE7     		b	.L12
 234              	.LVL18:
 235              	.L17:
  87:Middlewares/Third_Party/LibJPEG/source/jdtrans.c ****   return NULL;			/* keep compiler happy */
 236              		.loc 1 87 0
 237 0076 2368     		ldr	r3, [r4]
 238 0078 1522     		movs	r2, #21
ARM GAS  /tmp/ccBe0qTg.s 			page 8


 239 007a 5A61     		str	r2, [r3, #20]
 240 007c 2368     		ldr	r3, [r4]
 241 007e 6269     		ldr	r2, [r4, #20]
 242 0080 9A61     		str	r2, [r3, #24]
 243 0082 2368     		ldr	r3, [r4]
 244 0084 1B68     		ldr	r3, [r3]
 245 0086 2046     		mov	r0, r4
 246 0088 9847     		blx	r3
 247              	.LVL19:
  88:Middlewares/Third_Party/LibJPEG/source/jdtrans.c **** }
 248              		.loc 1 88 0
 249 008a 0020     		movs	r0, #0
 250 008c CAE7     		b	.L9
 251              	.LVL20:
 252              	.L18:
 253              	.LBB5:
  63:Middlewares/Third_Party/LibJPEG/source/jdtrans.c ****       if (retcode == JPEG_REACHED_EOI)
 254              		.loc 1 63 0
 255 008e 0020     		movs	r0, #0
 256              	.LVL21:
 257 0090 C8E7     		b	.L9
 258              	.LBE5:
 259              		.cfi_endproc
 260              	.LFE3:
 262              		.text
 263              	.Letext0:
 264              		.file 2 "/home/jaxc/opt/gcc-arm-none-eabi-7-2018-q2-update/lib/gcc/arm-none-eabi/7.3.1/include/std
 265              		.file 3 "/home/jaxc/opt/gcc-arm-none-eabi-7-2018-q2-update/arm-none-eabi/include/sys/lock.h"
 266              		.file 4 "/home/jaxc/opt/gcc-arm-none-eabi-7-2018-q2-update/arm-none-eabi/include/sys/_types.h"
 267              		.file 5 "/home/jaxc/opt/gcc-arm-none-eabi-7-2018-q2-update/arm-none-eabi/include/sys/reent.h"
 268              		.file 6 "/home/jaxc/opt/gcc-arm-none-eabi-7-2018-q2-update/arm-none-eabi/include/stdlib.h"
 269              		.file 7 "Inc/jmorecfg.h"
 270              		.file 8 "Middlewares/Third_Party/LibJPEG/include/jpeglib.h"
 271              		.file 9 "Middlewares/Third_Party/LibJPEG/include/jpegint.h"
 272              		.file 10 "Middlewares/Third_Party/LibJPEG/include/jerror.h"
ARM GAS  /tmp/ccBe0qTg.s 			page 9

