ARM GAS  /tmp/ccgMZ2Kl.s 			page 1


   1              		.cpu cortex-m7
   2              		.eabi_attribute 27, 1
   3              		.eabi_attribute 28, 1
   4              		.eabi_attribute 20, 1
   5              		.eabi_attribute 21, 1
   6              		.eabi_attribute 23, 3
   7              		.eabi_attribute 24, 1
   8              		.eabi_attribute 25, 1
   9              		.eabi_attribute 26, 1
  10              		.eabi_attribute 30, 1
  11              		.eabi_attribute 34, 1
  12              		.eabi_attribute 18, 4
  13              		.file	"jerror.c"
  14              		.text
  15              	.Ltext0:
  16              		.cfi_sections	.debug_frame
  17              		.section	.text.output_message,"ax",%progbits
  18              		.align	1
  19              		.syntax unified
  20              		.thumb
  21              		.thumb_func
  22              		.fpu fpv5-sp-d16
  24              	output_message:
  25              	.LFB4:
  26              		.file 1 "Middlewares/Third_Party/LibJPEG/source/jerror.c"
   1:Middlewares/Third_Party/LibJPEG/source/jerror.c **** /*
   2:Middlewares/Third_Party/LibJPEG/source/jerror.c ****  * jerror.c
   3:Middlewares/Third_Party/LibJPEG/source/jerror.c ****  *
   4:Middlewares/Third_Party/LibJPEG/source/jerror.c ****  * Copyright (C) 1991-1998, Thomas G. Lane.
   5:Middlewares/Third_Party/LibJPEG/source/jerror.c ****  * This file is part of the Independent JPEG Group's software.
   6:Middlewares/Third_Party/LibJPEG/source/jerror.c ****  * For conditions of distribution and use, see the accompanying README file.
   7:Middlewares/Third_Party/LibJPEG/source/jerror.c ****  *
   8:Middlewares/Third_Party/LibJPEG/source/jerror.c ****  * This file contains simple error-reporting and trace-message routines.
   9:Middlewares/Third_Party/LibJPEG/source/jerror.c ****  * These are suitable for Unix-like systems and others where writing to
  10:Middlewares/Third_Party/LibJPEG/source/jerror.c ****  * stderr is the right thing to do.  Many applications will want to replace
  11:Middlewares/Third_Party/LibJPEG/source/jerror.c ****  * some or all of these routines.
  12:Middlewares/Third_Party/LibJPEG/source/jerror.c ****  *
  13:Middlewares/Third_Party/LibJPEG/source/jerror.c ****  * If you define USE_WINDOWS_MESSAGEBOX in jconfig.h or in the makefile,
  14:Middlewares/Third_Party/LibJPEG/source/jerror.c ****  * you get a Windows-specific hack to display error messages in a dialog box.
  15:Middlewares/Third_Party/LibJPEG/source/jerror.c ****  * It ain't much, but it beats dropping error messages into the bit bucket,
  16:Middlewares/Third_Party/LibJPEG/source/jerror.c ****  * which is what happens to output to stderr under most Windows C compilers.
  17:Middlewares/Third_Party/LibJPEG/source/jerror.c ****  *
  18:Middlewares/Third_Party/LibJPEG/source/jerror.c ****  * These routines are used by both the compression and decompression code.
  19:Middlewares/Third_Party/LibJPEG/source/jerror.c ****  */
  20:Middlewares/Third_Party/LibJPEG/source/jerror.c **** 
  21:Middlewares/Third_Party/LibJPEG/source/jerror.c **** /* this is not a core library module, so it doesn't define JPEG_INTERNALS */
  22:Middlewares/Third_Party/LibJPEG/source/jerror.c **** #include "jinclude.h"
  23:Middlewares/Third_Party/LibJPEG/source/jerror.c **** #include "jpeglib.h"
  24:Middlewares/Third_Party/LibJPEG/source/jerror.c **** #include "jversion.h"
  25:Middlewares/Third_Party/LibJPEG/source/jerror.c **** #include "jerror.h"
  26:Middlewares/Third_Party/LibJPEG/source/jerror.c **** 
  27:Middlewares/Third_Party/LibJPEG/source/jerror.c **** #ifdef USE_WINDOWS_MESSAGEBOX
  28:Middlewares/Third_Party/LibJPEG/source/jerror.c **** #include <windows.h>
  29:Middlewares/Third_Party/LibJPEG/source/jerror.c **** #endif
  30:Middlewares/Third_Party/LibJPEG/source/jerror.c **** 
  31:Middlewares/Third_Party/LibJPEG/source/jerror.c **** #ifndef EXIT_FAILURE		/* define exit() codes if not provided */
  32:Middlewares/Third_Party/LibJPEG/source/jerror.c **** #define EXIT_FAILURE  1
ARM GAS  /tmp/ccgMZ2Kl.s 			page 2


  33:Middlewares/Third_Party/LibJPEG/source/jerror.c **** #endif
  34:Middlewares/Third_Party/LibJPEG/source/jerror.c **** 
  35:Middlewares/Third_Party/LibJPEG/source/jerror.c **** 
  36:Middlewares/Third_Party/LibJPEG/source/jerror.c **** /*
  37:Middlewares/Third_Party/LibJPEG/source/jerror.c ****  * Create the message string table.
  38:Middlewares/Third_Party/LibJPEG/source/jerror.c ****  * We do this from the master message list in jerror.h by re-reading
  39:Middlewares/Third_Party/LibJPEG/source/jerror.c ****  * jerror.h with a suitable definition for macro JMESSAGE.
  40:Middlewares/Third_Party/LibJPEG/source/jerror.c ****  * The message table is made an external symbol just in case any applications
  41:Middlewares/Third_Party/LibJPEG/source/jerror.c ****  * want to refer to it directly.
  42:Middlewares/Third_Party/LibJPEG/source/jerror.c ****  */
  43:Middlewares/Third_Party/LibJPEG/source/jerror.c **** 
  44:Middlewares/Third_Party/LibJPEG/source/jerror.c **** #ifdef NEED_SHORT_EXTERNAL_NAMES
  45:Middlewares/Third_Party/LibJPEG/source/jerror.c **** #define jpeg_std_message_table	jMsgTable
  46:Middlewares/Third_Party/LibJPEG/source/jerror.c **** #endif
  47:Middlewares/Third_Party/LibJPEG/source/jerror.c **** 
  48:Middlewares/Third_Party/LibJPEG/source/jerror.c **** #define JMESSAGE(code,string)	string ,
  49:Middlewares/Third_Party/LibJPEG/source/jerror.c **** 
  50:Middlewares/Third_Party/LibJPEG/source/jerror.c **** const char * const jpeg_std_message_table[] = {
  51:Middlewares/Third_Party/LibJPEG/source/jerror.c **** #include "jerror.h"
  52:Middlewares/Third_Party/LibJPEG/source/jerror.c ****   NULL
  53:Middlewares/Third_Party/LibJPEG/source/jerror.c **** };
  54:Middlewares/Third_Party/LibJPEG/source/jerror.c **** 
  55:Middlewares/Third_Party/LibJPEG/source/jerror.c **** 
  56:Middlewares/Third_Party/LibJPEG/source/jerror.c **** /*
  57:Middlewares/Third_Party/LibJPEG/source/jerror.c ****  * Error exit handler: must not return to caller.
  58:Middlewares/Third_Party/LibJPEG/source/jerror.c ****  *
  59:Middlewares/Third_Party/LibJPEG/source/jerror.c ****  * Applications may override this if they want to get control back after
  60:Middlewares/Third_Party/LibJPEG/source/jerror.c ****  * an error.  Typically one would longjmp somewhere instead of exiting.
  61:Middlewares/Third_Party/LibJPEG/source/jerror.c ****  * The setjmp buffer can be made a private field within an expanded error
  62:Middlewares/Third_Party/LibJPEG/source/jerror.c ****  * handler object.  Note that the info needed to generate an error message
  63:Middlewares/Third_Party/LibJPEG/source/jerror.c ****  * is stored in the error object, so you can generate the message now or
  64:Middlewares/Third_Party/LibJPEG/source/jerror.c ****  * later, at your convenience.
  65:Middlewares/Third_Party/LibJPEG/source/jerror.c ****  * You should make sure that the JPEG object is cleaned up (with jpeg_abort
  66:Middlewares/Third_Party/LibJPEG/source/jerror.c ****  * or jpeg_destroy) at some point.
  67:Middlewares/Third_Party/LibJPEG/source/jerror.c ****  */
  68:Middlewares/Third_Party/LibJPEG/source/jerror.c **** 
  69:Middlewares/Third_Party/LibJPEG/source/jerror.c **** METHODDEF(void)
  70:Middlewares/Third_Party/LibJPEG/source/jerror.c **** error_exit (j_common_ptr cinfo)
  71:Middlewares/Third_Party/LibJPEG/source/jerror.c **** {
  72:Middlewares/Third_Party/LibJPEG/source/jerror.c ****   /* Always display the message */
  73:Middlewares/Third_Party/LibJPEG/source/jerror.c ****   (*cinfo->err->output_message) (cinfo);
  74:Middlewares/Third_Party/LibJPEG/source/jerror.c **** 
  75:Middlewares/Third_Party/LibJPEG/source/jerror.c ****   /* Let the memory manager delete any temp files before we die */
  76:Middlewares/Third_Party/LibJPEG/source/jerror.c ****   jpeg_destroy(cinfo);
  77:Middlewares/Third_Party/LibJPEG/source/jerror.c **** 
  78:Middlewares/Third_Party/LibJPEG/source/jerror.c ****   //exit(EXIT_FAILURE);
  79:Middlewares/Third_Party/LibJPEG/source/jerror.c **** }
  80:Middlewares/Third_Party/LibJPEG/source/jerror.c **** 
  81:Middlewares/Third_Party/LibJPEG/source/jerror.c **** 
  82:Middlewares/Third_Party/LibJPEG/source/jerror.c **** /*
  83:Middlewares/Third_Party/LibJPEG/source/jerror.c ****  * Actual output of an error or trace message.
  84:Middlewares/Third_Party/LibJPEG/source/jerror.c ****  * Applications may override this method to send JPEG messages somewhere
  85:Middlewares/Third_Party/LibJPEG/source/jerror.c ****  * other than stderr.
  86:Middlewares/Third_Party/LibJPEG/source/jerror.c ****  *
  87:Middlewares/Third_Party/LibJPEG/source/jerror.c ****  * On Windows, printing to stderr is generally completely useless,
  88:Middlewares/Third_Party/LibJPEG/source/jerror.c ****  * so we provide optional code to produce an error-dialog popup.
  89:Middlewares/Third_Party/LibJPEG/source/jerror.c ****  * Most Windows applications will still prefer to override this routine,
ARM GAS  /tmp/ccgMZ2Kl.s 			page 3


  90:Middlewares/Third_Party/LibJPEG/source/jerror.c ****  * but if they don't, it'll do something at least marginally useful.
  91:Middlewares/Third_Party/LibJPEG/source/jerror.c ****  *
  92:Middlewares/Third_Party/LibJPEG/source/jerror.c ****  * NOTE: to use the library in an environment that doesn't support the
  93:Middlewares/Third_Party/LibJPEG/source/jerror.c ****  * C stdio library, you may have to delete the call to fprintf() entirely,
  94:Middlewares/Third_Party/LibJPEG/source/jerror.c ****  * not just not use this routine.
  95:Middlewares/Third_Party/LibJPEG/source/jerror.c ****  */
  96:Middlewares/Third_Party/LibJPEG/source/jerror.c **** 
  97:Middlewares/Third_Party/LibJPEG/source/jerror.c **** METHODDEF(void)
  98:Middlewares/Third_Party/LibJPEG/source/jerror.c **** output_message (j_common_ptr cinfo)
  99:Middlewares/Third_Party/LibJPEG/source/jerror.c **** {
  27              		.loc 1 99 0
  28              		.cfi_startproc
  29              		@ args = 0, pretend = 0, frame = 200
  30              		@ frame_needed = 0, uses_anonymous_args = 0
  31              	.LVL0:
  32 0000 00B5     		push	{lr}
  33              	.LCFI0:
  34              		.cfi_def_cfa_offset 4
  35              		.cfi_offset 14, -4
  36 0002 B3B0     		sub	sp, sp, #204
  37              	.LCFI1:
  38              		.cfi_def_cfa_offset 208
 100:Middlewares/Third_Party/LibJPEG/source/jerror.c ****   char buffer[JMSG_LENGTH_MAX];
 101:Middlewares/Third_Party/LibJPEG/source/jerror.c **** 
 102:Middlewares/Third_Party/LibJPEG/source/jerror.c ****   /* Create the message */
 103:Middlewares/Third_Party/LibJPEG/source/jerror.c ****   (*cinfo->err->format_message) (cinfo, buffer);
  39              		.loc 1 103 0
  40 0004 0368     		ldr	r3, [r0]
  41 0006 DB68     		ldr	r3, [r3, #12]
  42 0008 6946     		mov	r1, sp
  43 000a 9847     		blx	r3
  44              	.LVL1:
 104:Middlewares/Third_Party/LibJPEG/source/jerror.c **** 
 105:Middlewares/Third_Party/LibJPEG/source/jerror.c **** #ifdef USE_WINDOWS_MESSAGEBOX
 106:Middlewares/Third_Party/LibJPEG/source/jerror.c ****   /* Display it in a message dialog box */
 107:Middlewares/Third_Party/LibJPEG/source/jerror.c ****   MessageBox(GetActiveWindow(), buffer, "JPEG Library Error",
 108:Middlewares/Third_Party/LibJPEG/source/jerror.c **** 	     MB_OK | MB_ICONERROR);
 109:Middlewares/Third_Party/LibJPEG/source/jerror.c **** #else
 110:Middlewares/Third_Party/LibJPEG/source/jerror.c ****   /* Send it to stderr, adding a newline */
 111:Middlewares/Third_Party/LibJPEG/source/jerror.c **** //  fprintf(stderr, "%s\n", buffer);
 112:Middlewares/Third_Party/LibJPEG/source/jerror.c **** //  printf( "%s\n", buffer);
 113:Middlewares/Third_Party/LibJPEG/source/jerror.c **** #endif
 114:Middlewares/Third_Party/LibJPEG/source/jerror.c **** }
  45              		.loc 1 114 0
  46 000c 33B0     		add	sp, sp, #204
  47              	.LCFI2:
  48              		.cfi_def_cfa_offset 4
  49              		@ sp needed
  50 000e 5DF804FB 		ldr	pc, [sp], #4
  51              		.cfi_endproc
  52              	.LFE4:
  54              		.section	.text.emit_message,"ax",%progbits
  55              		.align	1
  56              		.syntax unified
  57              		.thumb
  58              		.thumb_func
  59              		.fpu fpv5-sp-d16
ARM GAS  /tmp/ccgMZ2Kl.s 			page 4


  61              	emit_message:
  62              	.LFB5:
 115:Middlewares/Third_Party/LibJPEG/source/jerror.c **** 
 116:Middlewares/Third_Party/LibJPEG/source/jerror.c **** 
 117:Middlewares/Third_Party/LibJPEG/source/jerror.c **** /*
 118:Middlewares/Third_Party/LibJPEG/source/jerror.c ****  * Decide whether to emit a trace or warning message.
 119:Middlewares/Third_Party/LibJPEG/source/jerror.c ****  * msg_level is one of:
 120:Middlewares/Third_Party/LibJPEG/source/jerror.c ****  *   -1: recoverable corrupt-data warning, may want to abort.
 121:Middlewares/Third_Party/LibJPEG/source/jerror.c ****  *    0: important advisory messages (always display to user).
 122:Middlewares/Third_Party/LibJPEG/source/jerror.c ****  *    1: first level of tracing detail.
 123:Middlewares/Third_Party/LibJPEG/source/jerror.c ****  *    2,3,...: successively more detailed tracing messages.
 124:Middlewares/Third_Party/LibJPEG/source/jerror.c ****  * An application might override this method if it wanted to abort on warnings
 125:Middlewares/Third_Party/LibJPEG/source/jerror.c ****  * or change the policy about which messages to display.
 126:Middlewares/Third_Party/LibJPEG/source/jerror.c ****  */
 127:Middlewares/Third_Party/LibJPEG/source/jerror.c **** 
 128:Middlewares/Third_Party/LibJPEG/source/jerror.c **** METHODDEF(void)
 129:Middlewares/Third_Party/LibJPEG/source/jerror.c **** emit_message (j_common_ptr cinfo, int msg_level)
 130:Middlewares/Third_Party/LibJPEG/source/jerror.c **** {
  63              		.loc 1 130 0
  64              		.cfi_startproc
  65              		@ args = 0, pretend = 0, frame = 0
  66              		@ frame_needed = 0, uses_anonymous_args = 0
  67              	.LVL2:
  68 0000 10B5     		push	{r4, lr}
  69              	.LCFI3:
  70              		.cfi_def_cfa_offset 8
  71              		.cfi_offset 4, -8
  72              		.cfi_offset 14, -4
 131:Middlewares/Third_Party/LibJPEG/source/jerror.c ****   struct jpeg_error_mgr * err = cinfo->err;
  73              		.loc 1 131 0
  74 0002 0468     		ldr	r4, [r0]
  75              	.LVL3:
 132:Middlewares/Third_Party/LibJPEG/source/jerror.c **** 
 133:Middlewares/Third_Party/LibJPEG/source/jerror.c ****   if (msg_level < 0) {
  76              		.loc 1 133 0
  77 0004 0029     		cmp	r1, #0
  78 0006 05DB     		blt	.L9
 134:Middlewares/Third_Party/LibJPEG/source/jerror.c ****     /* It's a warning message.  Since corrupt files may generate many warnings,
 135:Middlewares/Third_Party/LibJPEG/source/jerror.c ****      * the policy implemented here is to show only the first warning,
 136:Middlewares/Third_Party/LibJPEG/source/jerror.c ****      * unless trace_level >= 3.
 137:Middlewares/Third_Party/LibJPEG/source/jerror.c ****      */
 138:Middlewares/Third_Party/LibJPEG/source/jerror.c ****     if (err->num_warnings == 0 || err->trace_level >= 3)
 139:Middlewares/Third_Party/LibJPEG/source/jerror.c ****       (*err->output_message) (cinfo);
 140:Middlewares/Third_Party/LibJPEG/source/jerror.c ****     /* Always count warnings in num_warnings. */
 141:Middlewares/Third_Party/LibJPEG/source/jerror.c ****     err->num_warnings++;
 142:Middlewares/Third_Party/LibJPEG/source/jerror.c ****   } else {
 143:Middlewares/Third_Party/LibJPEG/source/jerror.c ****     /* It's a trace message.  Show it if trace_level >= msg_level. */
 144:Middlewares/Third_Party/LibJPEG/source/jerror.c ****     if (err->trace_level >= msg_level)
  79              		.loc 1 144 0
  80 0008 A36E     		ldr	r3, [r4, #104]
  81 000a 8B42     		cmp	r3, r1
  82 000c 01DB     		blt	.L3
 145:Middlewares/Third_Party/LibJPEG/source/jerror.c ****       (*err->output_message) (cinfo);
  83              		.loc 1 145 0
  84 000e A368     		ldr	r3, [r4, #8]
  85 0010 9847     		blx	r3
  86              	.LVL4:
ARM GAS  /tmp/ccgMZ2Kl.s 			page 5


  87              	.L3:
 146:Middlewares/Third_Party/LibJPEG/source/jerror.c ****   }
 147:Middlewares/Third_Party/LibJPEG/source/jerror.c **** }
  88              		.loc 1 147 0
  89 0012 10BD     		pop	{r4, pc}
  90              	.LVL5:
  91              	.L9:
 138:Middlewares/Third_Party/LibJPEG/source/jerror.c ****       (*err->output_message) (cinfo);
  92              		.loc 1 138 0
  93 0014 E36E     		ldr	r3, [r4, #108]
  94 0016 2BB9     		cbnz	r3, .L10
  95              	.L5:
 139:Middlewares/Third_Party/LibJPEG/source/jerror.c ****     /* Always count warnings in num_warnings. */
  96              		.loc 1 139 0
  97 0018 A368     		ldr	r3, [r4, #8]
  98 001a 9847     		blx	r3
  99              	.LVL6:
 100              	.L6:
 141:Middlewares/Third_Party/LibJPEG/source/jerror.c ****   } else {
 101              		.loc 1 141 0
 102 001c E36E     		ldr	r3, [r4, #108]
 103 001e 0133     		adds	r3, r3, #1
 104 0020 E366     		str	r3, [r4, #108]
 105 0022 F6E7     		b	.L3
 106              	.LVL7:
 107              	.L10:
 138:Middlewares/Third_Party/LibJPEG/source/jerror.c ****       (*err->output_message) (cinfo);
 108              		.loc 1 138 0 discriminator 1
 109 0024 A36E     		ldr	r3, [r4, #104]
 110 0026 022B     		cmp	r3, #2
 111 0028 F6DC     		bgt	.L5
 112 002a F7E7     		b	.L6
 113              		.cfi_endproc
 114              	.LFE5:
 116              		.section	.text.reset_error_mgr,"ax",%progbits
 117              		.align	1
 118              		.syntax unified
 119              		.thumb
 120              		.thumb_func
 121              		.fpu fpv5-sp-d16
 123              	reset_error_mgr:
 124              	.LFB7:
 148:Middlewares/Third_Party/LibJPEG/source/jerror.c **** 
 149:Middlewares/Third_Party/LibJPEG/source/jerror.c **** 
 150:Middlewares/Third_Party/LibJPEG/source/jerror.c **** /*
 151:Middlewares/Third_Party/LibJPEG/source/jerror.c ****  * Format a message string for the most recent JPEG error or message.
 152:Middlewares/Third_Party/LibJPEG/source/jerror.c ****  * The message is stored into buffer, which should be at least JMSG_LENGTH_MAX
 153:Middlewares/Third_Party/LibJPEG/source/jerror.c ****  * characters.  Note that no '\n' character is added to the string.
 154:Middlewares/Third_Party/LibJPEG/source/jerror.c ****  * Few applications should need to override this method.
 155:Middlewares/Third_Party/LibJPEG/source/jerror.c ****  */
 156:Middlewares/Third_Party/LibJPEG/source/jerror.c **** 
 157:Middlewares/Third_Party/LibJPEG/source/jerror.c **** METHODDEF(void)
 158:Middlewares/Third_Party/LibJPEG/source/jerror.c **** format_message (j_common_ptr cinfo, char * buffer)
 159:Middlewares/Third_Party/LibJPEG/source/jerror.c **** {
 160:Middlewares/Third_Party/LibJPEG/source/jerror.c ****   struct jpeg_error_mgr * err = cinfo->err;
 161:Middlewares/Third_Party/LibJPEG/source/jerror.c ****   int msg_code = err->msg_code;
 162:Middlewares/Third_Party/LibJPEG/source/jerror.c ****   const char * msgtext = NULL;
ARM GAS  /tmp/ccgMZ2Kl.s 			page 6


 163:Middlewares/Third_Party/LibJPEG/source/jerror.c ****   const char * msgptr;
 164:Middlewares/Third_Party/LibJPEG/source/jerror.c ****   char ch;
 165:Middlewares/Third_Party/LibJPEG/source/jerror.c ****   boolean isstring;
 166:Middlewares/Third_Party/LibJPEG/source/jerror.c **** 
 167:Middlewares/Third_Party/LibJPEG/source/jerror.c ****   /* Look up message string in proper table */
 168:Middlewares/Third_Party/LibJPEG/source/jerror.c ****   if (msg_code > 0 && msg_code <= err->last_jpeg_message) {
 169:Middlewares/Third_Party/LibJPEG/source/jerror.c ****     msgtext = err->jpeg_message_table[msg_code];
 170:Middlewares/Third_Party/LibJPEG/source/jerror.c ****   } else if (err->addon_message_table != NULL &&
 171:Middlewares/Third_Party/LibJPEG/source/jerror.c **** 	     msg_code >= err->first_addon_message &&
 172:Middlewares/Third_Party/LibJPEG/source/jerror.c **** 	     msg_code <= err->last_addon_message) {
 173:Middlewares/Third_Party/LibJPEG/source/jerror.c ****     msgtext = err->addon_message_table[msg_code - err->first_addon_message];
 174:Middlewares/Third_Party/LibJPEG/source/jerror.c ****   }
 175:Middlewares/Third_Party/LibJPEG/source/jerror.c **** 
 176:Middlewares/Third_Party/LibJPEG/source/jerror.c ****   /* Defend against bogus message number */
 177:Middlewares/Third_Party/LibJPEG/source/jerror.c ****   if (msgtext == NULL) {
 178:Middlewares/Third_Party/LibJPEG/source/jerror.c ****     err->msg_parm.i[0] = msg_code;
 179:Middlewares/Third_Party/LibJPEG/source/jerror.c ****     msgtext = err->jpeg_message_table[0];
 180:Middlewares/Third_Party/LibJPEG/source/jerror.c ****   }
 181:Middlewares/Third_Party/LibJPEG/source/jerror.c **** 
 182:Middlewares/Third_Party/LibJPEG/source/jerror.c ****   /* Check for string parameter, as indicated by %s in the message text */
 183:Middlewares/Third_Party/LibJPEG/source/jerror.c ****   isstring = FALSE;
 184:Middlewares/Third_Party/LibJPEG/source/jerror.c ****   msgptr = msgtext;
 185:Middlewares/Third_Party/LibJPEG/source/jerror.c ****   while ((ch = *msgptr++) != '\0') {
 186:Middlewares/Third_Party/LibJPEG/source/jerror.c ****     if (ch == '%') {
 187:Middlewares/Third_Party/LibJPEG/source/jerror.c ****       if (*msgptr == 's') isstring = TRUE;
 188:Middlewares/Third_Party/LibJPEG/source/jerror.c ****       break;
 189:Middlewares/Third_Party/LibJPEG/source/jerror.c ****     }
 190:Middlewares/Third_Party/LibJPEG/source/jerror.c ****   }
 191:Middlewares/Third_Party/LibJPEG/source/jerror.c **** 
 192:Middlewares/Third_Party/LibJPEG/source/jerror.c ****   /* Format the message into the passed buffer */
 193:Middlewares/Third_Party/LibJPEG/source/jerror.c ****   if (isstring)
 194:Middlewares/Third_Party/LibJPEG/source/jerror.c ****     sprintf(buffer, msgtext, err->msg_parm.s);
 195:Middlewares/Third_Party/LibJPEG/source/jerror.c ****   else
 196:Middlewares/Third_Party/LibJPEG/source/jerror.c ****     sprintf(buffer, msgtext,
 197:Middlewares/Third_Party/LibJPEG/source/jerror.c **** 	    err->msg_parm.i[0], err->msg_parm.i[1],
 198:Middlewares/Third_Party/LibJPEG/source/jerror.c **** 	    err->msg_parm.i[2], err->msg_parm.i[3],
 199:Middlewares/Third_Party/LibJPEG/source/jerror.c **** 	    err->msg_parm.i[4], err->msg_parm.i[5],
 200:Middlewares/Third_Party/LibJPEG/source/jerror.c **** 	    err->msg_parm.i[6], err->msg_parm.i[7]);
 201:Middlewares/Third_Party/LibJPEG/source/jerror.c **** }
 202:Middlewares/Third_Party/LibJPEG/source/jerror.c **** 
 203:Middlewares/Third_Party/LibJPEG/source/jerror.c **** 
 204:Middlewares/Third_Party/LibJPEG/source/jerror.c **** /*
 205:Middlewares/Third_Party/LibJPEG/source/jerror.c ****  * Reset error state variables at start of a new image.
 206:Middlewares/Third_Party/LibJPEG/source/jerror.c ****  * This is called during compression startup to reset trace/error
 207:Middlewares/Third_Party/LibJPEG/source/jerror.c ****  * processing to default state, without losing any application-specific
 208:Middlewares/Third_Party/LibJPEG/source/jerror.c ****  * method pointers.  An application might possibly want to override
 209:Middlewares/Third_Party/LibJPEG/source/jerror.c ****  * this method if it has additional error processing state.
 210:Middlewares/Third_Party/LibJPEG/source/jerror.c ****  */
 211:Middlewares/Third_Party/LibJPEG/source/jerror.c **** 
 212:Middlewares/Third_Party/LibJPEG/source/jerror.c **** METHODDEF(void)
 213:Middlewares/Third_Party/LibJPEG/source/jerror.c **** reset_error_mgr (j_common_ptr cinfo)
 214:Middlewares/Third_Party/LibJPEG/source/jerror.c **** {
 125              		.loc 1 214 0
 126              		.cfi_startproc
 127              		@ args = 0, pretend = 0, frame = 0
 128              		@ frame_needed = 0, uses_anonymous_args = 0
 129              		@ link register save eliminated.
ARM GAS  /tmp/ccgMZ2Kl.s 			page 7


 130              	.LVL8:
 215:Middlewares/Third_Party/LibJPEG/source/jerror.c ****   cinfo->err->num_warnings = 0;
 131              		.loc 1 215 0
 132 0000 0268     		ldr	r2, [r0]
 133 0002 0023     		movs	r3, #0
 134 0004 D366     		str	r3, [r2, #108]
 216:Middlewares/Third_Party/LibJPEG/source/jerror.c ****   /* trace_level is not reset since it is an application-supplied parameter */
 217:Middlewares/Third_Party/LibJPEG/source/jerror.c ****   cinfo->err->msg_code = 0;	/* may be useful as a flag for "no error" */
 135              		.loc 1 217 0
 136 0006 0268     		ldr	r2, [r0]
 137 0008 5361     		str	r3, [r2, #20]
 218:Middlewares/Third_Party/LibJPEG/source/jerror.c **** }
 138              		.loc 1 218 0
 139 000a 7047     		bx	lr
 140              		.cfi_endproc
 141              	.LFE7:
 143              		.section	.text.format_message,"ax",%progbits
 144              		.align	1
 145              		.syntax unified
 146              		.thumb
 147              		.thumb_func
 148              		.fpu fpv5-sp-d16
 150              	format_message:
 151              	.LFB6:
 159:Middlewares/Third_Party/LibJPEG/source/jerror.c ****   struct jpeg_error_mgr * err = cinfo->err;
 152              		.loc 1 159 0
 153              		.cfi_startproc
 154              		@ args = 0, pretend = 0, frame = 0
 155              		@ frame_needed = 0, uses_anonymous_args = 0
 156              	.LVL9:
 157 0000 30B5     		push	{r4, r5, lr}
 158              	.LCFI4:
 159              		.cfi_def_cfa_offset 12
 160              		.cfi_offset 4, -12
 161              		.cfi_offset 5, -8
 162              		.cfi_offset 14, -4
 163 0002 87B0     		sub	sp, sp, #28
 164              	.LCFI5:
 165              		.cfi_def_cfa_offset 40
 166 0004 0D46     		mov	r5, r1
 160:Middlewares/Third_Party/LibJPEG/source/jerror.c ****   int msg_code = err->msg_code;
 167              		.loc 1 160 0
 168 0006 0468     		ldr	r4, [r0]
 169              	.LVL10:
 161:Middlewares/Third_Party/LibJPEG/source/jerror.c ****   const char * msgtext = NULL;
 170              		.loc 1 161 0
 171 0008 6369     		ldr	r3, [r4, #20]
 172              	.LVL11:
 168:Middlewares/Third_Party/LibJPEG/source/jerror.c ****     msgtext = err->jpeg_message_table[msg_code];
 173              		.loc 1 168 0
 174 000a 002B     		cmp	r3, #0
 175 000c 11DD     		ble	.L13
 168:Middlewares/Third_Party/LibJPEG/source/jerror.c ****     msgtext = err->jpeg_message_table[msg_code];
 176              		.loc 1 168 0 is_stmt 0 discriminator 1
 177 000e 626F     		ldr	r2, [r4, #116]
 178 0010 9A42     		cmp	r2, r3
 179 0012 0EDB     		blt	.L13
ARM GAS  /tmp/ccgMZ2Kl.s 			page 8


 169:Middlewares/Third_Party/LibJPEG/source/jerror.c ****   } else if (err->addon_message_table != NULL &&
 180              		.loc 1 169 0 is_stmt 1
 181 0014 226F     		ldr	r2, [r4, #112]
 182 0016 52F82310 		ldr	r1, [r2, r3, lsl #2]
 183              	.LVL12:
 184              	.L14:
 177:Middlewares/Third_Party/LibJPEG/source/jerror.c ****     err->msg_parm.i[0] = msg_code;
 185              		.loc 1 177 0
 186 001a 11B9     		cbnz	r1, .L16
 187              	.LVL13:
 188              	.L15:
 178:Middlewares/Third_Party/LibJPEG/source/jerror.c ****     msgtext = err->jpeg_message_table[0];
 189              		.loc 1 178 0
 190 001c A361     		str	r3, [r4, #24]
 179:Middlewares/Third_Party/LibJPEG/source/jerror.c ****   }
 191              		.loc 1 179 0
 192 001e 236F     		ldr	r3, [r4, #112]
 193              	.LVL14:
 194 0020 1968     		ldr	r1, [r3]
 195              	.LVL15:
 196              	.L16:
 184:Middlewares/Third_Party/LibJPEG/source/jerror.c ****   while ((ch = *msgptr++) != '\0') {
 197              		.loc 1 184 0
 198 0022 0B46     		mov	r3, r1
 199              	.LVL16:
 200              	.L17:
 185:Middlewares/Third_Party/LibJPEG/source/jerror.c ****     if (ch == '%') {
 201              		.loc 1 185 0
 202 0024 5A1C     		adds	r2, r3, #1
 203              	.LVL17:
 204 0026 1878     		ldrb	r0, [r3]	@ zero_extendqisi2
 205              	.LVL18:
 206 0028 A0B1     		cbz	r0, .L19
 186:Middlewares/Third_Party/LibJPEG/source/jerror.c ****       if (*msgptr == 's') isstring = TRUE;
 207              		.loc 1 186 0
 208 002a 2528     		cmp	r0, #37
 209 002c 0FD0     		beq	.L24
 185:Middlewares/Third_Party/LibJPEG/source/jerror.c ****     if (ch == '%') {
 210              		.loc 1 185 0
 211 002e 1346     		mov	r3, r2
 212 0030 F8E7     		b	.L17
 213              	.LVL19:
 214              	.L13:
 170:Middlewares/Third_Party/LibJPEG/source/jerror.c **** 	     msg_code >= err->first_addon_message &&
 215              		.loc 1 170 0
 216 0032 A26F     		ldr	r2, [r4, #120]
 217 0034 002A     		cmp	r2, #0
 218 0036 F1D0     		beq	.L15
 171:Middlewares/Third_Party/LibJPEG/source/jerror.c **** 	     msg_code <= err->last_addon_message) {
 219              		.loc 1 171 0 discriminator 1
 220 0038 E16F     		ldr	r1, [r4, #124]
 221              	.LVL20:
 170:Middlewares/Third_Party/LibJPEG/source/jerror.c **** 	     msg_code >= err->first_addon_message &&
 222              		.loc 1 170 0 discriminator 1
 223 003a 9942     		cmp	r1, r3
 224 003c EEDC     		bgt	.L15
 172:Middlewares/Third_Party/LibJPEG/source/jerror.c ****     msgtext = err->addon_message_table[msg_code - err->first_addon_message];
ARM GAS  /tmp/ccgMZ2Kl.s 			page 9


 225              		.loc 1 172 0
 226 003e D4F88000 		ldr	r0, [r4, #128]
 227              	.LVL21:
 171:Middlewares/Third_Party/LibJPEG/source/jerror.c **** 	     msg_code <= err->last_addon_message) {
 228              		.loc 1 171 0
 229 0042 9842     		cmp	r0, r3
 230 0044 EADB     		blt	.L15
 173:Middlewares/Third_Party/LibJPEG/source/jerror.c ****   }
 231              		.loc 1 173 0
 232 0046 591A     		subs	r1, r3, r1
 233 0048 52F82110 		ldr	r1, [r2, r1, lsl #2]
 234              	.LVL22:
 235 004c E5E7     		b	.L14
 236              	.LVL23:
 237              	.L24:
 187:Middlewares/Third_Party/LibJPEG/source/jerror.c ****       break;
 238              		.loc 1 187 0
 239 004e 5B78     		ldrb	r3, [r3, #1]	@ zero_extendqisi2
 240 0050 732B     		cmp	r3, #115
 241 0052 12D0     		beq	.L25
 242              	.L19:
 196:Middlewares/Third_Party/LibJPEG/source/jerror.c **** 	    err->msg_parm.i[0], err->msg_parm.i[1],
 243              		.loc 1 196 0
 244 0054 E369     		ldr	r3, [r4, #28]
 245 0056 A269     		ldr	r2, [r4, #24]
 246              	.LVL24:
 247 0058 606B     		ldr	r0, [r4, #52]
 248              	.LVL25:
 249 005a 0590     		str	r0, [sp, #20]
 250              	.LVL26:
 251 005c 206B     		ldr	r0, [r4, #48]
 252 005e 0490     		str	r0, [sp, #16]
 253 0060 E06A     		ldr	r0, [r4, #44]
 254 0062 0390     		str	r0, [sp, #12]
 255 0064 A06A     		ldr	r0, [r4, #40]
 256 0066 0290     		str	r0, [sp, #8]
 257 0068 606A     		ldr	r0, [r4, #36]
 258 006a 0190     		str	r0, [sp, #4]
 259 006c 206A     		ldr	r0, [r4, #32]
 260 006e 0090     		str	r0, [sp]
 261 0070 2846     		mov	r0, r5
 262 0072 FFF7FEFF 		bl	sprintf
 263              	.LVL27:
 264              	.L12:
 201:Middlewares/Third_Party/LibJPEG/source/jerror.c **** 
 265              		.loc 1 201 0
 266 0076 07B0     		add	sp, sp, #28
 267              	.LCFI6:
 268              		.cfi_remember_state
 269              		.cfi_def_cfa_offset 12
 270              		@ sp needed
 271 0078 30BD     		pop	{r4, r5, pc}
 272              	.LVL28:
 273              	.L25:
 274              	.LCFI7:
 275              		.cfi_restore_state
 194:Middlewares/Third_Party/LibJPEG/source/jerror.c ****   else
ARM GAS  /tmp/ccgMZ2Kl.s 			page 10


 276              		.loc 1 194 0
 277 007a 04F11802 		add	r2, r4, #24
 278              	.LVL29:
 279 007e 2846     		mov	r0, r5
 280              	.LVL30:
 281 0080 FFF7FEFF 		bl	sprintf
 282              	.LVL31:
 283 0084 F7E7     		b	.L12
 284              		.cfi_endproc
 285              	.LFE6:
 287              		.section	.text.error_exit,"ax",%progbits
 288              		.align	1
 289              		.syntax unified
 290              		.thumb
 291              		.thumb_func
 292              		.fpu fpv5-sp-d16
 294              	error_exit:
 295              	.LFB3:
  71:Middlewares/Third_Party/LibJPEG/source/jerror.c ****   /* Always display the message */
 296              		.loc 1 71 0
 297              		.cfi_startproc
 298              		@ args = 0, pretend = 0, frame = 0
 299              		@ frame_needed = 0, uses_anonymous_args = 0
 300              	.LVL32:
 301 0000 10B5     		push	{r4, lr}
 302              	.LCFI8:
 303              		.cfi_def_cfa_offset 8
 304              		.cfi_offset 4, -8
 305              		.cfi_offset 14, -4
 306 0002 0446     		mov	r4, r0
  73:Middlewares/Third_Party/LibJPEG/source/jerror.c **** 
 307              		.loc 1 73 0
 308 0004 0368     		ldr	r3, [r0]
 309 0006 9B68     		ldr	r3, [r3, #8]
 310 0008 9847     		blx	r3
 311              	.LVL33:
  76:Middlewares/Third_Party/LibJPEG/source/jerror.c **** 
 312              		.loc 1 76 0
 313 000a 2046     		mov	r0, r4
 314 000c FFF7FEFF 		bl	jpeg_destroy
 315              	.LVL34:
  79:Middlewares/Third_Party/LibJPEG/source/jerror.c **** 
 316              		.loc 1 79 0
 317 0010 10BD     		pop	{r4, pc}
 318              		.cfi_endproc
 319              	.LFE3:
 321              		.section	.text.jpeg_std_error,"ax",%progbits
 322              		.align	1
 323              		.global	jpeg_std_error
 324              		.syntax unified
 325              		.thumb
 326              		.thumb_func
 327              		.fpu fpv5-sp-d16
 329              	jpeg_std_error:
 330              	.LFB8:
 219:Middlewares/Third_Party/LibJPEG/source/jerror.c **** 
 220:Middlewares/Third_Party/LibJPEG/source/jerror.c **** 
ARM GAS  /tmp/ccgMZ2Kl.s 			page 11


 221:Middlewares/Third_Party/LibJPEG/source/jerror.c **** /*
 222:Middlewares/Third_Party/LibJPEG/source/jerror.c ****  * Fill in the standard error-handling methods in a jpeg_error_mgr object.
 223:Middlewares/Third_Party/LibJPEG/source/jerror.c ****  * Typical call is:
 224:Middlewares/Third_Party/LibJPEG/source/jerror.c ****  *	struct jpeg_compress_struct cinfo;
 225:Middlewares/Third_Party/LibJPEG/source/jerror.c ****  *	struct jpeg_error_mgr err;
 226:Middlewares/Third_Party/LibJPEG/source/jerror.c ****  *
 227:Middlewares/Third_Party/LibJPEG/source/jerror.c ****  *	cinfo.err = jpeg_std_error(&err);
 228:Middlewares/Third_Party/LibJPEG/source/jerror.c ****  * after which the application may override some of the methods.
 229:Middlewares/Third_Party/LibJPEG/source/jerror.c ****  */
 230:Middlewares/Third_Party/LibJPEG/source/jerror.c **** 
 231:Middlewares/Third_Party/LibJPEG/source/jerror.c **** GLOBAL(struct jpeg_error_mgr *)
 232:Middlewares/Third_Party/LibJPEG/source/jerror.c **** jpeg_std_error (struct jpeg_error_mgr * err)
 233:Middlewares/Third_Party/LibJPEG/source/jerror.c **** {
 331              		.loc 1 233 0
 332              		.cfi_startproc
 333              		@ args = 0, pretend = 0, frame = 0
 334              		@ frame_needed = 0, uses_anonymous_args = 0
 335              		@ link register save eliminated.
 336              	.LVL35:
 234:Middlewares/Third_Party/LibJPEG/source/jerror.c ****   err->error_exit = error_exit;
 337              		.loc 1 234 0
 338 0000 0B4A     		ldr	r2, .L29
 339 0002 0260     		str	r2, [r0]
 235:Middlewares/Third_Party/LibJPEG/source/jerror.c ****   err->emit_message = emit_message;
 340              		.loc 1 235 0
 341 0004 0B4A     		ldr	r2, .L29+4
 342 0006 4260     		str	r2, [r0, #4]
 236:Middlewares/Third_Party/LibJPEG/source/jerror.c ****   err->output_message = output_message;
 343              		.loc 1 236 0
 344 0008 0B4A     		ldr	r2, .L29+8
 345 000a 8260     		str	r2, [r0, #8]
 237:Middlewares/Third_Party/LibJPEG/source/jerror.c ****   err->format_message = format_message;
 346              		.loc 1 237 0
 347 000c 0B4A     		ldr	r2, .L29+12
 348 000e C260     		str	r2, [r0, #12]
 238:Middlewares/Third_Party/LibJPEG/source/jerror.c ****   err->reset_error_mgr = reset_error_mgr;
 349              		.loc 1 238 0
 350 0010 0B4A     		ldr	r2, .L29+16
 351 0012 0261     		str	r2, [r0, #16]
 239:Middlewares/Third_Party/LibJPEG/source/jerror.c **** 
 240:Middlewares/Third_Party/LibJPEG/source/jerror.c ****   err->trace_level = 0;		/* default = no tracing */
 352              		.loc 1 240 0
 353 0014 0022     		movs	r2, #0
 354 0016 8266     		str	r2, [r0, #104]
 241:Middlewares/Third_Party/LibJPEG/source/jerror.c ****   err->num_warnings = 0;	/* no warnings emitted yet */
 355              		.loc 1 241 0
 356 0018 C266     		str	r2, [r0, #108]
 242:Middlewares/Third_Party/LibJPEG/source/jerror.c ****   err->msg_code = 0;		/* may be useful as a flag for "no error" */
 357              		.loc 1 242 0
 358 001a 4261     		str	r2, [r0, #20]
 243:Middlewares/Third_Party/LibJPEG/source/jerror.c **** 
 244:Middlewares/Third_Party/LibJPEG/source/jerror.c ****   /* Initialize message table pointers */
 245:Middlewares/Third_Party/LibJPEG/source/jerror.c ****   err->jpeg_message_table = jpeg_std_message_table;
 359              		.loc 1 245 0
 360 001c 0949     		ldr	r1, .L29+20
 361 001e 0167     		str	r1, [r0, #112]
 246:Middlewares/Third_Party/LibJPEG/source/jerror.c ****   err->last_jpeg_message = (int) JMSG_LASTMSGCODE - 1;
ARM GAS  /tmp/ccgMZ2Kl.s 			page 12


 362              		.loc 1 246 0
 363 0020 7E21     		movs	r1, #126
 364 0022 4167     		str	r1, [r0, #116]
 247:Middlewares/Third_Party/LibJPEG/source/jerror.c **** 
 248:Middlewares/Third_Party/LibJPEG/source/jerror.c ****   err->addon_message_table = NULL;
 365              		.loc 1 248 0
 366 0024 8267     		str	r2, [r0, #120]
 249:Middlewares/Third_Party/LibJPEG/source/jerror.c ****   err->first_addon_message = 0;	/* for safety */
 367              		.loc 1 249 0
 368 0026 C267     		str	r2, [r0, #124]
 250:Middlewares/Third_Party/LibJPEG/source/jerror.c ****   err->last_addon_message = 0;
 369              		.loc 1 250 0
 370 0028 C0F88020 		str	r2, [r0, #128]
 251:Middlewares/Third_Party/LibJPEG/source/jerror.c **** 
 252:Middlewares/Third_Party/LibJPEG/source/jerror.c ****   return err;
 253:Middlewares/Third_Party/LibJPEG/source/jerror.c **** }
 371              		.loc 1 253 0
 372 002c 7047     		bx	lr
 373              	.L30:
 374 002e 00BF     		.align	2
 375              	.L29:
 376 0030 00000000 		.word	error_exit
 377 0034 00000000 		.word	emit_message
 378 0038 00000000 		.word	output_message
 379 003c 00000000 		.word	format_message
 380 0040 00000000 		.word	reset_error_mgr
 381 0044 00000000 		.word	.LANCHOR0
 382              		.cfi_endproc
 383              	.LFE8:
 385              		.global	jpeg_std_message_table
 386              		.section	.rodata.jpeg_std_message_table,"a",%progbits
 387              		.align	2
 388              		.set	.LANCHOR0,. + 0
 391              	jpeg_std_message_table:
 392 0000 00000000 		.word	.LC0
 393 0004 18000000 		.word	.LC1
 394 0008 38000000 		.word	.LC2
 395 000c 60000000 		.word	.LC3
 396 0010 7C000000 		.word	.LC4
 397 0014 9C000000 		.word	.LC5
 398 0018 B4000000 		.word	.LC6
 399 001c D4000000 		.word	.LC7
 400 0020 00010000 		.word	.LC8
 401 0024 40010000 		.word	.LC9
 402 0028 60010000 		.word	.LC10
 403 002c 78010000 		.word	.LC11
 404 0030 90010000 		.word	.LC12
 405 0034 A4010000 		.word	.LC13
 406 0038 E4010000 		.word	.LC14
 407 003c 14020000 		.word	.LC15
 408 0040 30020000 		.word	.LC16
 409 0044 54020000 		.word	.LC17
 410 0048 8C020000 		.word	.LC18
 411 004c C4020000 		.word	.LC19
 412 0050 DC020000 		.word	.LC20
 413 0054 FC020000 		.word	.LC21
 414 0058 28030000 		.word	.LC22
ARM GAS  /tmp/ccgMZ2Kl.s 			page 13


 415 005c 78030000 		.word	.LC23
 416 0060 94030000 		.word	.LC24
 417 0064 C0030000 		.word	.LC25
 418 0068 DC030000 		.word	.LC26
 419 006c 04040000 		.word	.LC27
 420 0070 2C040000 		.word	.LC28
 421 0074 54040000 		.word	.LC29
 422 0078 68040000 		.word	.LC30
 423 007c 80040000 		.word	.LC31
 424 0080 94040000 		.word	.LC32
 425 0084 A8040000 		.word	.LC33
 426 0088 D0040000 		.word	.LC34
 427 008c E8040000 		.word	.LC35
 428 0090 FC040000 		.word	.LC36
 429 0094 20050000 		.word	.LC37
 430 0098 38050000 		.word	.LC38
 431 009c 68050000 		.word	.LC39
 432 00a0 90050000 		.word	.LC40
 433 00a4 B4050000 		.word	.LC41
 434 00a8 D8050000 		.word	.LC42
 435 00ac 08060000 		.word	.LC43
 436 00b0 1C060000 		.word	.LC44
 437 00b4 38060000 		.word	.LC45
 438 00b8 78060000 		.word	.LC46
 439 00bc A0060000 		.word	.LC47
 440 00c0 C8060000 		.word	.LC48
 441 00c4 DC060000 		.word	.LC49
 442 00c8 0C070000 		.word	.LC50
 443 00cc 34070000 		.word	.LC51
 444 00d0 50070000 		.word	.LC52
 445 00d4 78070000 		.word	.LC53
 446 00d8 9C070000 		.word	.LC54
 447 00dc C8070000 		.word	.LC55
 448 00e0 F4070000 		.word	.LC56
 449 00e4 14080000 		.word	.LC57
 450 00e8 44080000 		.word	.LC58
 451 00ec 6C080000 		.word	.LC59
 452 00f0 94080000 		.word	.LC60
 453 00f4 C4080000 		.word	.LC61
 454 00f8 F4080000 		.word	.LC62
 455 00fc 20090000 		.word	.LC63
 456 0100 50090000 		.word	.LC64
 457 0104 7C090000 		.word	.LC65
 458 0108 A0090000 		.word	.LC66
 459 010c C0090000 		.word	.LC67
 460 0110 E0090000 		.word	.LC68
 461 0114 180A0000 		.word	.LC69
 462 0118 440A0000 		.word	.LC70
 463 011c 640A0000 		.word	.LC71
 464 0120 880A0000 		.word	.LC72
 465 0124 B00A0000 		.word	.LC73
 466 0128 C80A0000 		.word	.LC74
 467 012c DC0A0000 		.word	.LC75
 468 0130 140B0000 		.word	.LC76
 469 0134 240B0000 		.word	.LC77
 470 0138 640B0000 		.word	.LC78
 471 013c A80B0000 		.word	.LC79
ARM GAS  /tmp/ccgMZ2Kl.s 			page 14


 472 0140 D40B0000 		.word	.LC80
 473 0144 000C0000 		.word	.LC81
 474 0148 280C0000 		.word	.LC82
 475 014c 440C0000 		.word	.LC83
 476 0150 700C0000 		.word	.LC84
 477 0154 8C0C0000 		.word	.LC85
 478 0158 A00C0000 		.word	.LC86
 479 015c B80C0000 		.word	.LC87
 480 0160 C80C0000 		.word	.LC88
 481 0164 F00C0000 		.word	.LC89
 482 0168 280D0000 		.word	.LC90
 483 016c 640D0000 		.word	.LC91
 484 0170 940D0000 		.word	.LC92
 485 0174 B80D0000 		.word	.LC93
 486 0178 E00D0000 		.word	.LC94
 487 017c FC0D0000 		.word	.LC95
 488 0180 240E0000 		.word	.LC96
 489 0184 480E0000 		.word	.LC97
 490 0188 600E0000 		.word	.LC98
 491 018c 840E0000 		.word	.LC99
 492 0190 AC0E0000 		.word	.LC100
 493 0194 B40E0000 		.word	.LC101
 494 0198 F00E0000 		.word	.LC102
 495 019c 2C0F0000 		.word	.LC103
 496 01a0 4C0F0000 		.word	.LC104
 497 01a4 5C0F0000 		.word	.LC105
 498 01a8 7C0F0000 		.word	.LC106
 499 01ac 9C0F0000 		.word	.LC107
 500 01b0 BC0F0000 		.word	.LC108
 501 01b4 D80F0000 		.word	.LC109
 502 01b8 F40F0000 		.word	.LC110
 503 01bc 38100000 		.word	.LC111
 504 01c0 74100000 		.word	.LC112
 505 01c4 AC100000 		.word	.LC113
 506 01c8 E0100000 		.word	.LC114
 507 01cc F4100000 		.word	.LC115
 508 01d0 0C110000 		.word	.LC116
 509 01d4 34110000 		.word	.LC117
 510 01d8 5C110000 		.word	.LC118
 511 01dc A0110000 		.word	.LC119
 512 01e0 DC110000 		.word	.LC120
 513 01e4 10120000 		.word	.LC121
 514 01e8 34120000 		.word	.LC122
 515 01ec 64120000 		.word	.LC123
 516 01f0 80120000 		.word	.LC124
 517 01f4 B8120000 		.word	.LC125
 518 01f8 E4120000 		.word	.LC126
 519 01fc 00000000 		.word	0
 520              		.section	.rodata.str1.4,"aMS",%progbits,1
 521              		.align	2
 522              	.LC0:
 523 0000 426F6775 		.ascii	"Bogus message code %d\000"
 523      73206D65 
 523      73736167 
 523      6520636F 
 523      64652025 
 524 0016 0000     		.space	2
ARM GAS  /tmp/ccgMZ2Kl.s 			page 15


 525              	.LC1:
 526 0018 414C4947 		.ascii	"ALIGN_TYPE is wrong, please fix\000"
 526      4E5F5459 
 526      50452069 
 526      73207772 
 526      6F6E672C 
 527              	.LC2:
 528 0038 4D41585F 		.ascii	"MAX_ALLOC_CHUNK is wrong, please fix\000"
 528      414C4C4F 
 528      435F4348 
 528      554E4B20 
 528      69732077 
 529 005d 000000   		.space	3
 530              	.LC3:
 531 0060 426F6775 		.ascii	"Bogus buffer control mode\000"
 531      73206275 
 531      66666572 
 531      20636F6E 
 531      74726F6C 
 532 007a 0000     		.space	2
 533              	.LC4:
 534 007c 496E7661 		.ascii	"Invalid component ID %d in SOS\000"
 534      6C696420 
 534      636F6D70 
 534      6F6E656E 
 534      74204944 
 535 009b 00       		.space	1
 536              	.LC5:
 537 009c 496E7661 		.ascii	"Invalid crop request\000"
 537      6C696420 
 537      63726F70 
 537      20726571 
 537      75657374 
 538 00b1 000000   		.space	3
 539              	.LC6:
 540 00b4 44435420 		.ascii	"DCT coefficient out of range\000"
 540      636F6566 
 540      66696369 
 540      656E7420 
 540      6F757420 
 541 00d1 000000   		.space	3
 542              	.LC7:
 543 00d4 44435420 		.ascii	"DCT scaled block size %dx%d not supported\000"
 543      7363616C 
 543      65642062 
 543      6C6F636B 
 543      2073697A 
 544 00fe 0000     		.space	2
 545              	.LC8:
 546 0100 436F6D70 		.ascii	"Component index %d: mismatching sampling ratio %d:%"
 546      6F6E656E 
 546      7420696E 
 546      64657820 
 546      25643A20 
 547 0133 642C2025 		.ascii	"d, %d:%d, %c\000"
 547      643A2564 
 547      2C202563 
ARM GAS  /tmp/ccgMZ2Kl.s 			page 16


 547      00
 548              	.LC9:
 549 0140 426F6775 		.ascii	"Bogus Huffman table definition\000"
 549      73204875 
 549      66666D61 
 549      6E207461 
 549      626C6520 
 550 015f 00       		.space	1
 551              	.LC10:
 552 0160 426F6775 		.ascii	"Bogus input colorspace\000"
 552      7320696E 
 552      70757420 
 552      636F6C6F 
 552      72737061 
 553 0177 00       		.space	1
 554              	.LC11:
 555 0178 426F6775 		.ascii	"Bogus JPEG colorspace\000"
 555      73204A50 
 555      45472063 
 555      6F6C6F72 
 555      73706163 
 556 018e 0000     		.space	2
 557              	.LC12:
 558 0190 426F6775 		.ascii	"Bogus marker length\000"
 558      73206D61 
 558      726B6572 
 558      206C656E 
 558      67746800 
 559              	.LC13:
 560 01a4 57726F6E 		.ascii	"Wrong JPEG library version: library is %d, caller e"
 560      67204A50 
 560      4547206C 
 560      69627261 
 560      72792076 
 561 01d7 78706563 		.ascii	"xpects %d\000"
 561      74732025 
 561      6400
 562 01e1 000000   		.space	3
 563              	.LC14:
 564 01e4 53616D70 		.ascii	"Sampling factors too large for interleaved scan\000"
 564      6C696E67 
 564      20666163 
 564      746F7273 
 564      20746F6F 
 565              	.LC15:
 566 0214 496E7661 		.ascii	"Invalid memory pool code %d\000"
 566      6C696420 
 566      6D656D6F 
 566      72792070 
 566      6F6F6C20 
 567              	.LC16:
 568 0230 556E7375 		.ascii	"Unsupported JPEG data precision %d\000"
 568      70706F72 
 568      74656420 
 568      4A504547 
 568      20646174 
 569 0253 00       		.space	1
ARM GAS  /tmp/ccgMZ2Kl.s 			page 17


 570              	.LC17:
 571 0254 496E7661 		.ascii	"Invalid progressive parameters Ss=%d Se=%d Ah=%d Al"
 571      6C696420 
 571      70726F67 
 571      72657373 
 571      69766520 
 572 0287 3D256400 		.ascii	"=%d\000"
 573 028b 00       		.space	1
 574              	.LC18:
 575 028c 496E7661 		.ascii	"Invalid progressive parameters at scan script entry"
 575      6C696420 
 575      70726F67 
 575      72657373 
 575      69766520 
 576 02bf 20256400 		.ascii	" %d\000"
 577 02c3 00       		.space	1
 578              	.LC19:
 579 02c4 426F6775 		.ascii	"Bogus sampling factors\000"
 579      73207361 
 579      6D706C69 
 579      6E672066 
 579      6163746F 
 580 02db 00       		.space	1
 581              	.LC20:
 582 02dc 496E7661 		.ascii	"Invalid scan script at entry %d\000"
 582      6C696420 
 582      7363616E 
 582      20736372 
 582      69707420 
 583              	.LC21:
 584 02fc 496D7072 		.ascii	"Improper call to JPEG library in state %d\000"
 584      6F706572 
 584      2063616C 
 584      6C20746F 
 584      204A5045 
 585 0326 0000     		.space	2
 586              	.LC22:
 587 0328 4A504547 		.ascii	"JPEG parameter struct mismatch: library thinks size"
 587      20706172 
 587      616D6574 
 587      65722073 
 587      74727563 
 588 035b 20697320 		.ascii	" is %u, caller expects %u\000"
 588      25752C20 
 588      63616C6C 
 588      65722065 
 588      78706563 
 589 0375 000000   		.space	3
 590              	.LC23:
 591 0378 426F6775 		.ascii	"Bogus virtual array access\000"
 591      73207669 
 591      72747561 
 591      6C206172 
 591      72617920 
 592 0393 00       		.space	1
 593              	.LC24:
 594 0394 42756666 		.ascii	"Buffer passed to JPEG library is too small\000"
ARM GAS  /tmp/ccgMZ2Kl.s 			page 18


 594      65722070 
 594      61737365 
 594      6420746F 
 594      204A5045 
 595 03bf 00       		.space	1
 596              	.LC25:
 597 03c0 53757370 		.ascii	"Suspension not allowed here\000"
 597      656E7369 
 597      6F6E206E 
 597      6F742061 
 597      6C6C6F77 
 598              	.LC26:
 599 03dc 43434952 		.ascii	"CCIR601 sampling not implemented yet\000"
 599      36303120 
 599      73616D70 
 599      6C696E67 
 599      206E6F74 
 600 0401 000000   		.space	3
 601              	.LC27:
 602 0404 546F6F20 		.ascii	"Too many color components: %d, max %d\000"
 602      6D616E79 
 602      20636F6C 
 602      6F722063 
 602      6F6D706F 
 603 042a 0000     		.space	2
 604              	.LC28:
 605 042c 556E7375 		.ascii	"Unsupported color conversion request\000"
 605      70706F72 
 605      74656420 
 605      636F6C6F 
 605      7220636F 
 606 0451 000000   		.space	3
 607              	.LC29:
 608 0454 426F6775 		.ascii	"Bogus DAC index %d\000"
 608      73204441 
 608      4320696E 
 608      64657820 
 608      256400
 609 0467 00       		.space	1
 610              	.LC30:
 611 0468 426F6775 		.ascii	"Bogus DAC value 0x%x\000"
 611      73204441 
 611      43207661 
 611      6C756520 
 611      30782578 
 612 047d 000000   		.space	3
 613              	.LC31:
 614 0480 426F6775 		.ascii	"Bogus DHT index %d\000"
 614      73204448 
 614      5420696E 
 614      64657820 
 614      256400
 615 0493 00       		.space	1
 616              	.LC32:
 617 0494 426F6775 		.ascii	"Bogus DQT index %d\000"
 617      73204451 
 617      5420696E 
ARM GAS  /tmp/ccgMZ2Kl.s 			page 19


 617      64657820 
 617      256400
 618 04a7 00       		.space	1
 619              	.LC33:
 620 04a8 456D7074 		.ascii	"Empty JPEG image (DNL not supported)\000"
 620      79204A50 
 620      45472069 
 620      6D616765 
 620      2028444E 
 621 04cd 000000   		.space	3
 622              	.LC34:
 623 04d0 52656164 		.ascii	"Read from EMS failed\000"
 623      2066726F 
 623      6D20454D 
 623      53206661 
 623      696C6564 
 624 04e5 000000   		.space	3
 625              	.LC35:
 626 04e8 57726974 		.ascii	"Write to EMS failed\000"
 626      6520746F 
 626      20454D53 
 626      20666169 
 626      6C656400 
 627              	.LC36:
 628 04fc 4469646E 		.ascii	"Didn't expect more than one scan\000"
 628      27742065 
 628      78706563 
 628      74206D6F 
 628      72652074 
 629 051d 000000   		.space	3
 630              	.LC37:
 631 0520 496E7075 		.ascii	"Input file read error\000"
 631      74206669 
 631      6C652072 
 631      65616420 
 631      6572726F 
 632 0536 0000     		.space	2
 633              	.LC38:
 634 0538 4F757470 		.ascii	"Output file write error --- out of disk space?\000"
 634      75742066 
 634      696C6520 
 634      77726974 
 634      65206572 
 635 0567 00       		.space	1
 636              	.LC39:
 637 0568 46726163 		.ascii	"Fractional sampling not implemented yet\000"
 637      74696F6E 
 637      616C2073 
 637      616D706C 
 637      696E6720 
 638              	.LC40:
 639 0590 48756666 		.ascii	"Huffman code size table overflow\000"
 639      6D616E20 
 639      636F6465 
 639      2073697A 
 639      65207461 
 640 05b1 000000   		.space	3
ARM GAS  /tmp/ccgMZ2Kl.s 			page 20


 641              	.LC41:
 642 05b4 4D697373 		.ascii	"Missing Huffman code table entry\000"
 642      696E6720 
 642      48756666 
 642      6D616E20 
 642      636F6465 
 643 05d5 000000   		.space	3
 644              	.LC42:
 645 05d8 4D617869 		.ascii	"Maximum supported image dimension is %u pixels\000"
 645      6D756D20 
 645      73757070 
 645      6F727465 
 645      6420696D 
 646 0607 00       		.space	1
 647              	.LC43:
 648 0608 456D7074 		.ascii	"Empty input file\000"
 648      7920696E 
 648      70757420 
 648      66696C65 
 648      00
 649 0619 000000   		.space	3
 650              	.LC44:
 651 061c 5072656D 		.ascii	"Premature end of input file\000"
 651      61747572 
 651      6520656E 
 651      64206F66 
 651      20696E70 
 652              	.LC45:
 653 0638 43616E6E 		.ascii	"Cannot transcode due to multiple use of quantizatio"
 653      6F742074 
 653      72616E73 
 653      636F6465 
 653      20647565 
 654 066b 6E207461 		.ascii	"n table %d\000"
 654      626C6520 
 654      256400
 655 0676 0000     		.space	2
 656              	.LC46:
 657 0678 5363616E 		.ascii	"Scan script does not transmit all data\000"
 657      20736372 
 657      69707420 
 657      646F6573 
 657      206E6F74 
 658 069f 00       		.space	1
 659              	.LC47:
 660 06a0 496E7661 		.ascii	"Invalid color quantization mode change\000"
 660      6C696420 
 660      636F6C6F 
 660      72207175 
 660      616E7469 
 661 06c7 00       		.space	1
 662              	.LC48:
 663 06c8 4E6F7420 		.ascii	"Not implemented yet\000"
 663      696D706C 
 663      656D656E 
 663      74656420 
 663      79657400 
ARM GAS  /tmp/ccgMZ2Kl.s 			page 21


 664              	.LC49:
 665 06dc 52657175 		.ascii	"Requested feature was omitted at compile time\000"
 665      65737465 
 665      64206665 
 665      61747572 
 665      65207761 
 666 070a 0000     		.space	2
 667              	.LC50:
 668 070c 41726974 		.ascii	"Arithmetic table 0x%02x was not defined\000"
 668      686D6574 
 668      69632074 
 668      61626C65 
 668      20307825 
 669              	.LC51:
 670 0734 4261636B 		.ascii	"Backing store not supported\000"
 670      696E6720 
 670      73746F72 
 670      65206E6F 
 670      74207375 
 671              	.LC52:
 672 0750 48756666 		.ascii	"Huffman table 0x%02x was not defined\000"
 672      6D616E20 
 672      7461626C 
 672      65203078 
 672      25303278 
 673 0775 000000   		.space	3
 674              	.LC53:
 675 0778 4A504547 		.ascii	"JPEG datastream contains no image\000"
 675      20646174 
 675      61737472 
 675      65616D20 
 675      636F6E74 
 676 079a 0000     		.space	2
 677              	.LC54:
 678 079c 5175616E 		.ascii	"Quantization table 0x%02x was not defined\000"
 678      74697A61 
 678      74696F6E 
 678      20746162 
 678      6C652030 
 679 07c6 0000     		.space	2
 680              	.LC55:
 681 07c8 4E6F7420 		.ascii	"Not a JPEG file: starts with 0x%02x 0x%02x\000"
 681      61204A50 
 681      45472066 
 681      696C653A 
 681      20737461 
 682 07f3 00       		.space	1
 683              	.LC56:
 684 07f4 496E7375 		.ascii	"Insufficient memory (case %d)\000"
 684      66666963 
 684      69656E74 
 684      206D656D 
 684      6F727920 
 685 0812 0000     		.space	2
 686              	.LC57:
 687 0814 43616E6E 		.ascii	"Cannot quantize more than %d color components\000"
 687      6F742071 
ARM GAS  /tmp/ccgMZ2Kl.s 			page 22


 687      75616E74 
 687      697A6520 
 687      6D6F7265 
 688 0842 0000     		.space	2
 689              	.LC58:
 690 0844 43616E6E 		.ascii	"Cannot quantize to fewer than %d colors\000"
 690      6F742071 
 690      75616E74 
 690      697A6520 
 690      746F2066 
 691              	.LC59:
 692 086c 43616E6E 		.ascii	"Cannot quantize to more than %d colors\000"
 692      6F742071 
 692      75616E74 
 692      697A6520 
 692      746F206D 
 693 0893 00       		.space	1
 694              	.LC60:
 695 0894 496E7661 		.ascii	"Invalid JPEG file structure: two SOF markers\000"
 695      6C696420 
 695      4A504547 
 695      2066696C 
 695      65207374 
 696 08c1 000000   		.space	3
 697              	.LC61:
 698 08c4 496E7661 		.ascii	"Invalid JPEG file structure: missing SOS marker\000"
 698      6C696420 
 698      4A504547 
 698      2066696C 
 698      65207374 
 699              	.LC62:
 700 08f4 556E7375 		.ascii	"Unsupported JPEG process: SOF type 0x%02x\000"
 700      70706F72 
 700      74656420 
 700      4A504547 
 700      2070726F 
 701 091e 0000     		.space	2
 702              	.LC63:
 703 0920 496E7661 		.ascii	"Invalid JPEG file structure: two SOI markers\000"
 703      6C696420 
 703      4A504547 
 703      2066696C 
 703      65207374 
 704 094d 000000   		.space	3
 705              	.LC64:
 706 0950 496E7661 		.ascii	"Invalid JPEG file structure: SOS before SOF\000"
 706      6C696420 
 706      4A504547 
 706      2066696C 
 706      65207374 
 707              	.LC65:
 708 097c 4661696C 		.ascii	"Failed to create temporary file %s\000"
 708      65642074 
 708      6F206372 
 708      65617465 
 708      2074656D 
 709 099f 00       		.space	1
ARM GAS  /tmp/ccgMZ2Kl.s 			page 23


 710              	.LC66:
 711 09a0 52656164 		.ascii	"Read failed on temporary file\000"
 711      20666169 
 711      6C656420 
 711      6F6E2074 
 711      656D706F 
 712 09be 0000     		.space	2
 713              	.LC67:
 714 09c0 5365656B 		.ascii	"Seek failed on temporary file\000"
 714      20666169 
 714      6C656420 
 714      6F6E2074 
 714      656D706F 
 715 09de 0000     		.space	2
 716              	.LC68:
 717 09e0 57726974 		.ascii	"Write failed on temporary file --- out of disk spac"
 717      65206661 
 717      696C6564 
 717      206F6E20 
 717      74656D70 
 718 0a13 653F00   		.ascii	"e?\000"
 719 0a16 0000     		.space	2
 720              	.LC69:
 721 0a18 4170706C 		.ascii	"Application transferred too few scanlines\000"
 721      69636174 
 721      696F6E20 
 721      7472616E 
 721      73666572 
 722 0a42 0000     		.space	2
 723              	.LC70:
 724 0a44 556E7375 		.ascii	"Unsupported marker type 0x%02x\000"
 724      70706F72 
 724      74656420 
 724      6D61726B 
 724      65722074 
 725 0a63 00       		.space	1
 726              	.LC71:
 727 0a64 56697274 		.ascii	"Virtual array controller messed up\000"
 727      75616C20 
 727      61727261 
 727      7920636F 
 727      6E74726F 
 728 0a87 00       		.space	1
 729              	.LC72:
 730 0a88 496D6167 		.ascii	"Image too wide for this implementation\000"
 730      6520746F 
 730      6F207769 
 730      64652066 
 730      6F722074 
 731 0aaf 00       		.space	1
 732              	.LC73:
 733 0ab0 52656164 		.ascii	"Read from XMS failed\000"
 733      2066726F 
 733      6D20584D 
 733      53206661 
 733      696C6564 
 734 0ac5 000000   		.space	3
ARM GAS  /tmp/ccgMZ2Kl.s 			page 24


 735              	.LC74:
 736 0ac8 57726974 		.ascii	"Write to XMS failed\000"
 736      6520746F 
 736      20584D53 
 736      20666169 
 736      6C656400 
 737              	.LC75:
 738 0adc 436F7079 		.ascii	"Copyright (C) 2012, Thomas G. Lane, Guido Vollbedin"
 738      72696768 
 738      74202843 
 738      29203230 
 738      31322C20 
 739 0b0f 6700     		.ascii	"g\000"
 740 0b11 000000   		.space	3
 741              	.LC76:
 742 0b14 38642020 		.ascii	"8d  15-Jan-2012\000"
 742      31352D4A 
 742      616E2D32 
 742      30313200 
 743              	.LC77:
 744 0b24 43617574 		.ascii	"Caution: quantization tables are too coarse for bas"
 744      696F6E3A 
 744      20717561 
 744      6E74697A 
 744      6174696F 
 745 0b57 656C696E 		.ascii	"eline JPEG\000"
 745      65204A50 
 745      454700
 746 0b62 0000     		.space	2
 747              	.LC78:
 748 0b64 41646F62 		.ascii	"Adobe APP14 marker: version %d, flags 0x%04x 0x%04x"
 748      65204150 
 748      50313420 
 748      6D61726B 
 748      65723A20 
 749 0b97 2C207472 		.ascii	", transform %d\000"
 749      616E7366 
 749      6F726D20 
 749      256400
 750 0ba6 0000     		.space	2
 751              	.LC79:
 752 0ba8 556E6B6E 		.ascii	"Unknown APP0 marker (not JFIF), length %u\000"
 752      6F776E20 
 752      41505030 
 752      206D6172 
 752      6B657220 
 753 0bd2 0000     		.space	2
 754              	.LC80:
 755 0bd4 556E6B6E 		.ascii	"Unknown APP14 marker (not Adobe), length %u\000"
 755      6F776E20 
 755      41505031 
 755      34206D61 
 755      726B6572 
 756              	.LC81:
 757 0c00 44656669 		.ascii	"Define Arithmetic Table 0x%02x: 0x%02x\000"
 757      6E652041 
 757      72697468 
ARM GAS  /tmp/ccgMZ2Kl.s 			page 25


 757      6D657469 
 757      63205461 
 758 0c27 00       		.space	1
 759              	.LC82:
 760 0c28 44656669 		.ascii	"Define Huffman Table 0x%02x\000"
 760      6E652048 
 760      7566666D 
 760      616E2054 
 760      61626C65 
 761              	.LC83:
 762 0c44 44656669 		.ascii	"Define Quantization Table %d  precision %d\000"
 762      6E652051 
 762      75616E74 
 762      697A6174 
 762      696F6E20 
 763 0c6f 00       		.space	1
 764              	.LC84:
 765 0c70 44656669 		.ascii	"Define Restart Interval %u\000"
 765      6E652052 
 765      65737461 
 765      72742049 
 765      6E746572 
 766 0c8b 00       		.space	1
 767              	.LC85:
 768 0c8c 46726565 		.ascii	"Freed EMS handle %u\000"
 768      6420454D 
 768      53206861 
 768      6E646C65 
 768      20257500 
 769              	.LC86:
 770 0ca0 4F627461 		.ascii	"Obtained EMS handle %u\000"
 770      696E6564 
 770      20454D53 
 770      2068616E 
 770      646C6520 
 771 0cb7 00       		.space	1
 772              	.LC87:
 773 0cb8 456E6420 		.ascii	"End Of Image\000"
 773      4F662049 
 773      6D616765 
 773      00
 774 0cc5 000000   		.space	3
 775              	.LC88:
 776 0cc8 20202020 		.ascii	"        %3d %3d %3d %3d %3d %3d %3d %3d\000"
 776      20202020 
 776      25336420 
 776      25336420 
 776      25336420 
 777              	.LC89:
 778 0cf0 4A464946 		.ascii	"JFIF APP0 marker: version %d.%02d, density %dx%d  %"
 778      20415050 
 778      30206D61 
 778      726B6572 
 778      3A207665 
 779 0d23 6400     		.ascii	"d\000"
 780 0d25 000000   		.space	3
 781              	.LC90:
ARM GAS  /tmp/ccgMZ2Kl.s 			page 26


 782 0d28 5761726E 		.ascii	"Warning: thumbnail image size does not match data l"
 782      696E673A 
 782      20746875 
 782      6D626E61 
 782      696C2069 
 783 0d5b 656E6774 		.ascii	"ength %u\000"
 783      68202575 
 783      00
 784              	.LC91:
 785 0d64 4A464946 		.ascii	"JFIF extension marker: type 0x%02x, length %u\000"
 785      20657874 
 785      656E7369 
 785      6F6E206D 
 785      61726B65 
 786 0d92 0000     		.space	2
 787              	.LC92:
 788 0d94 20202020 		.ascii	"    with %d x %d thumbnail image\000"
 788      77697468 
 788      20256420 
 788      78202564 
 788      20746875 
 789 0db5 000000   		.space	3
 790              	.LC93:
 791 0db8 4D697363 		.ascii	"Miscellaneous marker 0x%02x, length %u\000"
 791      656C6C61 
 791      6E656F75 
 791      73206D61 
 791      726B6572 
 792 0ddf 00       		.space	1
 793              	.LC94:
 794 0de0 556E6578 		.ascii	"Unexpected marker 0x%02x\000"
 794      70656374 
 794      6564206D 
 794      61726B65 
 794      72203078 
 795 0df9 000000   		.space	3
 796              	.LC95:
 797 0dfc 20202020 		.ascii	"        %4u %4u %4u %4u %4u %4u %4u %4u\000"
 797      20202020 
 797      25347520 
 797      25347520 
 797      25347520 
 798              	.LC96:
 799 0e24 5175616E 		.ascii	"Quantizing to %d = %d*%d*%d colors\000"
 799      74697A69 
 799      6E672074 
 799      6F202564 
 799      203D2025 
 800 0e47 00       		.space	1
 801              	.LC97:
 802 0e48 5175616E 		.ascii	"Quantizing to %d colors\000"
 802      74697A69 
 802      6E672074 
 802      6F202564 
 802      20636F6C 
 803              	.LC98:
 804 0e60 53656C65 		.ascii	"Selected %d colors for quantization\000"
ARM GAS  /tmp/ccgMZ2Kl.s 			page 27


 804      63746564 
 804      20256420 
 804      636F6C6F 
 804      72732066 
 805              	.LC99:
 806 0e84 4174206D 		.ascii	"At marker 0x%02x, recovery action %d\000"
 806      61726B65 
 806      72203078 
 806      25303278 
 806      2C207265 
 807 0ea9 000000   		.space	3
 808              	.LC100:
 809 0eac 52535425 		.ascii	"RST%d\000"
 809      6400
 810 0eb2 0000     		.space	2
 811              	.LC101:
 812 0eb4 536D6F6F 		.ascii	"Smoothing not supported with nonstandard sampling r"
 812      7468696E 
 812      67206E6F 
 812      74207375 
 812      70706F72 
 813 0ee7 6174696F 		.ascii	"atios\000"
 813      7300
 814 0eed 000000   		.space	3
 815              	.LC102:
 816 0ef0 53746172 		.ascii	"Start Of Frame 0x%02x: width=%u, height=%u, compone"
 816      74204F66 
 816      20467261 
 816      6D652030 
 816      78253032 
 817 0f23 6E74733D 		.ascii	"nts=%d\000"
 817      256400
 818 0f2a 0000     		.space	2
 819              	.LC103:
 820 0f2c 20202020 		.ascii	"    Component %d: %dhx%dv q=%d\000"
 820      436F6D70 
 820      6F6E656E 
 820      74202564 
 820      3A202564 
 821 0f4b 00       		.space	1
 822              	.LC104:
 823 0f4c 53746172 		.ascii	"Start of Image\000"
 823      74206F66 
 823      20496D61 
 823      676500
 824 0f5b 00       		.space	1
 825              	.LC105:
 826 0f5c 53746172 		.ascii	"Start Of Scan: %d components\000"
 826      74204F66 
 826      20536361 
 826      6E3A2025 
 826      6420636F 
 827 0f79 000000   		.space	3
 828              	.LC106:
 829 0f7c 20202020 		.ascii	"    Component %d: dc=%d ac=%d\000"
 829      436F6D70 
 829      6F6E656E 
ARM GAS  /tmp/ccgMZ2Kl.s 			page 28


 829      74202564 
 829      3A206463 
 830 0f9a 0000     		.space	2
 831              	.LC107:
 832 0f9c 20205373 		.ascii	"  Ss=%d, Se=%d, Ah=%d, Al=%d\000"
 832      3D25642C 
 832      2053653D 
 832      25642C20 
 832      41683D25 
 833 0fb9 000000   		.space	3
 834              	.LC108:
 835 0fbc 436C6F73 		.ascii	"Closed temporary file %s\000"
 835      65642074 
 835      656D706F 
 835      72617279 
 835      2066696C 
 836 0fd5 000000   		.space	3
 837              	.LC109:
 838 0fd8 4F70656E 		.ascii	"Opened temporary file %s\000"
 838      65642074 
 838      656D706F 
 838      72617279 
 838      2066696C 
 839 0ff1 000000   		.space	3
 840              	.LC110:
 841 0ff4 4A464946 		.ascii	"JFIF extension marker: JPEG-compressed thumbnail im"
 841      20657874 
 841      656E7369 
 841      6F6E206D 
 841      61726B65 
 842 1027 6167652C 		.ascii	"age, length %u\000"
 842      206C656E 
 842      67746820 
 842      257500
 843 1036 0000     		.space	2
 844              	.LC111:
 845 1038 4A464946 		.ascii	"JFIF extension marker: palette thumbnail image, len"
 845      20657874 
 845      656E7369 
 845      6F6E206D 
 845      61726B65 
 846 106b 67746820 		.ascii	"gth %u\000"
 846      257500
 847 1072 0000     		.space	2
 848              	.LC112:
 849 1074 4A464946 		.ascii	"JFIF extension marker: RGB thumbnail image, length "
 849      20657874 
 849      656E7369 
 849      6F6E206D 
 849      61726B65 
 850 10a7 257500   		.ascii	"%u\000"
 851 10aa 0000     		.space	2
 852              	.LC113:
 853 10ac 556E7265 		.ascii	"Unrecognized component IDs %d %d %d, assuming YCbCr"
 853      636F676E 
 853      697A6564 
 853      20636F6D 
ARM GAS  /tmp/ccgMZ2Kl.s 			page 29


 853      706F6E65 
 854 10df 00       		.ascii	"\000"
 855              	.LC114:
 856 10e0 46726565 		.ascii	"Freed XMS handle %u\000"
 856      6420584D 
 856      53206861 
 856      6E646C65 
 856      20257500 
 857              	.LC115:
 858 10f4 4F627461 		.ascii	"Obtained XMS handle %u\000"
 858      696E6564 
 858      20584D53 
 858      2068616E 
 858      646C6520 
 859 110b 00       		.space	1
 860              	.LC116:
 861 110c 556E6B6E 		.ascii	"Unknown Adobe color transform code %d\000"
 861      6F776E20 
 861      41646F62 
 861      6520636F 
 861      6C6F7220 
 862 1132 0000     		.space	2
 863              	.LC117:
 864 1134 436F7272 		.ascii	"Corrupt JPEG data: bad arithmetic code\000"
 864      75707420 
 864      4A504547 
 864      20646174 
 864      613A2062 
 865 115b 00       		.space	1
 866              	.LC118:
 867 115c 496E636F 		.ascii	"Inconsistent progression sequence for component %d "
 867      6E736973 
 867      74656E74 
 867      2070726F 
 867      67726573 
 868 118f 636F6566 		.ascii	"coefficient %d\000"
 868      66696369 
 868      656E7420 
 868      256400
 869 119e 0000     		.space	2
 870              	.LC119:
 871 11a0 436F7272 		.ascii	"Corrupt JPEG data: %u extraneous bytes before marke"
 871      75707420 
 871      4A504547 
 871      20646174 
 871      613A2025 
 872 11d3 72203078 		.ascii	"r 0x%02x\000"
 872      25303278 
 872      00
 873              	.LC120:
 874 11dc 436F7272 		.ascii	"Corrupt JPEG data: premature end of data segment\000"
 874      75707420 
 874      4A504547 
 874      20646174 
 874      613A2070 
 875 120d 000000   		.space	3
 876              	.LC121:
ARM GAS  /tmp/ccgMZ2Kl.s 			page 30


 877 1210 436F7272 		.ascii	"Corrupt JPEG data: bad Huffman code\000"
 877      75707420 
 877      4A504547 
 877      20646174 
 877      613A2062 
 878              	.LC122:
 879 1234 5761726E 		.ascii	"Warning: unknown JFIF revision number %d.%02d\000"
 879      696E673A 
 879      20756E6B 
 879      6E6F776E 
 879      204A4649 
 880 1262 0000     		.space	2
 881              	.LC123:
 882 1264 5072656D 		.ascii	"Premature end of JPEG file\000"
 882      61747572 
 882      6520656E 
 882      64206F66 
 882      204A5045 
 883 127f 00       		.space	1
 884              	.LC124:
 885 1280 436F7272 		.ascii	"Corrupt JPEG data: found marker 0x%02x instead of R"
 885      75707420 
 885      4A504547 
 885      20646174 
 885      613A2066 
 886 12b3 53542564 		.ascii	"ST%d\000"
 886      00
 887              	.LC125:
 888 12b8 496E7661 		.ascii	"Invalid SOS parameters for sequential JPEG\000"
 888      6C696420 
 888      534F5320 
 888      70617261 
 888      6D657465 
 889 12e3 00       		.space	1
 890              	.LC126:
 891 12e4 4170706C 		.ascii	"Application transferred too many scanlines\000"
 891      69636174 
 891      696F6E20 
 891      7472616E 
 891      73666572 
 892              		.text
 893              	.Letext0:
 894              		.file 2 "/home/jaxc/opt/gcc-arm-none-eabi-7-2018-q2-update/lib/gcc/arm-none-eabi/7.3.1/include/std
 895              		.file 3 "/home/jaxc/opt/gcc-arm-none-eabi-7-2018-q2-update/arm-none-eabi/include/sys/lock.h"
 896              		.file 4 "/home/jaxc/opt/gcc-arm-none-eabi-7-2018-q2-update/arm-none-eabi/include/sys/_types.h"
 897              		.file 5 "/home/jaxc/opt/gcc-arm-none-eabi-7-2018-q2-update/arm-none-eabi/include/sys/reent.h"
 898              		.file 6 "/home/jaxc/opt/gcc-arm-none-eabi-7-2018-q2-update/arm-none-eabi/include/stdlib.h"
 899              		.file 7 "Inc/jmorecfg.h"
 900              		.file 8 "Middlewares/Third_Party/LibJPEG/include/jpeglib.h"
 901              		.file 9 "/home/jaxc/opt/gcc-arm-none-eabi-7-2018-q2-update/arm-none-eabi/include/stdio.h"
 902              		.file 10 "Middlewares/Third_Party/LibJPEG/include/jerror.h"
ARM GAS  /tmp/ccgMZ2Kl.s 			page 31

